
obj/cnc_controller.elf:     file format elf32-littlearm


Disassembly of section .text:

00008000 <_start>:
    8000:	e59ff018 	ldr	pc, [pc, #24]	; 8020 <reset_handler>
    8004:	e59ff018 	ldr	pc, [pc, #24]	; 8024 <undefined_handler>
    8008:	e59ff018 	ldr	pc, [pc, #24]	; 8028 <swi_handler>
    800c:	e59ff018 	ldr	pc, [pc, #24]	; 802c <prefetch_handler>
    8010:	e59ff018 	ldr	pc, [pc, #24]	; 8030 <data_handler>
    8014:	e59ff018 	ldr	pc, [pc, #24]	; 8034 <hyp_handler>
    8018:	e59ff018 	ldr	pc, [pc, #24]	; 8038 <irq_handler>
    801c:	e59ff018 	ldr	pc, [pc, #24]	; 803c <fiq_handler>

00008020 <reset_handler>:
    8020:	00008040 	andeq	r8, r0, r0, asr #32

00008024 <undefined_handler>:
    8024:	00008060 	andeq	r8, r0, r0, rrx

00008028 <swi_handler>:
    8028:	00008064 	andeq	r8, r0, r4, rrx

0000802c <prefetch_handler>:
    802c:	00008064 	andeq	r8, r0, r4, rrx

00008030 <data_handler>:
    8030:	00008064 	andeq	r8, r0, r4, rrx

00008034 <hyp_handler>:
    8034:	00008064 	andeq	r8, r0, r4, rrx

00008038 <irq_handler>:
    8038:	000080f4 	strdeq	r8, [r0], -r4

0000803c <fiq_handler>:
    803c:	00008064 	andeq	r8, r0, r4, rrx

00008040 <reset>:
    8040:	e3a000d2 	mov	r0, #210	; 0xd2
    8044:	e121f000 	msr	CPSR_c, r0
    8048:	e59fd0b4 	ldr	sp, [pc, #180]	; 8104 <irq+0x10>
    804c:	e3a000d3 	mov	r0, #211	; 0xd3
    8050:	e121f000 	msr	CPSR_c, r0
    8054:	e3a0d302 	mov	sp, #134217728	; 0x8000000
    8058:	eb000002 	bl	8068 <_init_core>
    805c:	eb00021a 	bl	88cc <kernel_main>

00008060 <alarm>:
    8060:	eb00004a 	bl	8190 <c_hang>

00008064 <hang>:
    8064:	eafffffe 	b	8064 <hang>

00008068 <_init_core>:
    8068:	e3a00000 	mov	r0, #0
    806c:	e3a01000 	mov	r1, #0
    8070:	e3a02000 	mov	r2, #0
    8074:	e3a03000 	mov	r3, #0
    8078:	e3a04000 	mov	r4, #0
    807c:	e3a05000 	mov	r5, #0
    8080:	e3a06000 	mov	r6, #0
    8084:	e3a07000 	mov	r7, #0
    8088:	e3a08000 	mov	r8, #0
    808c:	e3a09000 	mov	r9, #0
    8090:	e3a00902 	mov	r0, #32768	; 0x8000
    8094:	ee8c0f10 	mcr	15, 4, r0, cr12, cr0, {0}
    8098:	ee111f50 	mrc	15, 0, r1, cr1, cr0, {2}
    809c:	e381160f 	orr	r1, r1, #15728640	; 0xf00000
    80a0:	ee011f50 	mcr	15, 0, r1, cr1, cr0, {2}
    80a4:	e3a01000 	mov	r1, #0
    80a8:	ee071f95 	mcr	15, 0, r1, cr7, cr5, {4}
    80ac:	e3a00101 	mov	r0, #1073741824	; 0x40000000
    80b0:	eee80a10 	vmsr	fpexc, r0
    80b4:	e12fff1e 	bx	lr

000080b8 <_init_sp>:
    80b8:	e1a0d000 	mov	sp, r0
    80bc:	e12fff1e 	bx	lr

000080c0 <PUT32>:
    80c0:	e5801000 	str	r1, [r0]
    80c4:	e12fff1e 	bx	lr

000080c8 <GET32>:
    80c8:	e5900000 	ldr	r0, [r0]
    80cc:	e12fff1e 	bx	lr

000080d0 <dummy>:
    80d0:	e12fff1e 	bx	lr

000080d4 <_enable_irq>:
    80d4:	e10f0000 	mrs	r0, CPSR
    80d8:	e3c00080 	bic	r0, r0, #128	; 0x80
    80dc:	e121f000 	msr	CPSR_c, r0
    80e0:	e12fff1e 	bx	lr

000080e4 <_disable_irq>:
    80e4:	e10f0000 	mrs	r0, CPSR
    80e8:	e3800080 	orr	r0, r0, #128	; 0x80
    80ec:	e121f000 	msr	CPSR_c, r0
    80f0:	e12fff1e 	bx	lr

000080f4 <irq>:
    80f4:	e92d5fff 	push	{r0, r1, r2, r3, r4, r5, r6, r7, r8, r9, sl, fp, ip, lr}
    80f8:	eb000002 	bl	8108 <c_irq_handler>
    80fc:	e8bd5fff 	pop	{r0, r1, r2, r3, r4, r5, r6, r7, r8, r9, sl, fp, ip, lr}
    8100:	e160006e 	eret
    8104:	00007ffc 	strdeq	r7, [r0], -ip

00008108 <c_irq_handler>:
    8108:	e92d4010 	push	{r4, lr}
    810c:	e30f4818 	movw	r4, #63512	; 0xf818
    8110:	e3404001 	movt	r4, #1
    8114:	e5942000 	ldr	r2, [r4]
    8118:	e5923014 	ldr	r3, [r2, #20]
    811c:	e3530001 	cmp	r3, #1
    8120:	0a000017 	beq	8184 <c_irq_handler+0x7c>
    8124:	e30f3824 	movw	r3, #63524	; 0xf824
    8128:	e3403001 	movt	r3, #1
    812c:	e5933000 	ldr	r3, [r3]
    8130:	e5933048 	ldr	r3, [r3, #72]	; 0x48
    8134:	e2033006 	and	r3, r3, #6
    8138:	e3530004 	cmp	r3, #4
    813c:	0a000002 	beq	814c <c_irq_handler+0x44>
    8140:	e3a03001 	mov	r3, #1
    8144:	e582300c 	str	r3, [r2, #12]
    8148:	e8bd8010 	pop	{r4, pc}
    814c:	eb00027f 	bl	8b50 <_uart_rx>
    8150:	e3072540 	movw	r2, #30016	; 0x7540
    8154:	e3071544 	movw	r1, #30020	; 0x7544
    8158:	e3402001 	movt	r2, #1
    815c:	e3401001 	movt	r1, #1
    8160:	e5d23000 	ldrb	r3, [r2]
    8164:	e6ef3073 	uxtb	r3, r3
    8168:	e283c001 	add	ip, r3, #1
    816c:	e6efc07c 	uxtb	ip, ip
    8170:	e5c2c000 	strb	ip, [r2]
    8174:	e7c10003 	strb	r0, [r1, r3]
    8178:	eb000266 	bl	8b18 <_uart_tx>
    817c:	e5942000 	ldr	r2, [r4]
    8180:	eaffffee 	b	8140 <c_irq_handler+0x38>
    8184:	eb0004c1 	bl	9490 <sd_IRQ>
    8188:	e5942000 	ldr	r2, [r4]
    818c:	eaffffeb 	b	8140 <c_irq_handler+0x38>

00008190 <c_hang>:
    8190:	e92d4010 	push	{r4, lr}
    8194:	e3a0002d 	mov	r0, #45	; 0x2d
    8198:	e3064b84 	movw	r4, #27524	; 0x6b84
    819c:	eb00025d 	bl	8b18 <_uart_tx>
    81a0:	e3a00065 	mov	r0, #101	; 0x65
    81a4:	e3404001 	movt	r4, #1
    81a8:	e3a06902 	mov	r6, #32768	; 0x8000
    81ac:	eb000259 	bl	8b18 <_uart_tx>
    81b0:	e3a05008 	mov	r5, #8
    81b4:	eb0001d9 	bl	8920 <get_core_id>
    81b8:	e2800030 	add	r0, r0, #48	; 0x30
    81bc:	e6ef0070 	uxtb	r0, r0
    81c0:	eb000254 	bl	8b18 <_uart_tx>
    81c4:	e3a0002d 	mov	r0, #45	; 0x2d
    81c8:	eb000252 	bl	8b18 <_uart_tx>
    81cc:	e3a0000a 	mov	r0, #10
    81d0:	eb000250 	bl	8b18 <_uart_tx>
    81d4:	e5943000 	ldr	r3, [r4]
    81d8:	e5836020 	str	r6, [r3, #32]
    81dc:	e583502c 	str	r5, [r3, #44]	; 0x2c
    81e0:	eb0001d7 	bl	8944 <CNT32>
    81e4:	e2800bc3 	add	r0, r0, #199680	; 0x30c00
    81e8:	e2800d05 	add	r0, r0, #320	; 0x140
    81ec:	eb0001e4 	bl	8984 <waitcnt32>
    81f0:	e5943000 	ldr	r3, [r4]
    81f4:	e583602c 	str	r6, [r3, #44]	; 0x2c
    81f8:	e5835020 	str	r5, [r3, #32]
    81fc:	eb0001d0 	bl	8944 <CNT32>
    8200:	e2800bc3 	add	r0, r0, #199680	; 0x30c00
    8204:	e2800d05 	add	r0, r0, #320	; 0x140
    8208:	eb0001dd 	bl	8984 <waitcnt32>
    820c:	eafffff0 	b	81d4 <c_hang+0x44>

00008210 <_init>:
    8210:	e92d4070 	push	{r4, r5, r6, lr}
    8214:	e3065b84 	movw	r5, #27524	; 0x6b84
    8218:	e3405001 	movt	r5, #1
    821c:	e30f4818 	movw	r4, #63512	; 0xf818
    8220:	e3404001 	movt	r4, #1
    8224:	ebffffae 	bl	80e4 <_disable_irq>
    8228:	eb0001db 	bl	899c <_get_gpio_reg>
    822c:	e5850000 	str	r0, [r5]
    8230:	eb0001f9 	bl	8a1c <_get_arm_timer>
    8234:	e5840000 	str	r0, [r4]
    8238:	eb0001fa 	bl	8a28 <_get_irq_controller>
    823c:	e30f382c 	movw	r3, #63532	; 0xf82c
    8240:	e3403001 	movt	r3, #1
    8244:	e5830000 	str	r0, [r3]
    8248:	eb0001f9 	bl	8a34 <_get_aux>
    824c:	e5953000 	ldr	r3, [r5]
    8250:	e30fe824 	movw	lr, #63524	; 0xf824
    8254:	e340e001 	movt	lr, #1
    8258:	e3a02005 	mov	r2, #5
    825c:	e5931010 	ldr	r1, [r3, #16]
    8260:	e58e0000 	str	r0, [lr]
    8264:	e3a00cc2 	mov	r0, #49664	; 0xc200
    8268:	e3c1160e 	bic	r1, r1, #14680064	; 0xe00000
    826c:	e3400001 	movt	r0, #1
    8270:	e5831010 	str	r1, [r3, #16]
    8274:	e3a01008 	mov	r1, #8
    8278:	e593c010 	ldr	ip, [r3, #16]
    827c:	e38cc602 	orr	ip, ip, #2097152	; 0x200000
    8280:	e583c010 	str	ip, [r3, #16]
    8284:	e593c00c 	ldr	ip, [r3, #12]
    8288:	e3ccc90e 	bic	ip, ip, #229376	; 0x38000
    828c:	e583c00c 	str	ip, [r3, #12]
    8290:	e593c00c 	ldr	ip, [r3, #12]
    8294:	e38cc902 	orr	ip, ip, #32768	; 0x8000
    8298:	e583c00c 	str	ip, [r3, #12]
    829c:	eb0001e7 	bl	8a40 <_uart_init>
    82a0:	e5942000 	ldr	r2, [r4]
    82a4:	e3073540 	movw	r3, #30016	; 0x7540
    82a8:	e3403001 	movt	r3, #1
    82ac:	e3a01000 	mov	r1, #0
    82b0:	e5c31000 	strb	r1, [r3]
    82b4:	e3a03010 	mov	r3, #16
    82b8:	e5823000 	str	r3, [r2]
    82bc:	e3a030a2 	mov	r3, #162	; 0xa2
    82c0:	e5823008 	str	r3, [r2, #8]
    82c4:	ebffff82 	bl	80d4 <_enable_irq>
    82c8:	e3060468 	movw	r0, #25704	; 0x6468
    82cc:	e3400001 	movt	r0, #1
    82d0:	e8bd4070 	pop	{r4, r5, r6, lr}
    82d4:	ea00110e 	b	c714 <puts>

000082d8 <process_cmd>:
    82d8:	e5d03000 	ldrb	r3, [r0]
    82dc:	e3530024 	cmp	r3, #36	; 0x24
    82e0:	0a000001 	beq	82ec <process_cmd+0x14>
    82e4:	e3a00000 	mov	r0, #0
    82e8:	e12fff1e 	bx	lr
    82ec:	e5d03001 	ldrb	r3, [r0, #1]
    82f0:	e3530064 	cmp	r3, #100	; 0x64
    82f4:	0a000007 	beq	8318 <process_cmd+0x40>
    82f8:	e3530072 	cmp	r3, #114	; 0x72
    82fc:	0a000003 	beq	8310 <process_cmd+0x38>
    8300:	e3530063 	cmp	r3, #99	; 0x63
    8304:	03a00002 	moveq	r0, #2
    8308:	13a00000 	movne	r0, #0
    830c:	e12fff1e 	bx	lr
    8310:	e3a00003 	mov	r0, #3
    8314:	e12fff1e 	bx	lr
    8318:	e5d03002 	ldrb	r3, [r0, #2]
    831c:	e3a00001 	mov	r0, #1
    8320:	e2433030 	sub	r3, r3, #48	; 0x30
    8324:	e5c13000 	strb	r3, [r1]
    8328:	e12fff1e 	bx	lr

0000832c <iface_main>:
    832c:	e92d4ff8 	push	{r3, r4, r5, r6, r7, r8, r9, sl, fp, lr}
    8330:	e3074540 	movw	r4, #30016	; 0x7540
    8334:	e3075544 	movw	r5, #30020	; 0x7544
    8338:	e3404001 	movt	r4, #1
    833c:	e306047c 	movw	r0, #25724	; 0x647c
    8340:	e3405001 	movt	r5, #1
    8344:	e30fa828 	movw	sl, #63528	; 0xf828
    8348:	e30f981c 	movw	r9, #63516	; 0xf81c
    834c:	e30f8820 	movw	r8, #63520	; 0xf820
    8350:	e3400001 	movt	r0, #1
    8354:	e1a07004 	mov	r7, r4
    8358:	e1a06005 	mov	r6, r5
    835c:	e340a001 	movt	sl, #1
    8360:	e3409001 	movt	r9, #1
    8364:	e3408001 	movt	r8, #1
    8368:	eb0010e9 	bl	c714 <puts>
    836c:	e3a03000 	mov	r3, #0
    8370:	e5c43000 	strb	r3, [r4]
    8374:	eb0001f0 	bl	8b3c <_uart_check>
    8378:	e3500000 	cmp	r0, #0
    837c:	0afffffc 	beq	8374 <iface_main+0x48>
    8380:	eb0001f2 	bl	8b50 <_uart_rx>
    8384:	e5d43000 	ldrb	r3, [r4]
    8388:	e350000a 	cmp	r0, #10
    838c:	e6ef3073 	uxtb	r3, r3
    8390:	e2832001 	add	r2, r3, #1
    8394:	e6ef2072 	uxtb	r2, r2
    8398:	e5c42000 	strb	r2, [r4]
    839c:	e7c50003 	strb	r0, [r5, r3]
    83a0:	1afffff3 	bne	8374 <iface_main+0x48>
    83a4:	e5d73000 	ldrb	r3, [r7]
    83a8:	e3071544 	movw	r1, #30020	; 0x7544
    83ac:	e3060494 	movw	r0, #25748	; 0x6494
    83b0:	e3a0b000 	mov	fp, #0
    83b4:	e6ef3073 	uxtb	r3, r3
    83b8:	e3401001 	movt	r1, #1
    83bc:	e3400001 	movt	r0, #1
    83c0:	e7c6b003 	strb	fp, [r6, r3]
    83c4:	eb001097 	bl	c628 <printf>
    83c8:	e5d63000 	ldrb	r3, [r6]
    83cc:	e5c7b000 	strb	fp, [r7]
    83d0:	e3530024 	cmp	r3, #36	; 0x24
    83d4:	1affffe6 	bne	8374 <iface_main+0x48>
    83d8:	e5d63001 	ldrb	r3, [r6, #1]
    83dc:	e3530064 	cmp	r3, #100	; 0x64
    83e0:	0a000008 	beq	8408 <iface_main+0xdc>
    83e4:	e3530072 	cmp	r3, #114	; 0x72
    83e8:	0a000003 	beq	83fc <iface_main+0xd0>
    83ec:	e3530063 	cmp	r3, #99	; 0x63
    83f0:	03a03001 	moveq	r3, #1
    83f4:	05893000 	streq	r3, [r9]
    83f8:	eaffffdd 	b	8374 <iface_main+0x48>
    83fc:	e3a03001 	mov	r3, #1
    8400:	e5883000 	str	r3, [r8]
    8404:	eaffffda 	b	8374 <iface_main+0x48>
    8408:	e3073544 	movw	r3, #30020	; 0x7544
    840c:	e3403001 	movt	r3, #1
    8410:	e5d33002 	ldrb	r3, [r3, #2]
    8414:	e2433030 	sub	r3, r3, #48	; 0x30
    8418:	e6ef3073 	uxtb	r3, r3
    841c:	e58a3000 	str	r3, [sl]
    8420:	eaffffd3 	b	8374 <iface_main+0x48>

00008424 <iface_entry>:
    8424:	e3a0051e 	mov	r0, #125829120	; 0x7800000
    8428:	ebffff22 	bl	80b8 <_init_sp>
    842c:	ebffff0d 	bl	8068 <_init_core>
    8430:	ebffffbd 	bl	832c <iface_main>

00008434 <mc_main>:
    8434:	e92d4ff0 	push	{r4, r5, r6, r7, r8, r9, sl, fp, lr}
    8438:	e30f2828 	movw	r2, #63528	; 0xf828
    843c:	ed2d8b02 	vpush	{d8}
    8440:	e24ddc5f 	sub	sp, sp, #24320	; 0x5f00
    8444:	e30f3820 	movw	r3, #63520	; 0xf820
    8448:	e24dd084 	sub	sp, sp, #132	; 0x84
    844c:	e1a01002 	mov	r1, r2
    8450:	e3403001 	movt	r3, #1
    8454:	e30f581c 	movw	r5, #63516	; 0xf81c
    8458:	e58d3024 	str	r3, [sp, #36]	; 0x24
    845c:	e1a02003 	mov	r2, r3
    8460:	e1a03001 	mov	r3, r1
    8464:	e3405001 	movt	r5, #1
    8468:	e3403001 	movt	r3, #1
    846c:	e58d3008 	str	r3, [sp, #8]
    8470:	e1a01003 	mov	r1, r3
    8474:	e3a03000 	mov	r3, #0
    8478:	e5823000 	str	r3, [r2]
    847c:	e5853000 	str	r3, [r5]
    8480:	e5813000 	str	r3, [r1]
    8484:	eb0004d2 	bl	97d4 <get_sd_state>
    8488:	e3500001 	cmp	r0, #1
    848c:	1afffffc 	bne	8484 <mc_main+0x50>
    8490:	e3060498 	movw	r0, #25752	; 0x6498
    8494:	e3400001 	movt	r0, #1
    8498:	eb00109d 	bl	c714 <puts>
    849c:	eb0004c3 	bl	97b0 <get_x_axis>
    84a0:	e58d0014 	str	r0, [sp, #20]
    84a4:	eb0004c4 	bl	97bc <get_y_axis>
    84a8:	eef20a04 	vmov.f32	s1, #36	; 0x41200000  10.0
    84ac:	eeb71a00 	vmov.f32	s2, #112	; 0x3f800000  1.0
    84b0:	e58d0018 	str	r0, [sp, #24]
    84b4:	eeb00a60 	vmov.f32	s0, s1
    84b8:	eb000474 	bl	9690 <set_target>
    84bc:	eb0004d7 	bl	9820 <motion_active>
    84c0:	e3500000 	cmp	r0, #0
    84c4:	1afffffc 	bne	84bc <mc_main+0x88>
    84c8:	eef20a04 	vmov.f32	s1, #36	; 0x41200000  10.0
    84cc:	e3063b78 	movw	r3, #27512	; 0x6b78
    84d0:	ed9f1af8 	vldr	s2, [pc, #992]	; 88b8 <mc_main+0x484>
    84d4:	e3062b7c 	movw	r2, #27516	; 0x6b7c
    84d8:	eeb08a04 	vmov.f32	s16, #4	; 0x40200000  2.5
    84dc:	e3061b80 	movw	r1, #27520	; 0x6b80
    84e0:	eeb00a60 	vmov.f32	s0, s1
    84e4:	e3060340 	movw	r0, #25408	; 0x6340
    84e8:	e3403001 	movt	r3, #1
    84ec:	e3402001 	movt	r2, #1
    84f0:	e58d300c 	str	r3, [sp, #12]
    84f4:	e3401001 	movt	r1, #1
    84f8:	e58d201c 	str	r2, [sp, #28]
    84fc:	e3400001 	movt	r0, #1
    8500:	e58d1010 	str	r1, [sp, #16]
    8504:	e3a0b101 	mov	fp, #1073741824	; 0x40000000
    8508:	e58d0020 	str	r0, [sp, #32]
    850c:	e28da044 	add	sl, sp, #68	; 0x44
    8510:	eb00045e 	bl	9690 <set_target>
    8514:	e59d300c 	ldr	r3, [sp, #12]
    8518:	e30f881c 	movw	r8, #63516	; 0xf81c
    851c:	e3a06000 	mov	r6, #0
    8520:	e30f4828 	movw	r4, #63528	; 0xf828
    8524:	e5937000 	ldr	r7, [r3]
    8528:	e3408001 	movt	r8, #1
    852c:	e1a09006 	mov	r9, r6
    8530:	e3404001 	movt	r4, #1
    8534:	e5953000 	ldr	r3, [r5]
    8538:	e3530000 	cmp	r3, #0
    853c:	0afffffc 	beq	8534 <mc_main+0x100>
    8540:	e59d3008 	ldr	r3, [sp, #8]
    8544:	e5889000 	str	r9, [r8]
    8548:	e5933000 	ldr	r3, [r3]
    854c:	e3530002 	cmp	r3, #2
    8550:	0a0000b8 	beq	8838 <mc_main+0x404>
    8554:	e3530003 	cmp	r3, #3
    8558:	e30604c0 	movw	r0, #25792	; 0x64c0
    855c:	e3400001 	movt	r0, #1
    8560:	0a0000ae 	beq	8820 <mc_main+0x3ec>
    8564:	e3530001 	cmp	r3, #1
    8568:	0a0000a9 	beq	8814 <mc_main+0x3e0>
    856c:	e5846000 	str	r6, [r4]
    8570:	eb001067 	bl	c714 <puts>
    8574:	e59d3008 	ldr	r3, [sp, #8]
    8578:	e5932000 	ldr	r2, [r3]
    857c:	e30f3828 	movw	r3, #63528	; 0xf828
    8580:	e3403001 	movt	r3, #1
    8584:	e3520000 	cmp	r2, #0
    8588:	0affffe9 	beq	8534 <mc_main+0x100>
    858c:	e5931000 	ldr	r1, [r3]
    8590:	e30604e8 	movw	r0, #25832	; 0x64e8
    8594:	e3400001 	movt	r0, #1
    8598:	e3a08000 	mov	r8, #0
    859c:	e1a04008 	mov	r4, r8
    85a0:	eb001020 	bl	c628 <printf>
    85a4:	e59d3010 	ldr	r3, [sp, #16]
    85a8:	e30604f4 	movw	r0, #25844	; 0x64f4
    85ac:	e1a01007 	mov	r1, r7
    85b0:	e3400001 	movt	r0, #1
    85b4:	e5932000 	ldr	r2, [r3]
    85b8:	e28d6068 	add	r6, sp, #104	; 0x68
    85bc:	eb001019 	bl	c628 <printf>
    85c0:	e30604fc 	movw	r0, #25852	; 0x64fc
    85c4:	e3400001 	movt	r0, #1
    85c8:	eb001051 	bl	c714 <puts>
    85cc:	e58d8028 	str	r8, [sp, #40]	; 0x28
    85d0:	e3060508 	movw	r0, #25864	; 0x6508
    85d4:	e58d7068 	str	r7, [sp, #104]	; 0x68
    85d8:	e3400001 	movt	r0, #1
    85dc:	e1a08007 	mov	r8, r7
    85e0:	eb00104b 	bl	c714 <puts>
    85e4:	ea000009 	b	8610 <mc_main+0x1dc>
    85e8:	eb001049 	bl	c714 <puts>
    85ec:	e1a00008 	mov	r0, r8
    85f0:	e28d2028 	add	r2, sp, #40	; 0x28
    85f4:	e3a01000 	mov	r1, #0
    85f8:	eb000739 	bl	a2e4 <find_first>
    85fc:	e59d3028 	ldr	r3, [sp, #40]	; 0x28
    8600:	e2833001 	add	r3, r3, #1
    8604:	e0844003 	add	r4, r4, r3
    8608:	e0878004 	add	r8, r7, r4
    860c:	e5a68004 	str	r8, [r6, #4]!
    8610:	e3061518 	movw	r1, #25880	; 0x6518
    8614:	e1a00008 	mov	r0, r8
    8618:	e3401001 	movt	r1, #1
    861c:	eb0011b0 	bl	cce4 <strcmp>
    8620:	e3500000 	cmp	r0, #0
    8624:	e1a00008 	mov	r0, r8
    8628:	1affffee 	bne	85e8 <mc_main+0x1b4>
    862c:	e306051c 	movw	r0, #25884	; 0x651c
    8630:	e3a04000 	mov	r4, #0
    8634:	e3400001 	movt	r0, #1
    8638:	e3444120 	movt	r4, #16672	; 0x4120
    863c:	e3a07000 	mov	r7, #0
    8640:	eb001033 	bl	c714 <puts>
    8644:	e28d0f6a 	add	r0, sp, #424	; 0x1a8
    8648:	e1a06004 	mov	r6, r4
    864c:	e28d9064 	add	r9, sp, #100	; 0x64
    8650:	eb00059f 	bl	9cd4 <init_q>
    8654:	e28d0dc2 	add	r0, sp, #12416	; 0x3080
    8658:	e2800014 	add	r0, r0, #20
    865c:	eb00059c 	bl	9cd4 <init_q>
    8660:	e59d3018 	ldr	r3, [sp, #24]
    8664:	e59dc014 	ldr	ip, [sp, #20]
    8668:	edd37a05 	vldr	s15, [r3, #20]
    866c:	e28d3040 	add	r3, sp, #64	; 0x40
    8670:	e59d2020 	ldr	r2, [sp, #32]
    8674:	e2433008 	sub	r3, r3, #8
    8678:	eef70ae7 	vcvt.f64.f32	d16, s15
    867c:	eddc7a05 	vldr	s15, [ip, #20]
    8680:	e8920007 	ldm	r2, {r0, r1, r2}
    8684:	eef71ae7 	vcvt.f64.f32	d17, s15
    8688:	e8830007 	stm	r3, {r0, r1, r2}
    868c:	e3060528 	movw	r0, #25896	; 0x6528
    8690:	ec532b31 	vmov	r2, r3, d17
    8694:	e3400001 	movt	r0, #1
    8698:	edcd0b00 	vstr	d16, [sp]
    869c:	eb000fe1 	bl	c628 <printf>
    86a0:	e5b98004 	ldr	r8, [r9, #4]!
    86a4:	e3061518 	movw	r1, #25880	; 0x6518
    86a8:	e3401001 	movt	r1, #1
    86ac:	e1a00008 	mov	r0, r8
    86b0:	eb00118b 	bl	cce4 <strcmp>
    86b4:	e3500000 	cmp	r0, #0
    86b8:	0a000064 	beq	8850 <mc_main+0x41c>
    86bc:	e58da000 	str	sl, [sp]
    86c0:	e28d3040 	add	r3, sp, #64	; 0x40
    86c4:	e5036008 	str	r6, [r3, #-8]
    86c8:	e2432008 	sub	r2, r3, #8
    86cc:	e5824004 	str	r4, [r2, #4]
    86d0:	e28dc030 	add	ip, sp, #48	; 0x30
    86d4:	e8920007 	ldm	r2, {r0, r1, r2}
    86d8:	e503700c 	str	r7, [r3, #-12]
    86dc:	e28d3050 	add	r3, sp, #80	; 0x50
    86e0:	e58cb000 	str	fp, [ip]
    86e4:	e8830007 	stm	r3, {r0, r1, r2}
    86e8:	e503700c 	str	r7, [r3, #-12]
    86ec:	e3e01000 	mvn	r1, #0
    86f0:	e5037008 	str	r7, [r3, #-8]
    86f4:	e1a0200c 	mov	r2, ip
    86f8:	e5037004 	str	r7, [r3, #-4]
    86fc:	e1a00008 	mov	r0, r8
    8700:	e58d102c 	str	r1, [sp, #44]	; 0x2c
    8704:	e28d3034 	add	r3, sp, #52	; 0x34
    8708:	e28d102c 	add	r1, sp, #44	; 0x2c
    870c:	eb0005cb 	bl	9e40 <read_line>
    8710:	e59d102c 	ldr	r1, [sp, #44]	; 0x2c
    8714:	e3510003 	cmp	r1, #3
    8718:	979ff101 	ldrls	pc, [pc, r1, lsl #2]
    871c:	ea000038 	b	8804 <mc_main+0x3d0>
    8720:	000087f4 	strdeq	r8, [r0], -r4
    8724:	000087c0 	andeq	r8, r0, r0, asr #15
    8728:	00008730 	andeq	r8, r0, r0, lsr r7
    872c:	000087ec 	andeq	r8, r0, ip, ror #15
    8730:	e3a03001 	mov	r3, #1
    8734:	ed9d0a0d 	vldr	s0, [sp, #52]	; 0x34
    8738:	e28d2040 	add	r2, sp, #64	; 0x40
    873c:	e1a0100a 	mov	r1, sl
    8740:	e28d2050 	add	r2, sp, #80	; 0x50
    8744:	e28d0f6a 	add	r0, sp, #424	; 0x1a8
    8748:	e28d4060 	add	r4, sp, #96	; 0x60
    874c:	eb000657 	bl	a0b0 <process_circular>
    8750:	e28d3d3e 	add	r3, sp, #3968	; 0xf80
    8754:	e28d0f6a 	add	r0, sp, #424	; 0x1a8
    8758:	e2436ef1 	sub	r6, r3, #3856	; 0xf10
    875c:	eb000570 	bl	9d24 <isEmpty>
    8760:	e3500000 	cmp	r0, #0
    8764:	1a00000f 	bne	87a8 <mc_main+0x374>
    8768:	e28d0f6a 	add	r0, sp, #424	; 0x1a8
    876c:	eb000593 	bl	9dc0 <removeData>
    8770:	ed061a03 	vstr	s2, [r6, #-12]
    8774:	e28d3030 	add	r3, sp, #48	; 0x30
    8778:	ed931a00 	vldr	s2, [r3]
    877c:	ed040a01 	vstr	s0, [r4, #-4]
    8780:	ee811a08 	vdiv.f32	s2, s2, s16
    8784:	edc40a00 	vstr	s1, [r4]
    8788:	eb0003c0 	bl	9690 <set_target>
    878c:	eb000423 	bl	9820 <motion_active>
    8790:	e3500000 	cmp	r0, #0
    8794:	1afffffc 	bne	878c <mc_main+0x358>
    8798:	e28d0f6a 	add	r0, sp, #424	; 0x1a8
    879c:	eb000560 	bl	9d24 <isEmpty>
    87a0:	e3500000 	cmp	r0, #0
    87a4:	0affffef 	beq	8768 <mc_main+0x334>
    87a8:	e59d6044 	ldr	r6, [sp, #68]	; 0x44
    87ac:	e28d3050 	add	r3, sp, #80	; 0x50
    87b0:	e5134008 	ldr	r4, [r3, #-8]
    87b4:	e1a00008 	mov	r0, r8
    87b8:	eb000fd5 	bl	c714 <puts>
    87bc:	eaffffb7 	b	86a0 <mc_main+0x26c>
    87c0:	eddd7a0c 	vldr	s15, [sp, #48]	; 0x30
    87c4:	e28d3030 	add	r3, sp, #48	; 0x30
    87c8:	ee871a88 	vdiv.f32	s2, s15, s16
    87cc:	eddd0a12 	vldr	s1, [sp, #72]	; 0x48
    87d0:	e28d3050 	add	r3, sp, #80	; 0x50
    87d4:	ed130a03 	vldr	s0, [r3, #-12]
    87d8:	eb0003ac 	bl	9690 <set_target>
    87dc:	eb00040f 	bl	9820 <motion_active>
    87e0:	e3500000 	cmp	r0, #0
    87e4:	1afffffc 	bne	87dc <mc_main+0x3a8>
    87e8:	eaffffee 	b	87a8 <mc_main+0x374>
    87ec:	e3e03000 	mvn	r3, #0
    87f0:	eaffffcf 	b	8734 <mc_main+0x300>
    87f4:	eeb71a00 	vmov.f32	s2, #112	; 0x3f800000  1.0
    87f8:	e28d3030 	add	r3, sp, #48	; 0x30
    87fc:	ed838a00 	vstr	s16, [r3]
    8800:	eafffff1 	b	87cc <mc_main+0x398>
    8804:	e3060548 	movw	r0, #25928	; 0x6548
    8808:	e3400001 	movt	r0, #1
    880c:	eb000f85 	bl	c628 <printf>
    8810:	eaffffe4 	b	87a8 <mc_main+0x374>
    8814:	e59d300c 	ldr	r3, [sp, #12]
    8818:	e5937000 	ldr	r7, [r3]
    881c:	eaffff54 	b	8574 <mc_main+0x140>
    8820:	e30604b0 	movw	r0, #25776	; 0x64b0
    8824:	e3400001 	movt	r0, #1
    8828:	eb000fb9 	bl	c714 <puts>
    882c:	e59d3010 	ldr	r3, [sp, #16]
    8830:	e5937000 	ldr	r7, [r3]
    8834:	eaffff4e 	b	8574 <mc_main+0x140>
    8838:	e30604b0 	movw	r0, #25776	; 0x64b0
    883c:	e3400001 	movt	r0, #1
    8840:	eb000fb3 	bl	c714 <puts>
    8844:	e59d301c 	ldr	r3, [sp, #28]
    8848:	e5937000 	ldr	r7, [r3]
    884c:	eaffff48 	b	8574 <mc_main+0x140>
    8850:	e3060584 	movw	r0, #25988	; 0x6584
    8854:	e3400001 	movt	r0, #1
    8858:	eb000fad 	bl	c714 <puts>
    885c:	e59d1024 	ldr	r1, [sp, #36]	; 0x24
    8860:	e5912000 	ldr	r2, [r1]
    8864:	e30f3820 	movw	r3, #63520	; 0xf820
    8868:	e3403001 	movt	r3, #1
    886c:	e3520000 	cmp	r2, #0
    8870:	0afffffa 	beq	8860 <mc_main+0x42c>
    8874:	e306058c 	movw	r0, #25996	; 0x658c
    8878:	e3a02000 	mov	r2, #0
    887c:	e5832000 	str	r2, [r3]
    8880:	e3400001 	movt	r0, #1
    8884:	eb000fa2 	bl	c714 <puts>
    8888:	eef20a04 	vmov.f32	s1, #36	; 0x41200000  10.0
    888c:	eeb01a04 	vmov.f32	s2, #4	; 0x40200000  2.5
    8890:	eeb00a60 	vmov.f32	s0, s1
    8894:	eb00037d 	bl	9690 <set_target>
    8898:	eb0003e0 	bl	9820 <motion_active>
    889c:	e3500000 	cmp	r0, #0
    88a0:	1afffffc 	bne	8898 <mc_main+0x464>
    88a4:	eef20a04 	vmov.f32	s1, #36	; 0x41200000  10.0
    88a8:	ed9f1a02 	vldr	s2, [pc, #8]	; 88b8 <mc_main+0x484>
    88ac:	eeb00a60 	vmov.f32	s0, s1
    88b0:	eb000376 	bl	9690 <set_target>
    88b4:	eaffff16 	b	8514 <mc_main+0xe0>
    88b8:	3dcccccd 	stclcc	12, cr12, [ip, #820]	; 0x334

000088bc <mc_entry>:
    88bc:	e3a0051f 	mov	r0, #130023424	; 0x7c00000
    88c0:	ebfffdfc 	bl	80b8 <_init_sp>
    88c4:	ebfffde7 	bl	8068 <_init_core>
    88c8:	ebfffed9 	bl	8434 <mc_main>

000088cc <kernel_main>:
    88cc:	ebfffe4f 	bl	8210 <_init>
    88d0:	e3063b84 	movw	r3, #27524	; 0x6b84
    88d4:	e3a02902 	mov	r2, #32768	; 0x8000
    88d8:	e3403001 	movt	r3, #1
    88dc:	e3a0109c 	mov	r1, #156	; 0x9c
    88e0:	e30808bc 	movw	r0, #35004	; 0x88bc
    88e4:	e3441000 	movt	r1, #16384	; 0x4000
    88e8:	e5933000 	ldr	r3, [r3]
    88ec:	e3400000 	movt	r0, #0
    88f0:	e5832020 	str	r2, [r3, #32]
    88f4:	eb0001e6 	bl	9094 <start_core>
    88f8:	e3a010ac 	mov	r1, #172	; 0xac
    88fc:	e3080424 	movw	r0, #33828	; 0x8424
    8900:	e3441000 	movt	r1, #16384	; 0x4000
    8904:	e3400000 	movt	r0, #0
    8908:	eb0001e1 	bl	9094 <start_core>
    890c:	eb00000c 	bl	8944 <CNT32>
    8910:	e2800b61 	add	r0, r0, #99328	; 0x18400
    8914:	e2800e2a 	add	r0, r0, #672	; 0x2a0
    8918:	eb000019 	bl	8984 <waitcnt32>
    891c:	ea0004c7 	b	9c40 <sd_main>

00008920 <get_core_id>:
    8920:	ee100fb0 	mrc	15, 0, r0, cr0, cr0, {5}
    8924:	e2000003 	and	r0, r0, #3
    8928:	e12fff1e 	bx	lr

0000892c <get_pf_m>:
    892c:	e3070594 	movw	r0, #30100	; 0x7594
    8930:	e3400001 	movt	r0, #1
    8934:	e12fff1e 	bx	lr

00008938 <_get_sys_timer>:
    8938:	e3a00a03 	mov	r0, #12288	; 0x3000
    893c:	e3430f00 	movt	r0, #16128	; 0x3f00
    8940:	e12fff1e 	bx	lr

00008944 <CNT32>:
    8944:	e3a03a03 	mov	r3, #12288	; 0x3000
    8948:	e3433f00 	movt	r3, #16128	; 0x3f00
    894c:	e5930004 	ldr	r0, [r3, #4]
    8950:	e12fff1e 	bx	lr

00008954 <CNT64>:
    8954:	e3a01a03 	mov	r1, #12288	; 0x3000
    8958:	e3a02000 	mov	r2, #0
    895c:	e3431f00 	movt	r1, #16128	; 0x3f00
    8960:	e92d0030 	push	{r4, r5}
    8964:	e5910004 	ldr	r0, [r1, #4]
    8968:	e5911008 	ldr	r1, [r1, #8]
    896c:	e0924000 	adds	r4, r2, r0
    8970:	e2a15000 	adc	r5, r1, #0
    8974:	e1a00004 	mov	r0, r4
    8978:	e1a01005 	mov	r1, r5
    897c:	e8bd0030 	pop	{r4, r5}
    8980:	e12fff1e 	bx	lr

00008984 <waitcnt32>:
    8984:	e3a02a03 	mov	r2, #12288	; 0x3000
    8988:	e3432f00 	movt	r2, #16128	; 0x3f00
    898c:	e5923004 	ldr	r3, [r2, #4]
    8990:	e1530000 	cmp	r3, r0
    8994:	3afffffc 	bcc	898c <waitcnt32+0x8>
    8998:	e12fff1e 	bx	lr

0000899c <_get_gpio_reg>:
    899c:	e3063b84 	movw	r3, #27524	; 0x6b84
    89a0:	e3403001 	movt	r3, #1
    89a4:	e5930000 	ldr	r0, [r3]
    89a8:	e12fff1e 	bx	lr

000089ac <_set_gpio_pull>:
    89ac:	e92d4070 	push	{r4, r5, r6, lr}
    89b0:	e3064b84 	movw	r4, #27524	; 0x6b84
    89b4:	e3404001 	movt	r4, #1
    89b8:	e3500000 	cmp	r0, #0
    89bc:	03a05098 	moveq	r5, #152	; 0x98
    89c0:	13a0509c 	movne	r5, #156	; 0x9c
    89c4:	e5943000 	ldr	r3, [r4]
    89c8:	e1a06001 	mov	r6, r1
    89cc:	e5832094 	str	r2, [r3, #148]	; 0x94
    89d0:	ebffffdb 	bl	8944 <CNT32>
    89d4:	e2800096 	add	r0, r0, #150	; 0x96
    89d8:	ebffffe9 	bl	8984 <waitcnt32>
    89dc:	e5940000 	ldr	r0, [r4]
    89e0:	e3a03001 	mov	r3, #1
    89e4:	e7902005 	ldr	r2, [r0, r5]
    89e8:	e1a06613 	lsl	r6, r3, r6
    89ec:	e1863002 	orr	r3, r6, r2
    89f0:	e7803005 	str	r3, [r0, r5]
    89f4:	ebffffd2 	bl	8944 <CNT32>
    89f8:	e2800096 	add	r0, r0, #150	; 0x96
    89fc:	ebffffe0 	bl	8984 <waitcnt32>
    8a00:	e5943000 	ldr	r3, [r4]
    8a04:	e3a02000 	mov	r2, #0
    8a08:	e5832094 	str	r2, [r3, #148]	; 0x94
    8a0c:	e7931005 	ldr	r1, [r3, r5]
    8a10:	e1c16006 	bic	r6, r1, r6
    8a14:	e7836005 	str	r6, [r3, r5]
    8a18:	e8bd8070 	pop	{r4, r5, r6, pc}

00008a1c <_get_arm_timer>:
    8a1c:	e3a00b2d 	mov	r0, #46080	; 0xb400
    8a20:	e3430f00 	movt	r0, #16128	; 0x3f00
    8a24:	e12fff1e 	bx	lr

00008a28 <_get_irq_controller>:
    8a28:	e3a00cb2 	mov	r0, #45568	; 0xb200
    8a2c:	e3430f00 	movt	r0, #16128	; 0x3f00
    8a30:	e12fff1e 	bx	lr

00008a34 <_get_aux>:
    8a34:	e3a00a05 	mov	r0, #20480	; 0x5000
    8a38:	e3430f21 	movt	r0, #16161	; 0x3f21
    8a3c:	e12fff1e 	bx	lr

00008a40 <_uart_init>:
    8a40:	e3a03a05 	mov	r3, #20480	; 0x5000
    8a44:	e3510008 	cmp	r1, #8
    8a48:	e3433f21 	movt	r3, #16161	; 0x3f21
    8a4c:	e3a01001 	mov	r1, #1
    8a50:	e92d4070 	push	{r4, r5, r6, lr}
    8a54:	e3a04a05 	mov	r4, #20480	; 0x5000
    8a58:	e5831004 	str	r1, [r3, #4]
    8a5c:	e3a0c000 	mov	ip, #0
    8a60:	e583c044 	str	ip, [r3, #68]	; 0x44
    8a64:	e3434f21 	movt	r4, #16161	; 0x3f21
    8a68:	e583c060 	str	ip, [r3, #96]	; 0x60
    8a6c:	e1a01000 	mov	r1, r0
    8a70:	1583c04c 	strne	ip, [r3, #76]	; 0x4c
    8a74:	03a00003 	moveq	r0, #3
    8a78:	0583004c 	streq	r0, [r3, #76]	; 0x4c
    8a7c:	e3a05000 	mov	r5, #0
    8a80:	e5845050 	str	r5, [r4, #80]	; 0x50
    8a84:	e3a030c6 	mov	r3, #198	; 0xc6
    8a88:	e5842044 	str	r2, [r4, #68]	; 0x44
    8a8c:	e30b0280 	movw	r0, #45696	; 0xb280
    8a90:	e1a01181 	lsl	r1, r1, #3
    8a94:	e3400ee6 	movt	r0, #3814	; 0xee6
    8a98:	e5843048 	str	r3, [r4, #72]	; 0x48
    8a9c:	eb00067b 	bl	a490 <__aeabi_idiv>
    8aa0:	e2400001 	sub	r0, r0, #1
    8aa4:	e5840068 	str	r0, [r4, #104]	; 0x68
    8aa8:	ebffffbb 	bl	899c <_get_gpio_reg>
    8aac:	e5903004 	ldr	r3, [r0, #4]
    8ab0:	e3c33a07 	bic	r3, r3, #28672	; 0x7000
    8ab4:	e5803004 	str	r3, [r0, #4]
    8ab8:	ebffffb7 	bl	899c <_get_gpio_reg>
    8abc:	e5903004 	ldr	r3, [r0, #4]
    8ac0:	e3c3390e 	bic	r3, r3, #229376	; 0x38000
    8ac4:	e5803004 	str	r3, [r0, #4]
    8ac8:	ebffffb3 	bl	899c <_get_gpio_reg>
    8acc:	e5903004 	ldr	r3, [r0, #4]
    8ad0:	e3833a02 	orr	r3, r3, #8192	; 0x2000
    8ad4:	e5803004 	str	r3, [r0, #4]
    8ad8:	ebffffaf 	bl	899c <_get_gpio_reg>
    8adc:	e1a0c000 	mov	ip, r0
    8ae0:	e1a02005 	mov	r2, r5
    8ae4:	e1a00005 	mov	r0, r5
    8ae8:	e3a0100e 	mov	r1, #14
    8aec:	e59c3004 	ldr	r3, [ip, #4]
    8af0:	e3833801 	orr	r3, r3, #65536	; 0x10000
    8af4:	e58c3004 	str	r3, [ip, #4]
    8af8:	ebffffab 	bl	89ac <_set_gpio_pull>
    8afc:	e1a02005 	mov	r2, r5
    8b00:	e1a00005 	mov	r0, r5
    8b04:	e3a0100f 	mov	r1, #15
    8b08:	ebffffa7 	bl	89ac <_set_gpio_pull>
    8b0c:	e3a03003 	mov	r3, #3
    8b10:	e5843060 	str	r3, [r4, #96]	; 0x60
    8b14:	e8bd8070 	pop	{r4, r5, r6, pc}

00008b18 <_uart_tx>:
    8b18:	e3a01a05 	mov	r1, #20480	; 0x5000
    8b1c:	e3431f21 	movt	r1, #16161	; 0x3f21
    8b20:	e5912054 	ldr	r2, [r1, #84]	; 0x54
    8b24:	e3a03a05 	mov	r3, #20480	; 0x5000
    8b28:	e3433f21 	movt	r3, #16161	; 0x3f21
    8b2c:	e3120020 	tst	r2, #32
    8b30:	0afffffa 	beq	8b20 <_uart_tx+0x8>
    8b34:	e5830040 	str	r0, [r3, #64]	; 0x40
    8b38:	e12fff1e 	bx	lr

00008b3c <_uart_check>:
    8b3c:	e3a03a05 	mov	r3, #20480	; 0x5000
    8b40:	e3433f21 	movt	r3, #16161	; 0x3f21
    8b44:	e5930054 	ldr	r0, [r3, #84]	; 0x54
    8b48:	e2000001 	and	r0, r0, #1
    8b4c:	e12fff1e 	bx	lr

00008b50 <_uart_rx>:
    8b50:	e3a03a05 	mov	r3, #20480	; 0x5000
    8b54:	e3433f21 	movt	r3, #16161	; 0x3f21
    8b58:	e5930054 	ldr	r0, [r3, #84]	; 0x54
    8b5c:	e2100001 	ands	r0, r0, #1
    8b60:	15930040 	ldrne	r0, [r3, #64]	; 0x40
    8b64:	16ef0070 	uxtbne	r0, r0
    8b68:	e12fff1e 	bx	lr

00008b6c <RPI_Mailbox0Write>:
    8b6c:	e3c1100f 	bic	r1, r1, #15
    8b70:	e3a0cb2e 	mov	ip, #47104	; 0xb800
    8b74:	e1800001 	orr	r0, r0, r1
    8b78:	e343cf00 	movt	ip, #16128	; 0x3f00
    8b7c:	e59c2098 	ldr	r2, [ip, #152]	; 0x98
    8b80:	e3a03b2e 	mov	r3, #47104	; 0xb800
    8b84:	e3433f00 	movt	r3, #16128	; 0x3f00
    8b88:	e3520000 	cmp	r2, #0
    8b8c:	bafffffa 	blt	8b7c <RPI_Mailbox0Write+0x10>
    8b90:	e58300a0 	str	r0, [r3, #160]	; 0xa0
    8b94:	e12fff1e 	bx	lr

00008b98 <RPI_Mailbox0Read>:
    8b98:	e350000f 	cmp	r0, #15
    8b9c:	0a00000b 	beq	8bd0 <RPI_Mailbox0Read+0x38>
    8ba0:	e3a02b2e 	mov	r2, #47104	; 0xb800
    8ba4:	e3432f00 	movt	r2, #16128	; 0x3f00
    8ba8:	e1a0c002 	mov	ip, r2
    8bac:	e5923098 	ldr	r3, [r2, #152]	; 0x98
    8bb0:	e3130101 	tst	r3, #1073741824	; 0x40000000
    8bb4:	1afffffc 	bne	8bac <RPI_Mailbox0Read+0x14>
    8bb8:	e59c3080 	ldr	r3, [ip, #128]	; 0x80
    8bbc:	e203100f 	and	r1, r3, #15
    8bc0:	e1510000 	cmp	r1, r0
    8bc4:	1afffff8 	bne	8bac <RPI_Mailbox0Read+0x14>
    8bc8:	e1a00243 	asr	r0, r3, #4
    8bcc:	e12fff1e 	bx	lr
    8bd0:	e3e00000 	mvn	r0, #0
    8bd4:	e12fff1e 	bx	lr

00008bd8 <RPI_PropertyInit>:
    8bd8:	e30735a0 	movw	r3, #30112	; 0x75a0
    8bdc:	e30f26a8 	movw	r2, #63144	; 0xf6a8
    8be0:	e3403001 	movt	r3, #1
    8be4:	e3a0000c 	mov	r0, #12
    8be8:	e3402001 	movt	r2, #1
    8bec:	e3a01000 	mov	r1, #0
    8bf0:	e5830000 	str	r0, [r3]
    8bf4:	e3a00002 	mov	r0, #2
    8bf8:	e5831004 	str	r1, [r3, #4]
    8bfc:	e5831008 	str	r1, [r3, #8]
    8c00:	e5820000 	str	r0, [r2]
    8c04:	e12fff1e 	bx	lr

00008c08 <RPI_PropertyAddTag>:
    8c08:	e92d000f 	push	{r0, r1, r2, r3}
    8c0c:	e30f06a8 	movw	r0, #63144	; 0xf6a8
    8c10:	e92d4070 	push	{r4, r5, r6, lr}
    8c14:	e24dd008 	sub	sp, sp, #8
    8c18:	e3400001 	movt	r0, #1
    8c1c:	e3a0c008 	mov	ip, #8
    8c20:	e59d2018 	ldr	r2, [sp, #24]
    8c24:	e340c004 	movt	ip, #4
    8c28:	e5903000 	ldr	r3, [r0]
    8c2c:	e30715a0 	movw	r1, #30112	; 0x75a0
    8c30:	e152000c 	cmp	r2, ip
    8c34:	e3401001 	movt	r1, #1
    8c38:	e283c001 	add	ip, r3, #1
    8c3c:	e28de01c 	add	lr, sp, #28
    8c40:	e580c000 	str	ip, [r0]
    8c44:	e7812103 	str	r2, [r1, r3, lsl #2]
    8c48:	e58de004 	str	lr, [sp, #4]
    8c4c:	8a00002b 	bhi	8d00 <RPI_PropertyAddTag+0xf8>
    8c50:	e3a04005 	mov	r4, #5
    8c54:	e3404004 	movt	r4, #4
    8c58:	e1520004 	cmp	r2, r4
    8c5c:	2a00007c 	bcs	8e54 <RPI_PropertyAddTag+0x24c>
    8c60:	e3a04004 	mov	r4, #4
    8c64:	e3404003 	movt	r4, #3
    8c68:	e1520004 	cmp	r2, r4
    8c6c:	0a0000a0 	beq	8ef4 <RPI_PropertyAddTag+0x2ec>
    8c70:	9a000057 	bls	8dd4 <RPI_PropertyAddTag+0x1cc>
    8c74:	e3a04001 	mov	r4, #1
    8c78:	e3404004 	movt	r4, #4
    8c7c:	e1520004 	cmp	r2, r4
    8c80:	0a00009b 	beq	8ef4 <RPI_PropertyAddTag+0x2ec>
    8c84:	8a0000a8 	bhi	8f2c <RPI_PropertyAddTag+0x324>
    8c88:	e3a04007 	mov	r4, #7
    8c8c:	e3404003 	movt	r4, #3
    8c90:	e1520004 	cmp	r2, r4
    8c94:	0a000096 	beq	8ef4 <RPI_PropertyAddTag+0x2ec>
    8c98:	e3084002 	movw	r4, #32770	; 0x8002
    8c9c:	e3404003 	movt	r4, #3
    8ca0:	e1520004 	cmp	r2, r4
    8ca4:	1a00008c 	bne	8edc <RPI_PropertyAddTag+0x2d4>
    8ca8:	e59e5000 	ldr	r5, [lr]
    8cac:	e2832002 	add	r2, r3, #2
    8cb0:	e59e4004 	ldr	r4, [lr, #4]
    8cb4:	e3a0600c 	mov	r6, #12
    8cb8:	e59ee008 	ldr	lr, [lr, #8]
    8cbc:	e781610c 	str	r6, [r1, ip, lsl #2]
    8cc0:	e3a0c000 	mov	ip, #0
    8cc4:	e781c102 	str	ip, [r1, r2, lsl #2]
    8cc8:	e2832003 	add	r2, r3, #3
    8ccc:	e283c004 	add	ip, r3, #4
    8cd0:	e7815102 	str	r5, [r1, r2, lsl #2]
    8cd4:	e2832005 	add	r2, r3, #5
    8cd8:	e781410c 	str	r4, [r1, ip, lsl #2]
    8cdc:	e2833006 	add	r3, r3, #6
    8ce0:	e5803000 	str	r3, [r0]
    8ce4:	e781e102 	str	lr, [r1, r2, lsl #2]
    8ce8:	e3a02000 	mov	r2, #0
    8cec:	e7812103 	str	r2, [r1, r3, lsl #2]
    8cf0:	e28dd008 	add	sp, sp, #8
    8cf4:	e8bd4070 	pop	{r4, r5, r6, lr}
    8cf8:	e28dd010 	add	sp, sp, #16
    8cfc:	e12fff1e 	bx	lr
    8d00:	e308e004 	movw	lr, #32772	; 0x8004
    8d04:	e340e004 	movt	lr, #4
    8d08:	e152000e 	cmp	r2, lr
    8d0c:	9a000065 	bls	8ea8 <RPI_PropertyAddTag+0x2a0>
    8d10:	e308e009 	movw	lr, #32777	; 0x8009
    8d14:	e340e004 	movt	lr, #4
    8d18:	e152000e 	cmp	r2, lr
    8d1c:	0a000086 	beq	8f3c <RPI_PropertyAddTag+0x334>
    8d20:	9a000047 	bls	8e44 <RPI_PropertyAddTag+0x23c>
    8d24:	e3a0e001 	mov	lr, #1
    8d28:	e340e005 	movt	lr, #5
    8d2c:	e152000e 	cmp	r2, lr
    8d30:	0a00002f 	beq	8df4 <RPI_PropertyAddTag+0x1ec>
    8d34:	e3a0e001 	mov	lr, #1
    8d38:	e340e006 	movt	lr, #6
    8d3c:	e152000e 	cmp	r2, lr
    8d40:	0a000037 	beq	8e24 <RPI_PropertyAddTag+0x21c>
    8d44:	e308e00a 	movw	lr, #32778	; 0x800a
    8d48:	e340e004 	movt	lr, #4
    8d4c:	e152000e 	cmp	r2, lr
    8d50:	1a000061 	bne	8edc <RPI_PropertyAddTag+0x2d4>
    8d54:	e3a05010 	mov	r5, #16
    8d58:	e308400a 	movw	r4, #32778	; 0x800a
    8d5c:	e781510c 	str	r5, [r1, ip, lsl #2]
    8d60:	e283c003 	add	ip, r3, #3
    8d64:	e580c000 	str	ip, [r0]
    8d68:	e3404004 	movt	r4, #4
    8d6c:	e1520004 	cmp	r2, r4
    8d70:	e30f06a8 	movw	r0, #63144	; 0xf6a8
    8d74:	e283e002 	add	lr, r3, #2
    8d78:	e3400001 	movt	r0, #1
    8d7c:	e3a04000 	mov	r4, #0
    8d80:	e30725a0 	movw	r2, #30112	; 0x75a0
    8d84:	e781410e 	str	r4, [r1, lr, lsl #2]
    8d88:	12833007 	addne	r3, r3, #7
    8d8c:	15803000 	strne	r3, [r0]
    8d90:	e3402001 	movt	r2, #1
    8d94:	1affffd3 	bne	8ce8 <RPI_PropertyAddTag+0xe0>
    8d98:	e59de004 	ldr	lr, [sp, #4]
    8d9c:	e2835004 	add	r5, r3, #4
    8da0:	e2834005 	add	r4, r3, #5
    8da4:	e59e6000 	ldr	r6, [lr]
    8da8:	e782610c 	str	r6, [r2, ip, lsl #2]
    8dac:	e283c006 	add	ip, r3, #6
    8db0:	e59e6004 	ldr	r6, [lr, #4]
    8db4:	e2833007 	add	r3, r3, #7
    8db8:	e5803000 	str	r3, [r0]
    8dbc:	e7826105 	str	r6, [r2, r5, lsl #2]
    8dc0:	e59e5008 	ldr	r5, [lr, #8]
    8dc4:	e7825104 	str	r5, [r2, r4, lsl #2]
    8dc8:	e59e000c 	ldr	r0, [lr, #12]
    8dcc:	e782010c 	str	r0, [r2, ip, lsl #2]
    8dd0:	eaffffc4 	b	8ce8 <RPI_PropertyAddTag+0xe0>
    8dd4:	e3a0e006 	mov	lr, #6
    8dd8:	e340e001 	movt	lr, #1
    8ddc:	e152000e 	cmp	r2, lr
    8de0:	9a00000b 	bls	8e14 <RPI_PropertyAddTag+0x20c>
    8de4:	e3a0e007 	mov	lr, #7
    8de8:	e340e001 	movt	lr, #1
    8dec:	e152000e 	cmp	r2, lr
    8df0:	1a00003b 	bne	8ee4 <RPI_PropertyAddTag+0x2dc>
    8df4:	e2832002 	add	r2, r3, #2
    8df8:	e2833043 	add	r3, r3, #67	; 0x43
    8dfc:	e5803000 	str	r3, [r0]
    8e00:	e3a0ec01 	mov	lr, #256	; 0x100
    8e04:	e781e10c 	str	lr, [r1, ip, lsl #2]
    8e08:	e3a00000 	mov	r0, #0
    8e0c:	e7810102 	str	r0, [r1, r2, lsl #2]
    8e10:	eaffffb4 	b	8ce8 <RPI_PropertyAddTag+0xe0>
    8e14:	e3520801 	cmp	r2, #65536	; 0x10000
    8e18:	8a000001 	bhi	8e24 <RPI_PropertyAddTag+0x21c>
    8e1c:	e3520001 	cmp	r2, #1
    8e20:	1a00002d 	bne	8edc <RPI_PropertyAddTag+0x2d4>
    8e24:	e2832002 	add	r2, r3, #2
    8e28:	e2833005 	add	r3, r3, #5
    8e2c:	e5803000 	str	r3, [r0]
    8e30:	e3a0e008 	mov	lr, #8
    8e34:	e781e10c 	str	lr, [r1, ip, lsl #2]
    8e38:	e3a00000 	mov	r0, #0
    8e3c:	e7810102 	str	r0, [r1, r2, lsl #2]
    8e40:	eaffffa8 	b	8ce8 <RPI_PropertyAddTag+0xe0>
    8e44:	e308e007 	movw	lr, #32775	; 0x8007
    8e48:	e340e004 	movt	lr, #4
    8e4c:	e152000e 	cmp	r2, lr
    8e50:	8a000021 	bhi	8edc <RPI_PropertyAddTag+0x2d4>
    8e54:	e2420912 	sub	r0, r2, #294912	; 0x48000
    8e58:	e3a0e004 	mov	lr, #4
    8e5c:	e781e10c 	str	lr, [r1, ip, lsl #2]
    8e60:	e2832002 	add	r2, r3, #2
    8e64:	e2400005 	sub	r0, r0, #5
    8e68:	e3a0c000 	mov	ip, #0
    8e6c:	e781c102 	str	ip, [r1, r2, lsl #2]
    8e70:	e3500002 	cmp	r0, #2
    8e74:	e30f26a8 	movw	r2, #63144	; 0xf6a8
    8e78:	e283c003 	add	ip, r3, #3
    8e7c:	959de004 	ldrls	lr, [sp, #4]
    8e80:	e3402001 	movt	r2, #1
    8e84:	e30705a0 	movw	r0, #30112	; 0x75a0
    8e88:	92833004 	addls	r3, r3, #4
    8e8c:	95823000 	strls	r3, [r2]
    8e90:	e3400001 	movt	r0, #1
    8e94:	959e2000 	ldrls	r2, [lr]
    8e98:	82833004 	addhi	r3, r3, #4
    8e9c:	85823000 	strhi	r3, [r2]
    8ea0:	9780210c 	strls	r2, [r0, ip, lsl #2]
    8ea4:	eaffff8f 	b	8ce8 <RPI_PropertyAddTag+0xe0>
    8ea8:	e308e003 	movw	lr, #32771	; 0x8003
    8eac:	e340e004 	movt	lr, #4
    8eb0:	e152000e 	cmp	r2, lr
    8eb4:	2a000020 	bcs	8f3c <RPI_PropertyAddTag+0x334>
    8eb8:	e3a0e00a 	mov	lr, #10
    8ebc:	e340e004 	movt	lr, #4
    8ec0:	e152000e 	cmp	r2, lr
    8ec4:	0affffa2 	beq	8d54 <RPI_PropertyAddTag+0x14c>
    8ec8:	3a00001b 	bcc	8f3c <RPI_PropertyAddTag+0x334>
    8ecc:	e242e911 	sub	lr, r2, #278528	; 0x44000
    8ed0:	e24ee003 	sub	lr, lr, #3
    8ed4:	e35e0001 	cmp	lr, #1
    8ed8:	9a000017 	bls	8f3c <RPI_PropertyAddTag+0x334>
    8edc:	e5803000 	str	r3, [r0]
    8ee0:	eaffff80 	b	8ce8 <RPI_PropertyAddTag+0xe0>
    8ee4:	e3a0e002 	mov	lr, #2
    8ee8:	e340e003 	movt	lr, #3
    8eec:	e152000e 	cmp	r2, lr
    8ef0:	1afffff9 	bne	8edc <RPI_PropertyAddTag+0x2d4>
    8ef4:	e59d4004 	ldr	r4, [sp, #4]
    8ef8:	e2835002 	add	r5, r3, #2
    8efc:	e3a0e008 	mov	lr, #8
    8f00:	e3a02000 	mov	r2, #0
    8f04:	e781e10c 	str	lr, [r1, ip, lsl #2]
    8f08:	e283e003 	add	lr, r3, #3
    8f0c:	e7812105 	str	r2, [r1, r5, lsl #2]
    8f10:	e283c004 	add	ip, r3, #4
    8f14:	e5944000 	ldr	r4, [r4]
    8f18:	e2833005 	add	r3, r3, #5
    8f1c:	e5803000 	str	r3, [r0]
    8f20:	e781410e 	str	r4, [r1, lr, lsl #2]
    8f24:	e781210c 	str	r2, [r1, ip, lsl #2]
    8f28:	eaffff6e 	b	8ce8 <RPI_PropertyAddTag+0xe0>
    8f2c:	e3a0e003 	mov	lr, #3
    8f30:	e340e004 	movt	lr, #4
    8f34:	e152000e 	cmp	r2, lr
    8f38:	3affffe7 	bcc	8edc <RPI_PropertyAddTag+0x2d4>
    8f3c:	e3084009 	movw	r4, #32777	; 0x8009
    8f40:	e283e002 	add	lr, r3, #2
    8f44:	e3404004 	movt	r4, #4
    8f48:	e3a06008 	mov	r6, #8
    8f4c:	e1520004 	cmp	r2, r4
    8f50:	e3a05000 	mov	r5, #0
    8f54:	e781610c 	str	r6, [r1, ip, lsl #2]
    8f58:	e2834003 	add	r4, r3, #3
    8f5c:	e781510e 	str	r5, [r1, lr, lsl #2]
    8f60:	e30fc6a8 	movw	ip, #63144	; 0xf6a8
    8f64:	e5804000 	str	r4, [r0]
    8f68:	e340c001 	movt	ip, #1
    8f6c:	0a000006 	beq	8f8c <RPI_PropertyAddTag+0x384>
    8f70:	e2422911 	sub	r2, r2, #278528	; 0x44000
    8f74:	e2422003 	sub	r2, r2, #3
    8f78:	e3c22901 	bic	r2, r2, #16384	; 0x4000
    8f7c:	e3520001 	cmp	r2, #1
    8f80:	82833005 	addhi	r3, r3, #5
    8f84:	858c3000 	strhi	r3, [ip]
    8f88:	8affff56 	bhi	8ce8 <RPI_PropertyAddTag+0xe0>
    8f8c:	e59d2004 	ldr	r2, [sp, #4]
    8f90:	e283c004 	add	ip, r3, #4
    8f94:	e2833005 	add	r3, r3, #5
    8f98:	e592e000 	ldr	lr, [r2]
    8f9c:	e5803000 	str	r3, [r0]
    8fa0:	e781e104 	str	lr, [r1, r4, lsl #2]
    8fa4:	e5922004 	ldr	r2, [r2, #4]
    8fa8:	e781210c 	str	r2, [r1, ip, lsl #2]
    8fac:	eaffff4d 	b	8ce8 <RPI_PropertyAddTag+0xe0>

00008fb0 <RPI_PropertyProcess>:
    8fb0:	e30f26a8 	movw	r2, #63144	; 0xf6a8
    8fb4:	e30735a0 	movw	r3, #30112	; 0x75a0
    8fb8:	e3402001 	movt	r2, #1
    8fbc:	e3403001 	movt	r3, #1
    8fc0:	e3a01000 	mov	r1, #0
    8fc4:	e3a00008 	mov	r0, #8
    8fc8:	e5922000 	ldr	r2, [r2]
    8fcc:	e92d4010 	push	{r4, lr}
    8fd0:	e2822001 	add	r2, r2, #1
    8fd4:	e5831004 	str	r1, [r3, #4]
    8fd8:	e1a01003 	mov	r1, r3
    8fdc:	e1a02102 	lsl	r2, r2, #2
    8fe0:	e5832000 	str	r2, [r3]
    8fe4:	ebfffee0 	bl	8b6c <RPI_Mailbox0Write>
    8fe8:	e3a00008 	mov	r0, #8
    8fec:	e8bd4010 	pop	{r4, lr}
    8ff0:	eafffee8 	b	8b98 <RPI_Mailbox0Read>

00008ff4 <RPI_PropertyGet>:
    8ff4:	e30715a0 	movw	r1, #30112	; 0x75a0
    8ff8:	e3401001 	movt	r1, #1
    8ffc:	e92d4010 	push	{r4, lr}
    9000:	e30f45a0 	movw	r4, #62880	; 0xf5a0
    9004:	e591c000 	ldr	ip, [r1]
    9008:	e3404001 	movt	r4, #1
    900c:	e1a0c14c 	asr	ip, ip, #2
    9010:	e5840000 	str	r0, [r4]
    9014:	e35c0002 	cmp	ip, #2
    9018:	da00000e 	ble	9058 <RPI_PropertyGet+0x64>
    901c:	e5913008 	ldr	r3, [r1, #8]
    9020:	e1500003 	cmp	r0, r3
    9024:	e3a03002 	mov	r3, #2
    9028:	0a00000c 	beq	9060 <RPI_PropertyGet+0x6c>
    902c:	e1a0e001 	mov	lr, r1
    9030:	ea000002 	b	9040 <RPI_PropertyGet+0x4c>
    9034:	e79e2103 	ldr	r2, [lr, r3, lsl #2]
    9038:	e1500002 	cmp	r0, r2
    903c:	0a000007 	beq	9060 <RPI_PropertyGet+0x6c>
    9040:	e2832001 	add	r2, r3, #1
    9044:	e7912102 	ldr	r2, [r1, r2, lsl #2]
    9048:	e0833142 	add	r3, r3, r2, asr #2
    904c:	e2833003 	add	r3, r3, #3
    9050:	e153000c 	cmp	r3, ip
    9054:	bafffff6 	blt	9034 <RPI_PropertyGet+0x40>
    9058:	e3a00000 	mov	r0, #0
    905c:	e8bd8010 	pop	{r4, pc}
    9060:	e0813103 	add	r3, r1, r3, lsl #2
    9064:	e30f05a8 	movw	r0, #62888	; 0xf5a8
    9068:	e283100c 	add	r1, r3, #12
    906c:	e3400001 	movt	r0, #1
    9070:	e1d320b8 	ldrh	r2, [r3, #8]
    9074:	e5842004 	str	r2, [r4, #4]
    9078:	eb000cd0 	bl	c3c0 <memcpy>
    907c:	e30f05a0 	movw	r0, #62880	; 0xf5a0
    9080:	e3400001 	movt	r0, #1
    9084:	e8bd8010 	pop	{r4, pc}

00009088 <get_core_number>:
    9088:	ee100fb0 	mrc	15, 0, r0, cr0, cr0, {5}
    908c:	e2000003 	and	r0, r0, #3
    9090:	e12fff1e 	bx	lr

00009094 <start_core>:
    9094:	e1a03001 	mov	r3, r1
    9098:	e1a01000 	mov	r1, r0
    909c:	e1a00003 	mov	r0, r3
    90a0:	eafffc06 	b	80c0 <PUT32>

000090a4 <initialise_monitor_handles>:
    90a4:	e12fff1e 	bx	lr

000090a8 <_read>:
    90a8:	e1a00002 	mov	r0, r2
    90ac:	e12fff1e 	bx	lr

000090b0 <_lseek>:
    90b0:	e3a00000 	mov	r0, #0
    90b4:	e12fff1e 	bx	lr

000090b8 <_write>:
    90b8:	e92d4070 	push	{r4, r5, r6, lr}
    90bc:	e2526000 	subs	r6, r2, #0
    90c0:	da000005 	ble	90dc <_write+0x24>
    90c4:	e0815006 	add	r5, r1, r6
    90c8:	e1a04001 	mov	r4, r1
    90cc:	e4d40001 	ldrb	r0, [r4], #1
    90d0:	ebfffe90 	bl	8b18 <_uart_tx>
    90d4:	e1540005 	cmp	r4, r5
    90d8:	1afffffb 	bne	90cc <_write+0x14>
    90dc:	e1a00006 	mov	r0, r6
    90e0:	e8bd8070 	pop	{r4, r5, r6, pc}

000090e4 <_open>:
    90e4:	e92d000e 	push	{r1, r2, r3}
    90e8:	e3a00000 	mov	r0, #0
    90ec:	e28dd00c 	add	sp, sp, #12
    90f0:	e12fff1e 	bx	lr

000090f4 <_close>:
    90f4:	e3a00000 	mov	r0, #0
    90f8:	e12fff1e 	bx	lr

000090fc <_exit>:
    90fc:	eafffffe 	b	90fc <_exit>

00009100 <_kill>:
    9100:	e3a00000 	mov	r0, #0
    9104:	e12fff1e 	bx	lr

00009108 <_getpid>:
    9108:	e3a00001 	mov	r0, #1
    910c:	e12fff1e 	bx	lr

00009110 <_sbrk>:
    9110:	e3063b88 	movw	r3, #27528	; 0x6b88
    9114:	e30f2830 	movw	r2, #63536	; 0xf830
    9118:	e3403001 	movt	r3, #1
    911c:	e3402001 	movt	r2, #1
    9120:	e5931000 	ldr	r1, [r3]
    9124:	e080c001 	add	ip, r0, r1
    9128:	e1a00001 	mov	r0, r1
    912c:	e583c000 	str	ip, [r3]
    9130:	e5821000 	str	r1, [r2]
    9134:	e12fff1e 	bx	lr

00009138 <_fstat>:
    9138:	e3a00000 	mov	r0, #0
    913c:	e12fff1e 	bx	lr

00009140 <_stat>:
    9140:	e3a00000 	mov	r0, #0
    9144:	e12fff1e 	bx	lr

00009148 <_link>:
    9148:	e3e00000 	mvn	r0, #0
    914c:	e12fff1e 	bx	lr

00009150 <_unlink>:
    9150:	e3e00000 	mvn	r0, #0
    9154:	e12fff1e 	bx	lr

00009158 <_raise>:
    9158:	e12fff1e 	bx	lr

0000915c <_gettimeofday>:
    915c:	e3500000 	cmp	r0, #0
    9160:	13a03000 	movne	r3, #0
    9164:	13a0200a 	movne	r2, #10
    9168:	1880000c 	stmne	r0, {r2, r3}
    916c:	e3510000 	cmp	r1, #0
    9170:	e3a00000 	mov	r0, #0
    9174:	13a03000 	movne	r3, #0
    9178:	15813000 	strne	r3, [r1]
    917c:	15813004 	strne	r3, [r1, #4]
    9180:	e12fff1e 	bx	lr

00009184 <_times>:
    9184:	e3500000 	cmp	r0, #0
    9188:	13a03000 	movne	r3, #0
    918c:	13a0200a 	movne	r2, #10
    9190:	1880000c 	stmne	r0, {r2, r3}
    9194:	15803008 	strne	r3, [r0, #8]
    9198:	1580300c 	strne	r3, [r0, #12]
    919c:	e3a0000a 	mov	r0, #10
    91a0:	e12fff1e 	bx	lr

000091a4 <_isatty>:
    91a4:	e3a00001 	mov	r0, #1
    91a8:	e12fff1e 	bx	lr

000091ac <_system>:
    91ac:	e3500000 	cmp	r0, #0
    91b0:	1a000000 	bne	91b8 <_system+0xc>
    91b4:	e12fff1e 	bx	lr
    91b8:	e92d4010 	push	{r4, lr}
    91bc:	eb000506 	bl	a5dc <__errno>
    91c0:	e3a02058 	mov	r2, #88	; 0x58
    91c4:	e3e03000 	mvn	r3, #0
    91c8:	e5802000 	str	r2, [r0]
    91cc:	e1a00003 	mov	r0, r3
    91d0:	e8bd8010 	pop	{r4, pc}

000091d4 <_rename>:
    91d4:	e92d4010 	push	{r4, lr}
    91d8:	eb0004ff 	bl	a5dc <__errno>
    91dc:	e3a03058 	mov	r3, #88	; 0x58
    91e0:	e5803000 	str	r3, [r0]
    91e4:	e3e00000 	mvn	r0, #0
    91e8:	e8bd8010 	pop	{r4, pc}

000091ec <set_dir.part.0>:
    91ec:	e5d0c055 	ldrb	ip, [r0, #85]	; 0x55
    91f0:	e3062b84 	movw	r2, #27524	; 0x6b84
    91f4:	e5d01058 	ldrb	r1, [r0, #88]	; 0x58
    91f8:	e3402001 	movt	r2, #1
    91fc:	e3a03001 	mov	r3, #1
    9200:	e5922000 	ldr	r2, [r2]
    9204:	e1a03c13 	lsl	r3, r3, ip
    9208:	e7823101 	str	r3, [r2, r1, lsl #2]
    920c:	e12fff1e 	bx	lr

00009210 <setup_pins>:
    9210:	e92d4ff0 	push	{r4, r5, r6, r7, r8, r9, sl, fp, lr}
    9214:	e3068b84 	movw	r8, #27524	; 0x6b84
    9218:	e3408001 	movt	r8, #1
    921c:	e30f577c 	movw	r5, #63356	; 0xf77c
    9220:	e3405001 	movt	r5, #1
    9224:	e3a09001 	mov	r9, #1
    9228:	e5981000 	ldr	r1, [r8]
    922c:	e3a0a00a 	mov	sl, #10
    9230:	e3a04013 	mov	r4, #19
    9234:	e3a0e01b 	mov	lr, #27
    9238:	e5913004 	ldr	r3, [r1, #4]
    923c:	e3a07002 	mov	r7, #2
    9240:	e3a00012 	mov	r0, #18
    9244:	e3a0c01a 	mov	ip, #26
    9248:	e3c33c0e 	bic	r3, r3, #3584	; 0xe00
    924c:	e24dd00c 	sub	sp, sp, #12
    9250:	e5813004 	str	r3, [r1, #4]
    9254:	e3a03007 	mov	r3, #7
    9258:	e5912004 	ldr	r2, [r1, #4]
    925c:	e3a06000 	mov	r6, #0
    9260:	e58d3004 	str	r3, [sp, #4]
    9264:	e3a0b006 	mov	fp, #6
    9268:	e3822c02 	orr	r2, r2, #512	; 0x200
    926c:	e5812004 	str	r2, [r1, #4]
    9270:	e5912028 	ldr	r2, [r1, #40]	; 0x28
    9274:	e3822a02 	orr	r2, r2, #8192	; 0x2000
    9278:	e5812028 	str	r2, [r1, #40]	; 0x28
    927c:	e5c5e052 	strb	lr, [r5, #82]	; 0x52
    9280:	e5c59051 	strb	r9, [r5, #81]	; 0x51
    9284:	e5c54050 	strb	r4, [r5, #80]	; 0x50
    9288:	e5c53053 	strb	r3, [r5, #83]	; 0x53
    928c:	e5c5a054 	strb	sl, [r5, #84]	; 0x54
    9290:	e5912004 	ldr	r2, [r1, #4]
    9294:	e3c2230e 	bic	r2, r2, #939524096	; 0x38000000
    9298:	e5812004 	str	r2, [r1, #4]
    929c:	e5d5e051 	ldrb	lr, [r5, #81]	; 0x51
    92a0:	e5d54052 	ldrb	r4, [r5, #82]	; 0x52
    92a4:	e791210e 	ldr	r2, [r1, lr, lsl #2]
    92a8:	e1822419 	orr	r2, r2, r9, lsl r4
    92ac:	e30f4718 	movw	r4, #63256	; 0xf718
    92b0:	e781210e 	str	r2, [r1, lr, lsl #2]
    92b4:	e3404001 	movt	r4, #1
    92b8:	e5c57056 	strb	r7, [r5, #86]	; 0x56
    92bc:	e5c50057 	strb	r0, [r5, #87]	; 0x57
    92c0:	e5c53058 	strb	r3, [r5, #88]	; 0x58
    92c4:	e3a0300d 	mov	r3, #13
    92c8:	e5c5a059 	strb	sl, [r5, #89]	; 0x59
    92cc:	e5c5c055 	strb	ip, [r5, #85]	; 0x55
    92d0:	e5912008 	ldr	r2, [r1, #8]
    92d4:	e3c22707 	bic	r2, r2, #1835008	; 0x1c0000
    92d8:	e5812008 	str	r2, [r1, #8]
    92dc:	e5d5c056 	ldrb	ip, [r5, #86]	; 0x56
    92e0:	e5d5e057 	ldrb	lr, [r5, #87]	; 0x57
    92e4:	e791210c 	ldr	r2, [r1, ip, lsl #2]
    92e8:	e1822e19 	orr	r2, r2, r9, lsl lr
    92ec:	e781210c 	str	r2, [r1, ip, lsl #2]
    92f0:	e1a02007 	mov	r2, r7
    92f4:	e5c50012 	strb	r0, [r5, #18]
    92f8:	e1a00006 	mov	r0, r6
    92fc:	e5c5b010 	strb	fp, [r5, #16]
    9300:	e5c56011 	strb	r6, [r5, #17]
    9304:	e5c53013 	strb	r3, [r5, #19]
    9308:	e591c000 	ldr	ip, [r1]
    930c:	e3ccc707 	bic	ip, ip, #1835008	; 0x1c0000
    9310:	e581c000 	str	ip, [r1]
    9314:	e5d51010 	ldrb	r1, [r5, #16]
    9318:	ebfffda3 	bl	89ac <_set_gpio_pull>
    931c:	e598c000 	ldr	ip, [r8]
    9320:	e3a0300d 	mov	r3, #13
    9324:	e5c5705a 	strb	r7, [r5, #90]	; 0x5a
    9328:	e1a02007 	mov	r2, r7
    932c:	e5c5605b 	strb	r6, [r5, #91]	; 0x5b
    9330:	e1a00006 	mov	r0, r6
    9334:	e5c5b05c 	strb	fp, [r5, #92]	; 0x5c
    9338:	e3a0b003 	mov	fp, #3
    933c:	e5c5305f 	strb	r3, [r5, #95]	; 0x5f
    9340:	e59c1000 	ldr	r1, [ip]
    9344:	e3c11d07 	bic	r1, r1, #448	; 0x1c0
    9348:	e58c1000 	str	r1, [ip]
    934c:	e5d5105a 	ldrb	r1, [r5, #90]	; 0x5a
    9350:	ebfffd95 	bl	89ac <_set_gpio_pull>
    9354:	e5981000 	ldr	r1, [r8]
    9358:	e3a02014 	mov	r2, #20
    935c:	e59d3004 	ldr	r3, [sp, #4]
    9360:	e3a00015 	mov	r0, #21
    9364:	e5c47051 	strb	r7, [r4, #81]	; 0x51
    9368:	e5c46052 	strb	r6, [r4, #82]	; 0x52
    936c:	e5c43053 	strb	r3, [r4, #83]	; 0x53
    9370:	e5c4a054 	strb	sl, [r4, #84]	; 0x54
    9374:	e5c42050 	strb	r2, [r4, #80]	; 0x50
    9378:	e5912008 	ldr	r2, [r1, #8]
    937c:	e3c22007 	bic	r2, r2, #7
    9380:	e5812008 	str	r2, [r1, #8]
    9384:	e5d4c051 	ldrb	ip, [r4, #81]	; 0x51
    9388:	e5d4e052 	ldrb	lr, [r4, #82]	; 0x52
    938c:	e791210c 	ldr	r2, [r1, ip, lsl #2]
    9390:	e1822e19 	orr	r2, r2, r9, lsl lr
    9394:	e3a0e005 	mov	lr, #5
    9398:	e781210c 	str	r2, [r1, ip, lsl #2]
    939c:	e3a0c00f 	mov	ip, #15
    93a0:	e5c47056 	strb	r7, [r4, #86]	; 0x56
    93a4:	e1a02007 	mov	r2, r7
    93a8:	e5c4b057 	strb	fp, [r4, #87]	; 0x57
    93ac:	e5c43058 	strb	r3, [r4, #88]	; 0x58
    93b0:	e5c4a059 	strb	sl, [r4, #89]	; 0x59
    93b4:	e5c40055 	strb	r0, [r4, #85]	; 0x55
    93b8:	e5913008 	ldr	r3, [r1, #8]
    93bc:	e3c33038 	bic	r3, r3, #56	; 0x38
    93c0:	e5813008 	str	r3, [r1, #8]
    93c4:	e5d43056 	ldrb	r3, [r4, #86]	; 0x56
    93c8:	e5d45057 	ldrb	r5, [r4, #87]	; 0x57
    93cc:	e7910103 	ldr	r0, [r1, r3, lsl #2]
    93d0:	e1809519 	orr	r9, r0, r9, lsl r5
    93d4:	e1a00006 	mov	r0, r6
    93d8:	e7819103 	str	r9, [r1, r3, lsl #2]
    93dc:	e3a0300d 	mov	r3, #13
    93e0:	e5c4e010 	strb	lr, [r4, #16]
    93e4:	e5c4c012 	strb	ip, [r4, #18]
    93e8:	e5c46011 	strb	r6, [r4, #17]
    93ec:	e5c43013 	strb	r3, [r4, #19]
    93f0:	e5913000 	ldr	r3, [r1]
    93f4:	e3c3390e 	bic	r3, r3, #229376	; 0x38000
    93f8:	e5813000 	str	r3, [r1]
    93fc:	e5d41010 	ldrb	r1, [r4, #16]
    9400:	ebfffd69 	bl	89ac <_set_gpio_pull>
    9404:	e5981000 	ldr	r1, [r8]
    9408:	e3a03009 	mov	r3, #9
    940c:	e5c4b05a 	strb	fp, [r4, #90]	; 0x5a
    9410:	e3a0c00d 	mov	ip, #13
    9414:	e5c4605b 	strb	r6, [r4, #91]	; 0x5b
    9418:	e1a02007 	mov	r2, r7
    941c:	e5c4c05f 	strb	ip, [r4, #95]	; 0x5f
    9420:	e1a00006 	mov	r0, r6
    9424:	e5c4305c 	strb	r3, [r4, #92]	; 0x5c
    9428:	e5913000 	ldr	r3, [r1]
    942c:	e3c33c0e 	bic	r3, r3, #3584	; 0xe00
    9430:	e5813000 	str	r3, [r1]
    9434:	e5d4105a 	ldrb	r1, [r4, #90]	; 0x5a
    9438:	e28dd00c 	add	sp, sp, #12
    943c:	e8bd4ff0 	pop	{r4, r5, r6, r7, r8, r9, sl, fp, lr}
    9440:	eafffd59 	b	89ac <_set_gpio_pull>

00009444 <step>:
    9444:	e92d4070 	push	{r4, r5, r6, lr}
    9448:	e3066b84 	movw	r6, #27524	; 0x6b84
    944c:	e5d03050 	ldrb	r3, [r0, #80]	; 0x50
    9450:	e3406001 	movt	r6, #1
    9454:	e5d01053 	ldrb	r1, [r0, #83]	; 0x53
    9458:	e3a04001 	mov	r4, #1
    945c:	e5962000 	ldr	r2, [r6]
    9460:	e1a05000 	mov	r5, r0
    9464:	e1a03314 	lsl	r3, r4, r3
    9468:	e7823101 	str	r3, [r2, r1, lsl #2]
    946c:	ebfffd34 	bl	8944 <CNT32>
    9470:	e0800004 	add	r0, r0, r4
    9474:	ebfffd42 	bl	8984 <waitcnt32>
    9478:	e5d51050 	ldrb	r1, [r5, #80]	; 0x50
    947c:	e5963000 	ldr	r3, [r6]
    9480:	e5d52054 	ldrb	r2, [r5, #84]	; 0x54
    9484:	e1a04114 	lsl	r4, r4, r1
    9488:	e7834102 	str	r4, [r3, r2, lsl #2]
    948c:	e8bd8070 	pop	{r4, r5, r6, pc}

00009490 <sd_IRQ>:
    9490:	e30f3710 	movw	r3, #63248	; 0xf710
    9494:	e3403001 	movt	r3, #1
    9498:	e5933000 	ldr	r3, [r3]
    949c:	e3530000 	cmp	r3, #0
    94a0:	0a000043 	beq	95b4 <sd_IRQ+0x124>
    94a4:	e92d4070 	push	{r4, r5, r6, lr}
    94a8:	e30f477c 	movw	r4, #63356	; 0xf77c
    94ac:	e3404001 	movt	r4, #1
    94b0:	e5943024 	ldr	r3, [r4, #36]	; 0x24
    94b4:	e3530000 	cmp	r3, #0
    94b8:	1a000021 	bne	9544 <sd_IRQ+0xb4>
    94bc:	e3063b84 	movw	r3, #27524	; 0x6b84
    94c0:	e3a02902 	mov	r2, #32768	; 0x8000
    94c4:	e3403001 	movt	r3, #1
    94c8:	e5933000 	ldr	r3, [r3]
    94cc:	e583202c 	str	r2, [r3, #44]	; 0x2c
    94d0:	e30f4718 	movw	r4, #63256	; 0xf718
    94d4:	e3404001 	movt	r4, #1
    94d8:	e5942024 	ldr	r2, [r4, #36]	; 0x24
    94dc:	e3520000 	cmp	r2, #0
    94e0:	0a000039 	beq	95cc <sd_IRQ+0x13c>
    94e4:	e5942034 	ldr	r2, [r4, #52]	; 0x34
    94e8:	e3a01902 	mov	r1, #32768	; 0x8000
    94ec:	e2822001 	add	r2, r2, #1
    94f0:	e5842034 	str	r2, [r4, #52]	; 0x34
    94f4:	e5831020 	str	r1, [r3, #32]
    94f8:	e5942024 	ldr	r2, [r4, #36]	; 0x24
    94fc:	e5941034 	ldr	r1, [r4, #52]	; 0x34
    9500:	e0220fc2 	eor	r0, r2, r2, asr #31
    9504:	e0400fc2 	sub	r0, r0, r2, asr #31
    9508:	e1500001 	cmp	r0, r1
    950c:	88bd8070 	pophi	{r4, r5, r6, pc}
    9510:	e3520000 	cmp	r2, #0
    9514:	da00002f 	ble	95d8 <sd_IRQ+0x148>
    9518:	e1a00004 	mov	r0, r4
    951c:	ebffff32 	bl	91ec <set_dir.part.0>
    9520:	e594302c 	ldr	r3, [r4, #44]	; 0x2c
    9524:	e2833001 	add	r3, r3, #1
    9528:	e584302c 	str	r3, [r4, #44]	; 0x2c
    952c:	e30f0718 	movw	r0, #63256	; 0xf718
    9530:	e3400001 	movt	r0, #1
    9534:	ebffffc2 	bl	9444 <step>
    9538:	e3a03000 	mov	r3, #0
    953c:	e5843034 	str	r3, [r4, #52]	; 0x34
    9540:	e8bd8070 	pop	{r4, r5, r6, pc}
    9544:	e5942034 	ldr	r2, [r4, #52]	; 0x34
    9548:	e3065b84 	movw	r5, #27524	; 0x6b84
    954c:	e3405001 	movt	r5, #1
    9550:	e3a01902 	mov	r1, #32768	; 0x8000
    9554:	e2822001 	add	r2, r2, #1
    9558:	e5953000 	ldr	r3, [r5]
    955c:	e5842034 	str	r2, [r4, #52]	; 0x34
    9560:	e5831020 	str	r1, [r3, #32]
    9564:	e5942024 	ldr	r2, [r4, #36]	; 0x24
    9568:	e5941034 	ldr	r1, [r4, #52]	; 0x34
    956c:	e0220fc2 	eor	r0, r2, r2, asr #31
    9570:	e0400fc2 	sub	r0, r0, r2, asr #31
    9574:	e1500001 	cmp	r0, r1
    9578:	8affffd4 	bhi	94d0 <sd_IRQ+0x40>
    957c:	e3520000 	cmp	r2, #0
    9580:	da00001d 	ble	95fc <sd_IRQ+0x16c>
    9584:	e1a00004 	mov	r0, r4
    9588:	ebffff17 	bl	91ec <set_dir.part.0>
    958c:	e594302c 	ldr	r3, [r4, #44]	; 0x2c
    9590:	e2833001 	add	r3, r3, #1
    9594:	e584302c 	str	r3, [r4, #44]	; 0x2c
    9598:	e30f077c 	movw	r0, #63356	; 0xf77c
    959c:	e3400001 	movt	r0, #1
    95a0:	ebffffa7 	bl	9444 <step>
    95a4:	e5953000 	ldr	r3, [r5]
    95a8:	e3a02000 	mov	r2, #0
    95ac:	e5842034 	str	r2, [r4, #52]	; 0x34
    95b0:	eaffffc6 	b	94d0 <sd_IRQ+0x40>
    95b4:	e3063b84 	movw	r3, #27524	; 0x6b84
    95b8:	e3a02008 	mov	r2, #8
    95bc:	e3403001 	movt	r3, #1
    95c0:	e5933000 	ldr	r3, [r3]
    95c4:	e583202c 	str	r2, [r3, #44]	; 0x2c
    95c8:	e12fff1e 	bx	lr
    95cc:	e3a02902 	mov	r2, #32768	; 0x8000
    95d0:	e583202c 	str	r2, [r3, #44]	; 0x2c
    95d4:	e8bd8070 	pop	{r4, r5, r6, pc}
    95d8:	e5d40055 	ldrb	r0, [r4, #85]	; 0x55
    95dc:	e3a02001 	mov	r2, #1
    95e0:	e5d41059 	ldrb	r1, [r4, #89]	; 0x59
    95e4:	e1a02012 	lsl	r2, r2, r0
    95e8:	e7832101 	str	r2, [r3, r1, lsl #2]
    95ec:	e594302c 	ldr	r3, [r4, #44]	; 0x2c
    95f0:	e2433001 	sub	r3, r3, #1
    95f4:	e584302c 	str	r3, [r4, #44]	; 0x2c
    95f8:	eaffffcb 	b	952c <sd_IRQ+0x9c>
    95fc:	e5d40055 	ldrb	r0, [r4, #85]	; 0x55
    9600:	e3a02001 	mov	r2, #1
    9604:	e5d41059 	ldrb	r1, [r4, #89]	; 0x59
    9608:	e1a02012 	lsl	r2, r2, r0
    960c:	e7832101 	str	r2, [r3, r1, lsl #2]
    9610:	e594302c 	ldr	r3, [r4, #44]	; 0x2c
    9614:	e2433001 	sub	r3, r3, #1
    9618:	e584302c 	str	r3, [r4, #44]	; 0x2c
    961c:	eaffffdd 	b	9598 <sd_IRQ+0x108>

00009620 <set_dir>:
    9620:	e3510000 	cmp	r1, #0
    9624:	e1a01000 	mov	r1, r0
    9628:	1a000008 	bne	9650 <set_dir+0x30>
    962c:	e5d00055 	ldrb	r0, [r0, #85]	; 0x55
    9630:	e3062b84 	movw	r2, #27524	; 0x6b84
    9634:	e5d11059 	ldrb	r1, [r1, #89]	; 0x59
    9638:	e3402001 	movt	r2, #1
    963c:	e3a03001 	mov	r3, #1
    9640:	e5922000 	ldr	r2, [r2]
    9644:	e1a03013 	lsl	r3, r3, r0
    9648:	e7823101 	str	r3, [r2, r1, lsl #2]
    964c:	e12fff1e 	bx	lr
    9650:	eafffee5 	b	91ec <set_dir.part.0>
    9654:	00000000 	andeq	r0, r0, r0

00009658 <set_target_axis>:
    9658:	eef70ac0 	vcvt.f64.f32	d16, s0
    965c:	eddf2b09 	vldr	d18, [pc, #36]	; 9688 <set_target_axis+0x30>
    9660:	edd07a0a 	vldr	s15, [r0, #40]	; 0x28
    9664:	eefc0ae0 	vcvt.u32.f32	s1, s1
    9668:	ee602ba2 	vmul.f64	d18, d16, d18
    966c:	eef71ae7 	vcvt.f64.f32	d17, s15
    9670:	ed800a06 	vstr	s0, [r0, #24]
    9674:	edc00a08 	vstr	s1, [r0, #32]
    9678:	eec20ba1 	vdiv.f64	d16, d18, d17
    967c:	eef77be0 	vcvt.f32.f64	s15, d16
    9680:	edc07a07 	vstr	s15, [r0, #28]
    9684:	e12fff1e 	bx	lr
    9688:	54442d18 	strbpl	r2, [r4], #-3352	; 0xfffff2e8
    968c:	401921fb 			; <UNDEFINED> instruction: 0x401921fb

00009690 <set_target>:
    9690:	e92d4030 	push	{r4, r5, lr}
    9694:	e30f4718 	movw	r4, #63256	; 0xf718
    9698:	e3404001 	movt	r4, #1
    969c:	e30f577c 	movw	r5, #63356	; 0xf77c
    96a0:	ed2d8b04 	vpush	{d8-d9}
    96a4:	edd47a05 	vldr	s15, [r4, #20]
    96a8:	e3405001 	movt	r5, #1
    96ac:	eef09a40 	vmov.f32	s19, s0
    96b0:	e24dd00c 	sub	sp, sp, #12
    96b4:	ee308ae7 	vsub.f32	s16, s1, s15
    96b8:	edd58a05 	vldr	s17, [r5, #20]
    96bc:	eeb09a60 	vmov.f32	s18, s1
    96c0:	ee708a68 	vsub.f32	s17, s0, s17
    96c4:	ee280a08 	vmul.f32	s0, s16, s16
    96c8:	eea80aa8 	vfma.f32	s0, s17, s17
    96cc:	eeb70ac0 	vcvt.f64.f32	d0, s0
    96d0:	eef10bc0 	vsqrt.f64	d16, d0
    96d4:	eef40b60 	vcmp.f64	d16, d16
    96d8:	eef1fa10 	vmrs	APSR_nzcv, fpscr
    96dc:	1a00002b 	bne	9790 <set_target+0x100>
    96e0:	eef75ae9 	vcvt.f64.f32	d21, s19
    96e4:	eddf3b2f 	vldr	d19, [pc, #188]	; 97a8 <set_target+0x118>
    96e8:	eeb70be0 	vcvt.f32.f64	s0, d16
    96ec:	eef70ac9 	vcvt.f64.f32	d16, s18
    96f0:	ee655ba3 	vmul.f64	d21, d21, d19
    96f4:	ed957a0a 	vldr	s14, [r5, #40]	; 0x28
    96f8:	edd47a0a 	vldr	s15, [r4, #40]	; 0x28
    96fc:	eef74ac7 	vcvt.f64.f32	d20, s14
    9700:	ee603ba3 	vmul.f64	d19, d16, d19
    9704:	eef72ae7 	vcvt.f64.f32	d18, s15
    9708:	eef26a04 	vmov.f32	s13, #36	; 0x41200000  10.0
    970c:	eec51ba4 	vdiv.f64	d17, d21, d20
    9710:	ee688a81 	vmul.f32	s17, s17, s2
    9714:	ee288a01 	vmul.f32	s16, s16, s2
    9718:	edc59a06 	vstr	s19, [r5, #24]
    971c:	ed849a06 	vstr	s18, [r4, #24]
    9720:	eec30ba2 	vdiv.f64	d16, d19, d18
    9724:	eef77be1 	vcvt.f32.f64	s15, d17
    9728:	edc57a07 	vstr	s15, [r5, #28]
    972c:	eec85a80 	vdiv.f32	s11, s17, s0
    9730:	eef77be0 	vcvt.f32.f64	s15, d16
    9734:	edc47a07 	vstr	s15, [r4, #28]
    9738:	ee886a00 	vdiv.f32	s12, s16, s0
    973c:	ee867aa5 	vdiv.f32	s14, s13, s11
    9740:	eec67a86 	vdiv.f32	s15, s13, s12
    9744:	eebd7ac7 	vcvt.s32.f32	s14, s14
    9748:	ee173a10 	vmov	r3, s14
    974c:	e3530000 	cmp	r3, #0
    9750:	b2633000 	rsblt	r3, r3, #0
    9754:	ee073a10 	vmov	s14, r3
    9758:	eeb87ac7 	vcvt.f32.s32	s14, s14
    975c:	eefd7ae7 	vcvt.s32.f32	s15, s15
    9760:	eebc7ac7 	vcvt.u32.f32	s14, s14
    9764:	ee173a90 	vmov	r3, s15
    9768:	e3530000 	cmp	r3, #0
    976c:	ed857a08 	vstr	s14, [r5, #32]
    9770:	b2633000 	rsblt	r3, r3, #0
    9774:	ee073a90 	vmov	s15, r3
    9778:	eef87ae7 	vcvt.f32.s32	s15, s15
    977c:	eefc7ae7 	vcvt.u32.f32	s15, s15
    9780:	edc47a08 	vstr	s15, [r4, #32]
    9784:	e28dd00c 	add	sp, sp, #12
    9788:	ecbd8b04 	vpop	{d8-d9}
    978c:	e8bd8030 	pop	{r4, r5, pc}
    9790:	ed8d1a01 	vstr	s2, [sp, #4]
    9794:	eb002b47 	bl	144b8 <sqrt>
    9798:	eef00b40 	vmov.f64	d16, d0
    979c:	ed9d1a01 	vldr	s2, [sp, #4]
    97a0:	eaffffce 	b	96e0 <set_target+0x50>
    97a4:	e320f000 	nop	{0}
    97a8:	54442d18 	strbpl	r2, [r4], #-3352	; 0xfffff2e8
    97ac:	401921fb 			; <UNDEFINED> instruction: 0x401921fb

000097b0 <get_x_axis>:
    97b0:	e30f077c 	movw	r0, #63356	; 0xf77c
    97b4:	e3400001 	movt	r0, #1
    97b8:	e12fff1e 	bx	lr

000097bc <get_y_axis>:
    97bc:	e30f0718 	movw	r0, #63256	; 0xf718
    97c0:	e3400001 	movt	r0, #1
    97c4:	e12fff1e 	bx	lr

000097c8 <get_z_axis>:
    97c8:	e30f06ac 	movw	r0, #63148	; 0xf6ac
    97cc:	e3400001 	movt	r0, #1
    97d0:	e12fff1e 	bx	lr

000097d4 <get_sd_state>:
    97d4:	e30f3714 	movw	r3, #63252	; 0xf714
    97d8:	e3403001 	movt	r3, #1
    97dc:	e5930000 	ldr	r0, [r3]
    97e0:	e12fff1e 	bx	lr
    97e4:	00000000 	andeq	r0, r0, r0

000097e8 <axis_active>:
    97e8:	edd07a05 	vldr	s15, [r0, #20]
    97ec:	ed907a06 	vldr	s14, [r0, #24]
    97f0:	eddf1b08 	vldr	d17, [pc, #32]	; 9818 <axis_active+0x30>
    97f4:	ee777ac7 	vsub.f32	s15, s15, s14
    97f8:	eef07ae7 	vabs.f32	s15, s15
    97fc:	eef70ae7 	vcvt.f64.f32	d16, s15
    9800:	eef40be1 	vcmpe.f64	d16, d17
    9804:	eef1fa10 	vmrs	APSR_nzcv, fpscr
    9808:	c3a00001 	movgt	r0, #1
    980c:	d3a00000 	movle	r0, #0
    9810:	e12fff1e 	bx	lr
    9814:	e320f000 	nop	{0}
    9818:	9999999a 	ldmibls	r9, {r1, r3, r4, r7, r8, fp, ip, pc}
    981c:	3fb99999 	svccc	0x00b99999

00009820 <motion_active>:
    9820:	e30f2718 	movw	r2, #63256	; 0xf718
    9824:	e30f377c 	movw	r3, #63356	; 0xf77c
    9828:	e3402001 	movt	r2, #1
    982c:	e3403001 	movt	r3, #1
    9830:	eddf2b14 	vldr	d18, [pc, #80]	; 9888 <motion_active+0x68>
    9834:	edd26a06 	vldr	s13, [r2, #24]
    9838:	ed927a05 	vldr	s14, [r2, #20]
    983c:	edd37a05 	vldr	s15, [r3, #20]
    9840:	ee377a66 	vsub.f32	s14, s14, s13
    9844:	edd36a06 	vldr	s13, [r3, #24]
    9848:	ee777ae6 	vsub.f32	s15, s15, s13
    984c:	eeb07ac7 	vabs.f32	s14, s14
    9850:	eef07ae7 	vabs.f32	s15, s15
    9854:	eef71ac7 	vcvt.f64.f32	d17, s14
    9858:	eef70ae7 	vcvt.f64.f32	d16, s15
    985c:	eef41be2 	vcmpe.f64	d17, d18
    9860:	eef1fa10 	vmrs	APSR_nzcv, fpscr
    9864:	eef40be2 	vcmpe.f64	d16, d18
    9868:	c3a00001 	movgt	r0, #1
    986c:	d3a00000 	movle	r0, #0
    9870:	eef1fa10 	vmrs	APSR_nzcv, fpscr
    9874:	c3a03001 	movgt	r3, #1
    9878:	d3a03000 	movle	r3, #0
    987c:	e0800003 	add	r0, r0, r3
    9880:	e12fff1e 	bx	lr
    9884:	e320f000 	nop	{0}
    9888:	9999999a 	ldmibls	r9, {r1, r3, r4, r7, r8, fp, ip, pc}
    988c:	3fb99999 	svccc	0x00b99999

00009890 <setup_vars>:
    9890:	e30f377c 	movw	r3, #63356	; 0xf77c
    9894:	e3403001 	movt	r3, #1
    9898:	e92d47f0 	push	{r4, r5, r6, r7, r8, r9, sl, lr}
    989c:	e1a00003 	mov	r0, r3
    98a0:	e3a04000 	mov	r4, #0
    98a4:	e3a05000 	mov	r5, #0
    98a8:	e5834030 	str	r4, [r3, #48]	; 0x30
    98ac:	e3a065fe 	mov	r6, #1065353216	; 0x3f800000
    98b0:	e583604c 	str	r6, [r3, #76]	; 0x4c
    98b4:	e3a0943f 	mov	r9, #1056964608	; 0x3f000000
    98b8:	e5839044 	str	r9, [r3, #68]	; 0x44
    98bc:	e3a07441 	mov	r7, #1090519040	; 0x41000000
    98c0:	e5836048 	str	r6, [r3, #72]	; 0x48
    98c4:	e3028710 	movw	r8, #10000	; 0x2710
    98c8:	e583402c 	str	r4, [r3, #44]	; 0x2c
    98cc:	e5834008 	str	r4, [r3, #8]
    98d0:	e5834024 	str	r4, [r3, #36]	; 0x24
    98d4:	e5834034 	str	r4, [r3, #52]	; 0x34
    98d8:	e5c34060 	strb	r4, [r3, #96]	; 0x60
    98dc:	e5835000 	str	r5, [r3]
    98e0:	e5835004 	str	r5, [r3, #4]
    98e4:	e5838020 	str	r8, [r3, #32]
    98e8:	e5837028 	str	r7, [r3, #40]	; 0x28
    98ec:	ebfffe3e 	bl	91ec <set_dir.part.0>
    98f0:	e30f3718 	movw	r3, #63256	; 0xf718
    98f4:	e3a02001 	mov	r2, #1
    98f8:	e3403001 	movt	r3, #1
    98fc:	e1a00003 	mov	r0, r3
    9900:	e5839044 	str	r9, [r3, #68]	; 0x44
    9904:	e583604c 	str	r6, [r3, #76]	; 0x4c
    9908:	e5836048 	str	r6, [r3, #72]	; 0x48
    990c:	e5834030 	str	r4, [r3, #48]	; 0x30
    9910:	e583402c 	str	r4, [r3, #44]	; 0x2c
    9914:	e5834008 	str	r4, [r3, #8]
    9918:	e5835000 	str	r5, [r3]
    991c:	e5835004 	str	r5, [r3, #4]
    9920:	e5838020 	str	r8, [r3, #32]
    9924:	e5834024 	str	r4, [r3, #36]	; 0x24
    9928:	e5834034 	str	r4, [r3, #52]	; 0x34
    992c:	e5837028 	str	r7, [r3, #40]	; 0x28
    9930:	e5c32060 	strb	r2, [r3, #96]	; 0x60
    9934:	e8bd47f0 	pop	{r4, r5, r6, r7, r8, r9, sl, lr}
    9938:	eafffe2b 	b	91ec <set_dir.part.0>
    993c:	00000000 	andeq	r0, r0, r0

00009940 <read_enc>:
    9940:	e3062b84 	movw	r2, #27524	; 0x6b84
    9944:	e3a03001 	mov	r3, #1
    9948:	e3402001 	movt	r2, #1
    994c:	e92d41f0 	push	{r4, r5, r6, r7, r8, lr}
    9950:	e1a06000 	mov	r6, r0
    9954:	ed2d8b02 	vpush	{d8}
    9958:	e5d04010 	ldrb	r4, [r0, #16]
    995c:	e5d05013 	ldrb	r5, [r0, #19]
    9960:	e5922000 	ldr	r2, [r2]
    9964:	edd08a00 	vldr	s17, [r0]
    9968:	ed908a01 	vldr	s16, [r0, #4]
    996c:	e1a04413 	lsl	r4, r3, r4
    9970:	e0825105 	add	r5, r2, r5, lsl #2
    9974:	e6ef4074 	uxtb	r4, r4
    9978:	e5953000 	ldr	r3, [r5]
    997c:	e1130004 	tst	r3, r4
    9980:	1afffffc 	bne	9978 <read_enc+0x38>
    9984:	e5953000 	ldr	r3, [r5]
    9988:	e1130004 	tst	r3, r4
    998c:	0afffffc 	beq	9984 <read_enc+0x44>
    9990:	ebfffbeb 	bl	8944 <CNT32>
    9994:	e1a07000 	mov	r7, r0
    9998:	e5953000 	ldr	r3, [r5]
    999c:	e1130004 	tst	r3, r4
    99a0:	1afffffc 	bne	9998 <read_enc+0x58>
    99a4:	ebfffbe6 	bl	8944 <CNT32>
    99a8:	e30f3fe0 	movw	r3, #65504	; 0xffe0
    99ac:	e34f3fff 	movt	r3, #65535	; 0xffff
    99b0:	e0673003 	rsb	r3, r7, r3
    99b4:	e0830000 	add	r0, r3, r0
    99b8:	eddf2b42 	vldr	d18, [pc, #264]	; 9ac8 <read_enc+0x188>
    99bc:	ee070a90 	vmov	s15, r0
    99c0:	eddf3b42 	vldr	d19, [pc, #264]	; 9ad0 <read_enc+0x190>
    99c4:	eef81be7 	vcvt.f64.s32	d17, s15
    99c8:	ee611ba2 	vmul.f64	d17, d17, d18
    99cc:	eec10ba3 	vdiv.f64	d16, d17, d19
    99d0:	eef40be2 	vcmpe.f64	d16, d18
    99d4:	eef1fa10 	vmrs	APSR_nzcv, fpscr
    99d8:	ca00001f 	bgt	9a5c <read_enc+0x11c>
    99dc:	eef50bc0 	vcmpe.f64	d16, #0.0
    99e0:	eef1fa10 	vmrs	APSR_nzcv, fpscr
    99e4:	5a00002b 	bpl	9a98 <read_enc+0x158>
    99e8:	eddf0b3a 	vldr	d16, [pc, #232]	; 9ad8 <read_enc+0x198>
    99ec:	e3a03000 	mov	r3, #0
    99f0:	e5863000 	str	r3, [r6]
    99f4:	eef17a02 	vmov.f32	s15, #18	; 0x40900000  4.5
    99f8:	e5963008 	ldr	r3, [r6, #8]
    99fc:	eef48ae7 	vcmpe.f32	s17, s15
    9a00:	eef1fa10 	vmrs	APSR_nzcv, fpscr
    9a04:	c2833001 	addgt	r3, r3, #1
    9a08:	c5863008 	strgt	r3, [r6, #8]
    9a0c:	ee073a90 	vmov	s15, r3
    9a10:	eddf2b2c 	vldr	d18, [pc, #176]	; 9ac8 <read_enc+0x188>
    9a14:	ed967a03 	vldr	s14, [r6, #12]
    9a18:	eef66a00 	vmov.f32	s13, #96	; 0x3f000000  0.5
    9a1c:	eef81be7 	vcvt.f64.s32	d17, s15
    9a20:	eee10ba2 	vfma.f64	d16, d17, d18
    9a24:	eef71ac7 	vcvt.f64.f32	d17, s14
    9a28:	ed967a0a 	vldr	s14, [r6, #40]	; 0x28
    9a2c:	ee700be1 	vsub.f64	d16, d16, d17
    9a30:	eef77be0 	vcvt.f32.f64	s15, d16
    9a34:	ee777a88 	vadd.f32	s15, s15, s16
    9a38:	ecbd8b02 	vpop	{d8}
    9a3c:	ee677aa6 	vmul.f32	s15, s15, s13
    9a40:	ee277a87 	vmul.f32	s14, s15, s14
    9a44:	edc67a01 	vstr	s15, [r6, #4]
    9a48:	eef70ac7 	vcvt.f64.f32	d16, s14
    9a4c:	eec01ba2 	vdiv.f64	d17, d16, d18
    9a50:	eef77be1 	vcvt.f32.f64	s15, d17
    9a54:	edc67a05 	vstr	s15, [r6, #20]
    9a58:	e8bd81f0 	pop	{r4, r5, r6, r7, r8, pc}
    9a5c:	eef00b62 	vmov.f64	d16, d18
    9a60:	e3003fdb 	movw	r3, #4059	; 0xfdb
    9a64:	e34430c9 	movt	r3, #16585	; 0x40c9
    9a68:	e5863000 	str	r3, [r6]
    9a6c:	eef71ae8 	vcvt.f64.f32	d17, s17
    9a70:	eddf2b1a 	vldr	d18, [pc, #104]	; 9ae0 <read_enc+0x1a0>
    9a74:	eef41be2 	vcmpe.f64	d17, d18
    9a78:	eef1fa10 	vmrs	APSR_nzcv, fpscr
    9a7c:	4a00000c 	bmi	9ab4 <read_enc+0x174>
    9a80:	eddf1b16 	vldr	d17, [pc, #88]	; 9ae0 <read_enc+0x1a0>
    9a84:	eef40be1 	vcmpe.f64	d16, d17
    9a88:	eef1fa10 	vmrs	APSR_nzcv, fpscr
    9a8c:	55963008 	ldrpl	r3, [r6, #8]
    9a90:	5affffdd 	bpl	9a0c <read_enc+0xcc>
    9a94:	eaffffd6 	b	99f4 <read_enc+0xb4>
    9a98:	eef11b02 	vmov.f64	d17, #18	; 0x40900000  4.5
    9a9c:	eef77be0 	vcvt.f32.f64	s15, d16
    9aa0:	eef40be1 	vcmpe.f64	d16, d17
    9aa4:	edc67a00 	vstr	s15, [r6]
    9aa8:	eef1fa10 	vmrs	APSR_nzcv, fpscr
    9aac:	dafffff3 	ble	9a80 <read_enc+0x140>
    9ab0:	eaffffed 	b	9a6c <read_enc+0x12c>
    9ab4:	e5963008 	ldr	r3, [r6, #8]
    9ab8:	e2433001 	sub	r3, r3, #1
    9abc:	e5863008 	str	r3, [r6, #8]
    9ac0:	eaffffd1 	b	9a0c <read_enc+0xcc>
    9ac4:	e320f000 	nop	{0}
    9ac8:	54442d18 	strbpl	r2, [r4], #-3352	; 0xfffff2e8
    9acc:	401921fb 			; <UNDEFINED> instruction: 0x401921fb
    9ad0:	00000000 	andeq	r0, r0, r0
    9ad4:	40779000 	rsbsmi	r9, r7, r0
	...
    9ae0:	47ae147b 			; <UNDEFINED> instruction: 0x47ae147b
    9ae4:	3ffc7ae1 	svccc	0x00fc7ae1

00009ae8 <run_homing>:
    9ae8:	e30f3714 	movw	r3, #63252	; 0xf714
    9aec:	e3a02002 	mov	r2, #2
    9af0:	e92d4070 	push	{r4, r5, r6, lr}
    9af4:	e3403001 	movt	r3, #1
    9af8:	e5d01060 	ldrb	r1, [r0, #96]	; 0x60
    9afc:	e1a05000 	mov	r5, r0
    9b00:	e5832000 	str	r2, [r3]
    9b04:	e3060594 	movw	r0, #26004	; 0x6594
    9b08:	e3400001 	movt	r0, #1
    9b0c:	eb000ac5 	bl	c628 <printf>
    9b10:	e5d5205a 	ldrb	r2, [r5, #90]	; 0x5a
    9b14:	e3060b84 	movw	r0, #27524	; 0x6b84
    9b18:	e5d5e05f 	ldrb	lr, [r5, #95]	; 0x5f
    9b1c:	e3400001 	movt	r0, #1
    9b20:	e3a03001 	mov	r3, #1
    9b24:	e3a0c000 	mov	ip, #0
    9b28:	e5901000 	ldr	r1, [r0]
    9b2c:	e3e00013 	mvn	r0, #19
    9b30:	e1a02213 	lsl	r2, r3, r2
    9b34:	e5850024 	str	r0, [r5, #36]	; 0x24
    9b38:	e6ef2072 	uxtb	r2, r2
    9b3c:	e081110e 	add	r1, r1, lr, lsl #2
    9b40:	e585c00c 	str	ip, [r5, #12]
    9b44:	e5913000 	ldr	r3, [r1]
    9b48:	e0134002 	ands	r4, r3, r2
    9b4c:	1afffffc 	bne	9b44 <run_homing+0x5c>
    9b50:	e5854024 	str	r4, [r5, #36]	; 0x24
    9b54:	e1a00005 	mov	r0, r5
    9b58:	e3a06000 	mov	r6, #0
    9b5c:	ebffff77 	bl	9940 <read_enc>
    9b60:	e5953000 	ldr	r3, [r5]
    9b64:	e1a00005 	mov	r0, r5
    9b68:	e5854008 	str	r4, [r5, #8]
    9b6c:	e585300c 	str	r3, [r5, #12]
    9b70:	e5856004 	str	r6, [r5, #4]
    9b74:	ebffff71 	bl	9940 <read_enc>
    9b78:	edd57a03 	vldr	s15, [r5, #12]
    9b7c:	e30605ac 	movw	r0, #26028	; 0x65ac
    9b80:	e5856018 	str	r6, [r5, #24]
    9b84:	e3400001 	movt	r0, #1
    9b88:	eef70ae7 	vcvt.f64.f32	d16, s15
    9b8c:	e585601c 	str	r6, [r5, #28]
    9b90:	e5d51060 	ldrb	r1, [r5, #96]	; 0x60
    9b94:	e8bd4070 	pop	{r4, r5, r6, lr}
    9b98:	ec532b30 	vmov	r2, r3, d16
    9b9c:	ea000aa1 	b	c628 <printf>

00009ba0 <update_pid>:
    9ba0:	e92d4010 	push	{r4, lr}
    9ba4:	e1a04000 	mov	r4, r0
    9ba8:	ebffff64 	bl	9940 <read_enc>
    9bac:	edd47a01 	vldr	s15, [r4, #4]
    9bb0:	edd46a07 	vldr	s13, [r4, #28]
    9bb4:	edd45a0f 	vldr	s11, [r4, #60]	; 0x3c
    9bb8:	ee776ae6 	vsub.f32	s13, s15, s13
    9bbc:	ed946a10 	vldr	s12, [r4, #64]	; 0x40
    9bc0:	edd47a11 	vldr	s15, [r4, #68]	; 0x44
    9bc4:	edd44a13 	vldr	s9, [r4, #76]	; 0x4c
    9bc8:	ee765ae5 	vsub.f32	s11, s13, s11
    9bcc:	ee877aa6 	vdiv.f32	s14, s15, s13
    9bd0:	ee366a86 	vadd.f32	s12, s13, s12
    9bd4:	ed945a12 	vldr	s10, [r4, #72]	; 0x48
    9bd8:	edc45a0f 	vstr	s11, [r4, #60]	; 0x3c
    9bdc:	e5942020 	ldr	r2, [r4, #32]
    9be0:	edc46a0e 	vstr	s13, [r4, #56]	; 0x38
    9be4:	ed846a10 	vstr	s12, [r4, #64]	; 0x40
    9be8:	eec47aa5 	vdiv.f32	s15, s9, s11
    9bec:	eec55a06 	vdiv.f32	s11, s10, s12
    9bf0:	ee777a27 	vadd.f32	s15, s14, s15
    9bf4:	ee777aa5 	vadd.f32	s15, s15, s11
    9bf8:	eefd7ae7 	vcvt.s32.f32	s15, s15
    9bfc:	ee173a90 	vmov	r3, s15
    9c00:	e2633000 	rsb	r3, r3, #0
    9c04:	e0030392 	mul	r3, r2, r3
    9c08:	e3530000 	cmp	r3, #0
    9c0c:	1a000005 	bne	9c28 <update_pid+0x88>
    9c10:	eef56ac0 	vcmpe.f32	s13, #0.0
    9c14:	eef1fa10 	vmrs	APSR_nzcv, fpscr
    9c18:	41a03002 	movmi	r3, r2
    9c1c:	45843024 	strmi	r3, [r4, #36]	; 0x24
    9c20:	4a000001 	bmi	9c2c <update_pid+0x8c>
    9c24:	e2623000 	rsb	r3, r2, #0
    9c28:	e5843024 	str	r3, [r4, #36]	; 0x24
    9c2c:	e2833ffa 	add	r3, r3, #1000	; 0x3e8
    9c30:	e3530e7d 	cmp	r3, #2000	; 0x7d0
    9c34:	83a03000 	movhi	r3, #0
    9c38:	85843024 	strhi	r3, [r4, #36]	; 0x24
    9c3c:	e8bd8010 	pop	{r4, pc}

00009c40 <sd_main>:
    9c40:	e3a04001 	mov	r4, #1
    9c44:	ebfffd71 	bl	9210 <setup_pins>
    9c48:	ebffff10 	bl	9890 <setup_vars>
    9c4c:	e3062b84 	movw	r2, #27524	; 0x6b84
    9c50:	e30f382c 	movw	r3, #63532	; 0xf82c
    9c54:	e3403001 	movt	r3, #1
    9c58:	e3402001 	movt	r2, #1
    9c5c:	e3a00008 	mov	r0, #8
    9c60:	e5931000 	ldr	r1, [r3]
    9c64:	e30f3710 	movw	r3, #63248	; 0xf710
    9c68:	e5922000 	ldr	r2, [r2]
    9c6c:	e3403001 	movt	r3, #1
    9c70:	e5820020 	str	r0, [r2, #32]
    9c74:	e30f077c 	movw	r0, #63356	; 0xf77c
    9c78:	e5912018 	ldr	r2, [r1, #24]
    9c7c:	e3400001 	movt	r0, #1
    9c80:	e1822004 	orr	r2, r2, r4
    9c84:	e5812018 	str	r2, [r1, #24]
    9c88:	e5834000 	str	r4, [r3]
    9c8c:	ebffff95 	bl	9ae8 <run_homing>
    9c90:	e30f0718 	movw	r0, #63256	; 0xf718
    9c94:	e3400001 	movt	r0, #1
    9c98:	ebffff92 	bl	9ae8 <run_homing>
    9c9c:	e30f3714 	movw	r3, #63252	; 0xf714
    9ca0:	e3403001 	movt	r3, #1
    9ca4:	e5834000 	str	r4, [r3]
    9ca8:	ebfffb25 	bl	8944 <CNT32>
    9cac:	e1a04000 	mov	r4, r0
    9cb0:	e30f077c 	movw	r0, #63356	; 0xf77c
    9cb4:	e3400001 	movt	r0, #1
    9cb8:	ebffffb8 	bl	9ba0 <update_pid>
    9cbc:	e30f0718 	movw	r0, #63256	; 0xf718
    9cc0:	e3400001 	movt	r0, #1
    9cc4:	ebffffb5 	bl	9ba0 <update_pid>
    9cc8:	e2840ffa 	add	r0, r4, #1000	; 0x3e8
    9ccc:	ebfffb2c 	bl	8984 <waitcnt32>
    9cd0:	eafffff4 	b	9ca8 <sd_main+0x68>

00009cd4 <init_q>:
    9cd4:	e2800a02 	add	r0, r0, #8192	; 0x2000
    9cd8:	e3e03000 	mvn	r3, #0
    9cdc:	e5803ee4 	str	r3, [r0, #3812]	; 0xee4
    9ce0:	e3a03000 	mov	r3, #0
    9ce4:	e5803ee0 	str	r3, [r0, #3808]	; 0xee0
    9ce8:	e5803ee8 	str	r3, [r0, #3816]	; 0xee8
    9cec:	e12fff1e 	bx	lr

00009cf0 <peek>:
    9cf0:	e2803a02 	add	r3, r0, #8192	; 0x2000
    9cf4:	e3a0200c 	mov	r2, #12
    9cf8:	e24dd020 	sub	sp, sp, #32
    9cfc:	e5933ee0 	ldr	r3, [r3, #3808]	; 0xee0
    9d00:	e0200392 	mla	r0, r2, r3, r0
    9d04:	e28d3020 	add	r3, sp, #32
    9d08:	e8900007 	ldm	r0, {r0, r1, r2}
    9d0c:	e9030007 	stmdb	r3, {r0, r1, r2}
    9d10:	ed9d0a05 	vldr	s0, [sp, #20]
    9d14:	eddd0a06 	vldr	s1, [sp, #24]
    9d18:	ed9d1a07 	vldr	s2, [sp, #28]
    9d1c:	e28dd020 	add	sp, sp, #32
    9d20:	e12fff1e 	bx	lr

00009d24 <isEmpty>:
    9d24:	e2800a02 	add	r0, r0, #8192	; 0x2000
    9d28:	e5900ee8 	ldr	r0, [r0, #3816]	; 0xee8
    9d2c:	e16f0f10 	clz	r0, r0
    9d30:	e1a002a0 	lsr	r0, r0, #5
    9d34:	e12fff1e 	bx	lr

00009d38 <isFull>:
    9d38:	e2800a02 	add	r0, r0, #8192	; 0x2000
    9d3c:	e5900ee8 	ldr	r0, [r0, #3816]	; 0xee8
    9d40:	e2400ffa 	sub	r0, r0, #1000	; 0x3e8
    9d44:	e16f0f10 	clz	r0, r0
    9d48:	e1a002a0 	lsr	r0, r0, #5
    9d4c:	e12fff1e 	bx	lr

00009d50 <size>:
    9d50:	e2800a02 	add	r0, r0, #8192	; 0x2000
    9d54:	e5900ee8 	ldr	r0, [r0, #3816]	; 0xee8
    9d58:	e12fff1e 	bx	lr

00009d5c <insert>:
    9d5c:	e92d4030 	push	{r4, r5, lr}
    9d60:	e280ea02 	add	lr, r0, #8192	; 0x2000
    9d64:	e24dd014 	sub	sp, sp, #20
    9d68:	e59e4ee8 	ldr	r4, [lr, #3816]	; 0xee8
    9d6c:	ed8d0a01 	vstr	s0, [sp, #4]
    9d70:	edcd0a02 	vstr	s1, [sp, #8]
    9d74:	e3540ffa 	cmp	r4, #1000	; 0x3e8
    9d78:	ed8d1a03 	vstr	s2, [sp, #12]
    9d7c:	0a00000d 	beq	9db8 <insert+0x5c>
    9d80:	e59ecee4 	ldr	ip, [lr, #3812]	; 0xee4
    9d84:	e30023e7 	movw	r2, #999	; 0x3e7
    9d88:	e1a03000 	mov	r3, r0
    9d8c:	e3a0500c 	mov	r5, #12
    9d90:	e15c0002 	cmp	ip, r2
    9d94:	e28d2010 	add	r2, sp, #16
    9d98:	128cc001 	addne	ip, ip, #1
    9d9c:	03a0c000 	moveq	ip, #0
    9da0:	e9120007 	ldmdb	r2, {r0, r1, r2}
    9da4:	e2844001 	add	r4, r4, #1
    9da8:	e0233c95 	mla	r3, r5, ip, r3
    9dac:	e58ecee4 	str	ip, [lr, #3812]	; 0xee4
    9db0:	e8830007 	stm	r3, {r0, r1, r2}
    9db4:	e58e4ee8 	str	r4, [lr, #3816]	; 0xee8
    9db8:	e28dd014 	add	sp, sp, #20
    9dbc:	e8bd8030 	pop	{r4, r5, pc}

00009dc0 <removeData>:
    9dc0:	e92d4030 	push	{r4, r5, lr}
    9dc4:	e2805a02 	add	r5, r0, #8192	; 0x2000
    9dc8:	e3a0200c 	mov	r2, #12
    9dcc:	e24dd02c 	sub	sp, sp, #44	; 0x2c
    9dd0:	e5953ee0 	ldr	r3, [r5, #3808]	; 0xee0
    9dd4:	e28d4010 	add	r4, sp, #16
    9dd8:	e0200392 	mla	r0, r2, r3, r0
    9ddc:	e2833001 	add	r3, r3, #1
    9de0:	e3530ffa 	cmp	r3, #1000	; 0x3e8
    9de4:	e8900007 	ldm	r0, {r0, r1, r2}
    9de8:	e5853ee0 	str	r3, [r5, #3808]	; 0xee0
    9dec:	03a03000 	moveq	r3, #0
    9df0:	05853ee0 	streq	r3, [r5, #3808]	; 0xee0
    9df4:	e5953ee8 	ldr	r3, [r5, #3816]	; 0xee8
    9df8:	e8840007 	stm	r4, {r0, r1, r2}
    9dfc:	e3530000 	cmp	r3, #0
    9e00:	da000009 	ble	9e2c <removeData+0x6c>
    9e04:	e8940007 	ldm	r4, {r0, r1, r2}
    9e08:	e2433001 	sub	r3, r3, #1
    9e0c:	e5853ee8 	str	r3, [r5, #3816]	; 0xee8
    9e10:	e28d3028 	add	r3, sp, #40	; 0x28
    9e14:	e9030007 	stmdb	r3, {r0, r1, r2}
    9e18:	ed9d0a07 	vldr	s0, [sp, #28]
    9e1c:	eddd0a08 	vldr	s1, [sp, #32]
    9e20:	ed9d1a09 	vldr	s2, [sp, #36]	; 0x24
    9e24:	e28dd02c 	add	sp, sp, #44	; 0x2c
    9e28:	e8bd8030 	pop	{r4, r5, pc}
    9e2c:	e30605c4 	movw	r0, #26052	; 0x65c4
    9e30:	e3400001 	movt	r0, #1
    9e34:	eb000a36 	bl	c714 <puts>
    9e38:	e5953ee8 	ldr	r3, [r5, #3816]	; 0xee8
    9e3c:	eafffff0 	b	9e04 <removeData+0x44>

00009e40 <read_line>:
    9e40:	e92d41f0 	push	{r4, r5, r6, r7, r8, lr}
    9e44:	e1a07003 	mov	r7, r3
    9e48:	ed2d8b02 	vpush	{d8}
    9e4c:	e1a05000 	mov	r5, r0
    9e50:	e24dd010 	sub	sp, sp, #16
    9e54:	e1a06001 	mov	r6, r1
    9e58:	e1a08002 	mov	r8, r2
    9e5c:	e3a03000 	mov	r3, #0
    9e60:	e7d54003 	ldrb	r4, [r5, r3]
    9e64:	e3540000 	cmp	r4, #0
    9e68:	0a00001a 	beq	9ed8 <read_line+0x98>
    9e6c:	e2442041 	sub	r2, r4, #65	; 0x41
    9e70:	e2833001 	add	r3, r3, #1
    9e74:	e3520019 	cmp	r2, #25
    9e78:	86ef3073 	uxtbhi	r3, r3
    9e7c:	8afffff7 	bhi	9e60 <read_line+0x20>
    9e80:	e5cd300b 	strb	r3, [sp, #11]
    9e84:	e28d200c 	add	r2, sp, #12
    9e88:	e28d100b 	add	r1, sp, #11
    9e8c:	e1a00005 	mov	r0, r5
    9e90:	eb00011c 	bl	a308 <read_float>
    9e94:	e3500000 	cmp	r0, #0
    9e98:	0a00002b 	beq	9f4c <read_line+0x10c>
    9e9c:	ed9d8a03 	vldr	s16, [sp, #12]
    9ea0:	eeb70ac8 	vcvt.f64.f32	d0, s16
    9ea4:	eb002917 	bl	14308 <trunc>
    9ea8:	e3540047 	cmp	r4, #71	; 0x47
    9eac:	1a00000d 	bne	9ee8 <read_line+0xa8>
    9eb0:	eefc7bc0 	vcvt.u32.f64	s15, d0
    9eb4:	edcd7a01 	vstr	s15, [sp, #4]
    9eb8:	e5dd1004 	ldrb	r1, [sp, #4]
    9ebc:	e3510003 	cmp	r1, #3
    9ec0:	8a00003d 	bhi	9fbc <read_line+0x17c>
    9ec4:	e5dd300b 	ldrb	r3, [sp, #11]
    9ec8:	e5861000 	str	r1, [r6]
    9ecc:	e7d54003 	ldrb	r4, [r5, r3]
    9ed0:	e3540000 	cmp	r4, #0
    9ed4:	1affffe4 	bne	9e6c <read_line+0x2c>
    9ed8:	e1a00004 	mov	r0, r4
    9edc:	e28dd010 	add	sp, sp, #16
    9ee0:	ecbd8b02 	vpop	{d8}
    9ee4:	e8bd81f0 	pop	{r4, r5, r6, r7, r8, pc}
    9ee8:	e2443046 	sub	r3, r4, #70	; 0x46
    9eec:	e3530014 	cmp	r3, #20
    9ef0:	979ff103 	ldrls	pc, [pc, r3, lsl #2]
    9ef4:	ea00002a 	b	9fa4 <read_line+0x164>
    9ef8:	00009f98 	muleq	r0, r8, pc	; <UNPREDICTABLE>
    9efc:	00009fa4 	andeq	r9, r0, r4, lsr #31
    9f00:	00009fa4 	andeq	r9, r0, r4, lsr #31
    9f04:	00009fa4 	andeq	r9, r0, r4, lsr #31
    9f08:	00009fa4 	andeq	r9, r0, r4, lsr #31
    9f0c:	00009fa4 	andeq	r9, r0, r4, lsr #31
    9f10:	00009fa4 	andeq	r9, r0, r4, lsr #31
    9f14:	00009fa4 	andeq	r9, r0, r4, lsr #31
    9f18:	00009fa4 	andeq	r9, r0, r4, lsr #31
    9f1c:	00009fa4 	andeq	r9, r0, r4, lsr #31
    9f20:	00009fa4 	andeq	r9, r0, r4, lsr #31
    9f24:	00009fa4 	andeq	r9, r0, r4, lsr #31
    9f28:	00009f8c 	andeq	r9, r0, ip, lsl #31
    9f2c:	00009fa4 	andeq	r9, r0, r4, lsr #31
    9f30:	00009fa4 	andeq	r9, r0, r4, lsr #31
    9f34:	00009fa4 	andeq	r9, r0, r4, lsr #31
    9f38:	00009fa4 	andeq	r9, r0, r4, lsr #31
    9f3c:	00009fa4 	andeq	r9, r0, r4, lsr #31
    9f40:	00009f7c 	andeq	r9, r0, ip, ror pc
    9f44:	00009f6c 	andeq	r9, r0, ip, ror #30
    9f48:	00009f5c 	andeq	r9, r0, ip, asr pc
    9f4c:	e30605d8 	movw	r0, #26072	; 0x65d8
    9f50:	e3400001 	movt	r0, #1
    9f54:	eb0000de 	bl	a2d4 <FAIL>
    9f58:	eaffffcf 	b	9e9c <read_line+0x5c>
    9f5c:	e59d3030 	ldr	r3, [sp, #48]	; 0x30
    9f60:	ed838a02 	vstr	s16, [r3, #8]
    9f64:	e5dd300b 	ldrb	r3, [sp, #11]
    9f68:	eaffffbc 	b	9e60 <read_line+0x20>
    9f6c:	e59d3030 	ldr	r3, [sp, #48]	; 0x30
    9f70:	ed838a01 	vstr	s16, [r3, #4]
    9f74:	e5dd300b 	ldrb	r3, [sp, #11]
    9f78:	eaffffb8 	b	9e60 <read_line+0x20>
    9f7c:	e59d3030 	ldr	r3, [sp, #48]	; 0x30
    9f80:	ed838a00 	vstr	s16, [r3]
    9f84:	e5dd300b 	ldrb	r3, [sp, #11]
    9f88:	eaffffb4 	b	9e60 <read_line+0x20>
    9f8c:	ed878a00 	vstr	s16, [r7]
    9f90:	e5dd300b 	ldrb	r3, [sp, #11]
    9f94:	eaffffb1 	b	9e60 <read_line+0x20>
    9f98:	ed888a00 	vstr	s16, [r8]
    9f9c:	e5dd300b 	ldrb	r3, [sp, #11]
    9fa0:	eaffffae 	b	9e60 <read_line+0x20>
    9fa4:	e3060634 	movw	r0, #26164	; 0x6634
    9fa8:	e1a01004 	mov	r1, r4
    9fac:	e3400001 	movt	r0, #1
    9fb0:	eb00099c 	bl	c628 <printf>
    9fb4:	e5dd300b 	ldrb	r3, [sp, #11]
    9fb8:	eaffffa8 	b	9e60 <read_line+0x20>
    9fbc:	e30605f4 	movw	r0, #26100	; 0x65f4
    9fc0:	e3400001 	movt	r0, #1
    9fc4:	eb000997 	bl	c628 <printf>
    9fc8:	e5dd300b 	ldrb	r3, [sp, #11]
    9fcc:	eaffffa3 	b	9e60 <read_line+0x20>

00009fd0 <process_linear>:
    9fd0:	e92d40f0 	push	{r4, r5, r6, r7, lr}
    9fd4:	e1a05002 	mov	r5, r2
    9fd8:	ed2d8b04 	vpush	{d8-d9}
    9fdc:	edd27a01 	vldr	s15, [r2, #4]
    9fe0:	e24dd014 	sub	sp, sp, #20
    9fe4:	ed919a01 	vldr	s18, [r1, #4]
    9fe8:	e1a07000 	mov	r7, r0
    9fec:	edd18a00 	vldr	s17, [r1]
    9ff0:	ee399a67 	vsub.f32	s18, s18, s15
    9ff4:	edd27a00 	vldr	s15, [r2]
    9ff8:	edd19a02 	vldr	s19, [r1, #8]
    9ffc:	ee788ae7 	vsub.f32	s17, s17, s15
    a000:	ee290a09 	vmul.f32	s0, s18, s18
    a004:	edd27a02 	vldr	s15, [r2, #8]
    a008:	ee799ae7 	vsub.f32	s19, s19, s15
    a00c:	eea80aa8 	vfma.f32	s0, s17, s17
    a010:	eea90aa9 	vfma.f32	s0, s19, s19
    a014:	eeb70ac0 	vcvt.f64.f32	d0, s0
    a018:	eef10bc0 	vsqrt.f64	d16, d0
    a01c:	eef40b60 	vcmp.f64	d16, d16
    a020:	eef1fa10 	vmrs	APSR_nzcv, fpscr
    a024:	1a00001e 	bne	a0a4 <process_linear+0xd4>
    a028:	eeb70be0 	vcvt.f32.f64	s0, d16
    a02c:	eeb70ac0 	vcvt.f64.f32	d0, s0
    a030:	ee300b00 	vadd.f64	d0, d0, d0
    a034:	eefd7bc0 	vcvt.s32.f64	s15, d0
    a038:	ee176a90 	vmov	r6, s15
    a03c:	e3560000 	cmp	r6, #0
    a040:	ba000014 	blt	a098 <process_linear+0xc8>
    a044:	eeb88ae7 	vcvt.f32.s32	s16, s15
    a048:	e3a04000 	mov	r4, #0
    a04c:	ee074a90 	vmov	s15, r4
    a050:	ed956a00 	vldr	s12, [r5]
    a054:	e1a00007 	mov	r0, r7
    a058:	edd56a01 	vldr	s13, [r5, #4]
    a05c:	e2844001 	add	r4, r4, #1
    a060:	ed957a02 	vldr	s14, [r5, #8]
    a064:	eef87ae7 	vcvt.f32.s32	s15, s15
    a068:	ee285aa7 	vmul.f32	s10, s17, s15
    a06c:	ee695a27 	vmul.f32	s11, s18, s15
    a070:	ee697aa7 	vmul.f32	s15, s19, s15
    a074:	ee850a08 	vdiv.f32	s0, s10, s16
    a078:	eec50a88 	vdiv.f32	s1, s11, s16
    a07c:	ee300a06 	vadd.f32	s0, s0, s12
    a080:	ee871a88 	vdiv.f32	s2, s15, s16
    a084:	ee700aa6 	vadd.f32	s1, s1, s13
    a088:	ee311a07 	vadd.f32	s2, s2, s14
    a08c:	ebffff32 	bl	9d5c <insert>
    a090:	e1560004 	cmp	r6, r4
    a094:	aaffffec 	bge	a04c <process_linear+0x7c>
    a098:	e28dd014 	add	sp, sp, #20
    a09c:	ecbd8b04 	vpop	{d8-d9}
    a0a0:	e8bd80f0 	pop	{r4, r5, r6, r7, pc}
    a0a4:	eb002903 	bl	144b8 <sqrt>
    a0a8:	eef00b40 	vmov.f64	d16, d0
    a0ac:	eaffffdd 	b	a028 <process_linear+0x58>

0000a0b0 <process_circular>:
    a0b0:	e92d41f0 	push	{r4, r5, r6, r7, r8, lr}
    a0b4:	e1a05001 	mov	r5, r1
    a0b8:	ed2d8b0c 	vpush	{d8-d13}
    a0bc:	ed927a01 	vldr	s14, [r2, #4]
    a0c0:	e24dd010 	sub	sp, sp, #16
    a0c4:	ed91aa01 	vldr	s20, [r1, #4]
    a0c8:	e1a04002 	mov	r4, r2
    a0cc:	edd27a00 	vldr	s15, [r2]
    a0d0:	e1a08000 	mov	r8, r0
    a0d4:	ee3aaa47 	vsub.f32	s20, s20, s14
    a0d8:	e1a07003 	mov	r7, r3
    a0dc:	edd18a00 	vldr	s17, [r1]
    a0e0:	eeb08a40 	vmov.f32	s16, s0
    a0e4:	ee788ae7 	vsub.f32	s17, s17, s15
    a0e8:	ee2a0a0a 	vmul.f32	s0, s20, s20
    a0ec:	edd17a02 	vldr	s15, [r1, #8]
    a0f0:	ed927a02 	vldr	s14, [r2, #8]
    a0f4:	eea80aa8 	vfma.f32	s0, s17, s17
    a0f8:	ee777ac7 	vsub.f32	s15, s15, s14
    a0fc:	eea70aa7 	vfma.f32	s0, s15, s15
    a100:	eef70ac0 	vcvt.f64.f32	d16, s0
    a104:	eeb10be0 	vsqrt.f64	d0, d16
    a108:	eeb40b40 	vcmp.f64	d0, d0
    a10c:	eef1fa10 	vmrs	APSR_nzcv, fpscr
    a110:	1a000052 	bne	a260 <process_circular+0x1b0>
    a114:	eeb7cbc0 	vcvt.f32.f64	s24, d0
    a118:	eeb60b00 	vmov.f64	d0, #96	; 0x3f000000  0.5
    a11c:	eeb79ac8 	vcvt.f64.f32	d9, s16
    a120:	eef70acc 	vcvt.f64.f32	d16, s24
    a124:	ee200b80 	vmul.f64	d0, d16, d0
    a128:	ee800b09 	vdiv.f64	d0, d0, d9
    a12c:	eb002899 	bl	14398 <asin>
    a130:	eef67a00 	vmov.f32	s15, #96	; 0x3f000000  0.5
    a134:	ee300b00 	vadd.f64	d0, d0, d0
    a138:	edd5ca00 	vldr	s25, [r5]
    a13c:	ee6c7a27 	vmul.f32	s15, s24, s15
    a140:	ed941a00 	vldr	s2, [r4]
    a144:	eef7abc0 	vcvt.f32.f64	s21, d0
    a148:	edd5ba01 	vldr	s23, [r5, #4]
    a14c:	ee677ae7 	vnmul.f32	s15, s15, s15
    a150:	ed947a01 	vldr	s14, [r4, #4]
    a154:	ee7cca81 	vadd.f32	s25, s25, s2
    a158:	ee7bba87 	vadd.f32	s23, s23, s14
    a15c:	eee87a08 	vfma.f32	s15, s16, s16
    a160:	eef70ae7 	vcvt.f64.f32	d16, s15
    a164:	eeb10be0 	vsqrt.f64	d0, d16
    a168:	eeb40b40 	vcmp.f64	d0, d0
    a16c:	eef1fa10 	vmrs	APSR_nzcv, fpscr
    a170:	1a00003d 	bne	a26c <process_circular+0x1bc>
    a174:	ee077a90 	vmov	s15, r7
    a178:	eeb70bc0 	vcvt.f32.f64	s0, d0
    a17c:	ee288a2a 	vmul.f32	s16, s16, s21
    a180:	eef66a00 	vmov.f32	s13, #96	; 0x3f000000  0.5
    a184:	eef87ae7 	vcvt.f32.s32	s15, s15
    a188:	eef70ac8 	vcvt.f64.f32	d16, s16
    a18c:	ee677a80 	vmul.f32	s15, s15, s0
    a190:	ee700ba0 	vadd.f64	d16, d16, d16
    a194:	ee2aaa27 	vmul.f32	s20, s20, s15
    a198:	ee688aa7 	vmul.f32	s17, s17, s15
    a19c:	eefd7be0 	vcvt.s32.f64	s15, d16
    a1a0:	ee8aba0c 	vdiv.f32	s22, s20, s24
    a1a4:	ee176a90 	vmov	r6, s15
    a1a8:	eef87ae7 	vcvt.f32.s32	s15, s15
    a1ac:	ee88aa8c 	vdiv.f32	s20, s17, s24
    a1b0:	eeacbaa6 	vfma.f32	s22, s25, s13
    a1b4:	ee311a4b 	vsub.f32	s2, s2, s22
    a1b8:	eeb71ac1 	vcvt.f64.f32	d1, s2
    a1bc:	ee8adaa7 	vdiv.f32	s26, s21, s15
    a1c0:	ee9baaa6 	vfnms.f32	s20, s23, s13
    a1c4:	ee370a4a 	vsub.f32	s0, s14, s20
    a1c8:	eeb70ac0 	vcvt.f64.f32	d0, s0
    a1cc:	eb0028b4 	bl	144a4 <atan2>
    a1d0:	eef7dbc0 	vcvt.f32.f64	s27, d0
    a1d4:	e3560000 	cmp	r6, #0
    a1d8:	ba00001d 	blt	a254 <process_circular+0x1a4>
    a1dc:	eeb1da4d 	vneg.f32	s26, s26
    a1e0:	e3a04000 	mov	r4, #0
    a1e4:	eeb7bacb 	vcvt.f64.f32	d11, s22
    a1e8:	e1a05004 	mov	r5, r4
    a1ec:	eeb7aaca 	vcvt.f64.f32	d10, s20
    a1f0:	f280c010 	vmov.i32	d12, #0	; 0x00000000
    a1f4:	ee074a90 	vmov	s15, r4
    a1f8:	eeb08a6d 	vmov.f32	s16, s27
    a1fc:	e2855001 	add	r5, r5, #1
    a200:	ed8dcb02 	vstr	d12, [sp, #8]
    a204:	eef87ae7 	vcvt.f32.s32	s15, s15
    a208:	e0844007 	add	r4, r4, r7
    a20c:	eead8a27 	vfma.f32	s16, s26, s15
    a210:	eeb78ac8 	vcvt.f64.f32	d8, s16
    a214:	eeb00b48 	vmov.f64	d0, d8
    a218:	eb0027d0 	bl	14160 <cos>
    a21c:	eef00b4b 	vmov.f64	d16, d11
    a220:	eee90b00 	vfma.f64	d16, d9, d0
    a224:	eeb00b48 	vmov.f64	d0, d8
    a228:	eeb78be0 	vcvt.f32.f64	s16, d16
    a22c:	eb0027ff 	bl	14230 <sin>
    a230:	eef00b4a 	vmov.f64	d16, d10
    a234:	e1a00008 	mov	r0, r8
    a238:	ed9d1a03 	vldr	s2, [sp, #12]
    a23c:	eee90b00 	vfma.f64	d16, d9, d0
    a240:	eeb00a48 	vmov.f32	s0, s16
    a244:	eef70be0 	vcvt.f32.f64	s1, d16
    a248:	ebfffec3 	bl	9d5c <insert>
    a24c:	e1560005 	cmp	r6, r5
    a250:	aaffffe7 	bge	a1f4 <process_circular+0x144>
    a254:	e28dd010 	add	sp, sp, #16
    a258:	ecbd8b0c 	vpop	{d8-d13}
    a25c:	e8bd81f0 	pop	{r4, r5, r6, r7, r8, pc}
    a260:	eeb00b60 	vmov.f64	d0, d16
    a264:	eb002893 	bl	144b8 <sqrt>
    a268:	eaffffa9 	b	a114 <process_circular+0x64>
    a26c:	eeb00b60 	vmov.f64	d0, d16
    a270:	eb002890 	bl	144b8 <sqrt>
    a274:	ed941a00 	vldr	s2, [r4]
    a278:	ed947a01 	vldr	s14, [r4, #4]
    a27c:	eaffffbc 	b	a174 <process_circular+0xc4>

0000a280 <read_file>:
    a280:	e30614ac 	movw	r1, #25772	; 0x64ac
    a284:	e92d4010 	push	{r4, lr}
    a288:	e3401001 	movt	r1, #1
    a28c:	e24ddc01 	sub	sp, sp, #256	; 0x100
    a290:	eb00032f 	bl	af54 <fopen>
    a294:	e1a04000 	mov	r4, r0
    a298:	ea000000 	b	a2a0 <read_file+0x20>
    a29c:	eb0008e1 	bl	c628 <printf>
    a2a0:	e3a01c01 	mov	r1, #256	; 0x100
    a2a4:	e1a02004 	mov	r2, r4
    a2a8:	e1a0000d 	mov	r0, sp
    a2ac:	eb00020f 	bl	aaf0 <fgets>
    a2b0:	e3500000 	cmp	r0, #0
    a2b4:	e3060494 	movw	r0, #25748	; 0x6494
    a2b8:	e1a0100d 	mov	r1, sp
    a2bc:	e3400001 	movt	r0, #1
    a2c0:	1afffff5 	bne	a29c <read_file+0x1c>
    a2c4:	e1a00004 	mov	r0, r4
    a2c8:	eb000106 	bl	a6e8 <fclose>
    a2cc:	e28ddc01 	add	sp, sp, #256	; 0x100
    a2d0:	e8bd8010 	pop	{r4, pc}

0000a2d4 <FAIL>:
    a2d4:	e1a01000 	mov	r1, r0
    a2d8:	e3060660 	movw	r0, #26208	; 0x6660
    a2dc:	e3400001 	movt	r0, #1
    a2e0:	ea0008d0 	b	c628 <printf>

0000a2e4 <find_first>:
    a2e4:	e92d4070 	push	{r4, r5, r6, lr}
    a2e8:	e1a05002 	mov	r5, r2
    a2ec:	e1a04000 	mov	r4, r0
    a2f0:	eb000a21 	bl	cb7c <strchr>
    a2f4:	e0640000 	rsb	r0, r4, r0
    a2f8:	e1e03000 	mvn	r3, r0
    a2fc:	e5850000 	str	r0, [r5]
    a300:	e1a00fa3 	lsr	r0, r3, #31
    a304:	e8bd8070 	pop	{r4, r5, r6, pc}

0000a308 <read_float>:
    a308:	e5d1c000 	ldrb	ip, [r1]
    a30c:	e92d41f0 	push	{r4, r5, r6, r7, r8, lr}
    a310:	e7d0300c 	ldrb	r3, [r0, ip]
    a314:	e080600c 	add	r6, r0, ip
    a318:	e353002d 	cmp	r3, #45	; 0x2d
    a31c:	0a00004d 	beq	a458 <read_float+0x150>
    a320:	e353002b 	cmp	r3, #43	; 0x2b
    a324:	128c6001 	addne	r6, ip, #1
    a328:	13a07000 	movne	r7, #0
    a32c:	05d63001 	ldrbeq	r3, [r6, #1]
    a330:	03a07000 	moveq	r7, #0
    a334:	10806006 	addne	r6, r0, r6
    a338:	02866002 	addeq	r6, r6, #2
    a33c:	e3a0c000 	mov	ip, #0
    a340:	e1a0e00c 	mov	lr, ip
    a344:	e1a0500c 	mov	r5, ip
    a348:	e1a0400c 	mov	r4, ip
    a34c:	ea00000a 	b	a37c <read_float+0x74>
    a350:	e28ee001 	add	lr, lr, #1
    a354:	e6efe07e 	uxtb	lr, lr
    a358:	e35e0008 	cmp	lr, #8
    a35c:	8a000012 	bhi	a3ac <read_float+0xa4>
    a360:	e1a08104 	lsl	r8, r4, #2
    a364:	e35c0000 	cmp	ip, #0
    a368:	e0884004 	add	r4, r8, r4
    a36c:	12455001 	subne	r5, r5, #1
    a370:	16af5075 	sxtbne	r5, r5
    a374:	e0834084 	add	r4, r3, r4, lsl #1
    a378:	e4d63001 	ldrb	r3, [r6], #1
    a37c:	e2433030 	sub	r3, r3, #48	; 0x30
    a380:	e6ef3073 	uxtb	r3, r3
    a384:	e3530009 	cmp	r3, #9
    a388:	9afffff0 	bls	a350 <read_float+0x48>
    a38c:	e22cc001 	eor	ip, ip, #1
    a390:	e35300fe 	cmp	r3, #254	; 0xfe
    a394:	13a03000 	movne	r3, #0
    a398:	020c3001 	andeq	r3, ip, #1
    a39c:	e3530000 	cmp	r3, #0
    a3a0:	0a000006 	beq	a3c0 <read_float+0xb8>
    a3a4:	e3a0c001 	mov	ip, #1
    a3a8:	eafffff2 	b	a378 <read_float+0x70>
    a3ac:	e35c0000 	cmp	ip, #0
    a3b0:	1afffffb 	bne	a3a4 <read_float+0x9c>
    a3b4:	e2855001 	add	r5, r5, #1
    a3b8:	e6af5075 	sxtb	r5, r5
    a3bc:	eaffffed 	b	a378 <read_float+0x70>
    a3c0:	e35e0000 	cmp	lr, #0
    a3c4:	0a000021 	beq	a450 <read_float+0x148>
    a3c8:	ee074a90 	vmov	s15, r4
    a3cc:	eef87a67 	vcvt.f32.u32	s15, s15
    a3d0:	eef57a40 	vcmp.f32	s15, #0.0
    a3d4:	eef1fa10 	vmrs	APSR_nzcv, fpscr
    a3d8:	0a000014 	beq	a430 <read_float+0x128>
    a3dc:	e3750001 	cmn	r5, #1
    a3e0:	aa000007 	bge	a404 <read_float+0xfc>
    a3e4:	eddf1b25 	vldr	d17, [pc, #148]	; a480 <read_float+0x178>
    a3e8:	eef70ae7 	vcvt.f64.f32	d16, s15
    a3ec:	e2855002 	add	r5, r5, #2
    a3f0:	e6af5075 	sxtb	r5, r5
    a3f4:	e3750001 	cmn	r5, #1
    a3f8:	ee600ba1 	vmul.f64	d16, d16, d17
    a3fc:	eef77be0 	vcvt.f32.f64	s15, d16
    a400:	bafffff8 	blt	a3e8 <read_float+0xe0>
    a404:	e3750001 	cmn	r5, #1
    a408:	0a000016 	beq	a468 <read_float+0x160>
    a40c:	e3550000 	cmp	r5, #0
    a410:	0a000006 	beq	a430 <read_float+0x128>
    a414:	eeb27a04 	vmov.f32	s14, #36	; 0x41200000  10.0
    a418:	ee677a87 	vmul.f32	s15, s15, s14
    a41c:	e2455001 	sub	r5, r5, #1
    a420:	e6ef5075 	uxtb	r5, r5
    a424:	e3550000 	cmp	r5, #0
    a428:	e6af5075 	sxtb	r5, r5
    a42c:	1afffff9 	bne	a418 <read_float+0x110>
    a430:	e3570000 	cmp	r7, #0
    a434:	e0603006 	rsb	r3, r0, r6
    a438:	e2433001 	sub	r3, r3, #1
    a43c:	e3a00001 	mov	r0, #1
    a440:	1ef17a67 	vnegne.f32	s15, s15
    a444:	edc27a00 	vstr	s15, [r2]
    a448:	e5c13000 	strb	r3, [r1]
    a44c:	e8bd81f0 	pop	{r4, r5, r6, r7, r8, pc}
    a450:	e1a0000e 	mov	r0, lr
    a454:	e8bd81f0 	pop	{r4, r5, r6, r7, r8, pc}
    a458:	e5d63001 	ldrb	r3, [r6, #1]
    a45c:	e3a07001 	mov	r7, #1
    a460:	e2866002 	add	r6, r6, #2
    a464:	eaffffb4 	b	a33c <read_float+0x34>
    a468:	eef70ae7 	vcvt.f64.f32	d16, s15
    a46c:	eddf1b05 	vldr	d17, [pc, #20]	; a488 <read_float+0x180>
    a470:	ee600ba1 	vmul.f64	d16, d16, d17
    a474:	eef77be0 	vcvt.f32.f64	s15, d16
    a478:	eaffffec 	b	a430 <read_float+0x128>
    a47c:	e320f000 	nop	{0}
    a480:	47ae147b 			; <UNDEFINED> instruction: 0x47ae147b
    a484:	3f847ae1 	svccc	0x00847ae1
    a488:	9999999a 	ldmibls	r9, {r1, r3, r4, r7, r8, fp, ip, pc}
    a48c:	3fb99999 	svccc	0x00b99999

0000a490 <__aeabi_idiv>:
    a490:	e3510000 	cmp	r1, #0
    a494:	0a000043 	beq	a5a8 <.divsi3_skip_div0_test+0x110>

0000a498 <.divsi3_skip_div0_test>:
    a498:	e020c001 	eor	ip, r0, r1
    a49c:	42611000 	rsbmi	r1, r1, #0
    a4a0:	e2512001 	subs	r2, r1, #1
    a4a4:	0a000027 	beq	a548 <.divsi3_skip_div0_test+0xb0>
    a4a8:	e1b03000 	movs	r3, r0
    a4ac:	42603000 	rsbmi	r3, r0, #0
    a4b0:	e1530001 	cmp	r3, r1
    a4b4:	9a000026 	bls	a554 <.divsi3_skip_div0_test+0xbc>
    a4b8:	e1110002 	tst	r1, r2
    a4bc:	0a000028 	beq	a564 <.divsi3_skip_div0_test+0xcc>
    a4c0:	e311020e 	tst	r1, #-536870912	; 0xe0000000
    a4c4:	01a01181 	lsleq	r1, r1, #3
    a4c8:	03a02008 	moveq	r2, #8
    a4cc:	13a02001 	movne	r2, #1
    a4d0:	e3510201 	cmp	r1, #268435456	; 0x10000000
    a4d4:	31510003 	cmpcc	r1, r3
    a4d8:	31a01201 	lslcc	r1, r1, #4
    a4dc:	31a02202 	lslcc	r2, r2, #4
    a4e0:	3afffffa 	bcc	a4d0 <.divsi3_skip_div0_test+0x38>
    a4e4:	e3510102 	cmp	r1, #-2147483648	; 0x80000000
    a4e8:	31510003 	cmpcc	r1, r3
    a4ec:	31a01081 	lslcc	r1, r1, #1
    a4f0:	31a02082 	lslcc	r2, r2, #1
    a4f4:	3afffffa 	bcc	a4e4 <.divsi3_skip_div0_test+0x4c>
    a4f8:	e3a00000 	mov	r0, #0
    a4fc:	e1530001 	cmp	r3, r1
    a500:	20433001 	subcs	r3, r3, r1
    a504:	21800002 	orrcs	r0, r0, r2
    a508:	e15300a1 	cmp	r3, r1, lsr #1
    a50c:	204330a1 	subcs	r3, r3, r1, lsr #1
    a510:	218000a2 	orrcs	r0, r0, r2, lsr #1
    a514:	e1530121 	cmp	r3, r1, lsr #2
    a518:	20433121 	subcs	r3, r3, r1, lsr #2
    a51c:	21800122 	orrcs	r0, r0, r2, lsr #2
    a520:	e15301a1 	cmp	r3, r1, lsr #3
    a524:	204331a1 	subcs	r3, r3, r1, lsr #3
    a528:	218001a2 	orrcs	r0, r0, r2, lsr #3
    a52c:	e3530000 	cmp	r3, #0
    a530:	11b02222 	lsrsne	r2, r2, #4
    a534:	11a01221 	lsrne	r1, r1, #4
    a538:	1affffef 	bne	a4fc <.divsi3_skip_div0_test+0x64>
    a53c:	e35c0000 	cmp	ip, #0
    a540:	42600000 	rsbmi	r0, r0, #0
    a544:	e12fff1e 	bx	lr
    a548:	e13c0000 	teq	ip, r0
    a54c:	42600000 	rsbmi	r0, r0, #0
    a550:	e12fff1e 	bx	lr
    a554:	33a00000 	movcc	r0, #0
    a558:	01a00fcc 	asreq	r0, ip, #31
    a55c:	03800001 	orreq	r0, r0, #1
    a560:	e12fff1e 	bx	lr
    a564:	e3510801 	cmp	r1, #65536	; 0x10000
    a568:	21a01821 	lsrcs	r1, r1, #16
    a56c:	23a02010 	movcs	r2, #16
    a570:	33a02000 	movcc	r2, #0
    a574:	e3510c01 	cmp	r1, #256	; 0x100
    a578:	21a01421 	lsrcs	r1, r1, #8
    a57c:	22822008 	addcs	r2, r2, #8
    a580:	e3510010 	cmp	r1, #16
    a584:	21a01221 	lsrcs	r1, r1, #4
    a588:	22822004 	addcs	r2, r2, #4
    a58c:	e3510004 	cmp	r1, #4
    a590:	82822003 	addhi	r2, r2, #3
    a594:	908220a1 	addls	r2, r2, r1, lsr #1
    a598:	e35c0000 	cmp	ip, #0
    a59c:	e1a00233 	lsr	r0, r3, r2
    a5a0:	42600000 	rsbmi	r0, r0, #0
    a5a4:	e12fff1e 	bx	lr
    a5a8:	e3500000 	cmp	r0, #0
    a5ac:	c3e00102 	mvngt	r0, #-2147483648	; 0x80000000
    a5b0:	b3a00102 	movlt	r0, #-2147483648	; 0x80000000
    a5b4:	ea000007 	b	a5d8 <__aeabi_idiv0>

0000a5b8 <__aeabi_idivmod>:
    a5b8:	e3510000 	cmp	r1, #0
    a5bc:	0afffff9 	beq	a5a8 <.divsi3_skip_div0_test+0x110>
    a5c0:	e92d4003 	push	{r0, r1, lr}
    a5c4:	ebffffb3 	bl	a498 <.divsi3_skip_div0_test>
    a5c8:	e8bd4006 	pop	{r1, r2, lr}
    a5cc:	e0030092 	mul	r3, r2, r0
    a5d0:	e0411003 	sub	r1, r1, r3
    a5d4:	e12fff1e 	bx	lr

0000a5d8 <__aeabi_idiv0>:
    a5d8:	e12fff1e 	bx	lr

0000a5dc <__errno>:
    a5dc:	e59f3004 	ldr	r3, [pc, #4]	; a5e8 <__errno+0xc>
    a5e0:	e5930000 	ldr	r0, [r3]
    a5e4:	e12fff1e 	bx	lr
    a5e8:	00016fb8 			; <UNDEFINED> instruction: 0x00016fb8

0000a5ec <_fclose_r>:
    a5ec:	e3510000 	cmp	r1, #0
    a5f0:	0a00003a 	beq	a6e0 <_fclose_r+0xf4>
    a5f4:	e3500000 	cmp	r0, #0
    a5f8:	e92d4070 	push	{r4, r5, r6, lr}
    a5fc:	e1a06000 	mov	r6, r0
    a600:	e1a04001 	mov	r4, r1
    a604:	0a000002 	beq	a614 <_fclose_r+0x28>
    a608:	e5903038 	ldr	r3, [r0, #56]	; 0x38
    a60c:	e3530000 	cmp	r3, #0
    a610:	0a00002c 	beq	a6c8 <_fclose_r+0xdc>
    a614:	e1d430fc 	ldrsh	r3, [r4, #12]
    a618:	e3530000 	cmp	r3, #0
    a61c:	03a00000 	moveq	r0, #0
    a620:	1a000001 	bne	a62c <_fclose_r+0x40>
    a624:	e8bd4070 	pop	{r4, r5, r6, lr}
    a628:	e12fff1e 	bx	lr
    a62c:	e1a01004 	mov	r1, r4
    a630:	e1a00006 	mov	r0, r6
    a634:	eb000030 	bl	a6fc <__sflush_r>
    a638:	e594302c 	ldr	r3, [r4, #44]	; 0x2c
    a63c:	e3530000 	cmp	r3, #0
    a640:	e1a05000 	mov	r5, r0
    a644:	0a000005 	beq	a660 <_fclose_r+0x74>
    a648:	e594101c 	ldr	r1, [r4, #28]
    a64c:	e1a00006 	mov	r0, r6
    a650:	e1a0e00f 	mov	lr, pc
    a654:	e12fff13 	bx	r3
    a658:	e3500000 	cmp	r0, #0
    a65c:	b3e05000 	mvnlt	r5, #0
    a660:	e1d430bc 	ldrh	r3, [r4, #12]
    a664:	e3130080 	tst	r3, #128	; 0x80
    a668:	1a000018 	bne	a6d0 <_fclose_r+0xe4>
    a66c:	e5941030 	ldr	r1, [r4, #48]	; 0x30
    a670:	e3510000 	cmp	r1, #0
    a674:	0a000005 	beq	a690 <_fclose_r+0xa4>
    a678:	e2843040 	add	r3, r4, #64	; 0x40
    a67c:	e1510003 	cmp	r1, r3
    a680:	11a00006 	movne	r0, r6
    a684:	1b000278 	blne	b06c <_free_r>
    a688:	e3a03000 	mov	r3, #0
    a68c:	e5843030 	str	r3, [r4, #48]	; 0x30
    a690:	e5941044 	ldr	r1, [r4, #68]	; 0x44
    a694:	e3510000 	cmp	r1, #0
    a698:	0a000003 	beq	a6ac <_fclose_r+0xc0>
    a69c:	e1a00006 	mov	r0, r6
    a6a0:	eb000271 	bl	b06c <_free_r>
    a6a4:	e3a03000 	mov	r3, #0
    a6a8:	e5843044 	str	r3, [r4, #68]	; 0x44
    a6ac:	eb0001d4 	bl	ae04 <__sfp_lock_acquire>
    a6b0:	e3a03000 	mov	r3, #0
    a6b4:	e1c430bc 	strh	r3, [r4, #12]
    a6b8:	eb0001d2 	bl	ae08 <__sfp_lock_release>
    a6bc:	e1a00005 	mov	r0, r5
    a6c0:	e8bd4070 	pop	{r4, r5, r6, lr}
    a6c4:	e12fff1e 	bx	lr
    a6c8:	eb0001c9 	bl	adf4 <__sinit>
    a6cc:	eaffffd0 	b	a614 <_fclose_r+0x28>
    a6d0:	e5941010 	ldr	r1, [r4, #16]
    a6d4:	e1a00006 	mov	r0, r6
    a6d8:	eb000263 	bl	b06c <_free_r>
    a6dc:	eaffffe2 	b	a66c <_fclose_r+0x80>
    a6e0:	e3a00000 	mov	r0, #0
    a6e4:	e12fff1e 	bx	lr

0000a6e8 <fclose>:
    a6e8:	e59f3008 	ldr	r3, [pc, #8]	; a6f8 <fclose+0x10>
    a6ec:	e1a01000 	mov	r1, r0
    a6f0:	e5930000 	ldr	r0, [r3]
    a6f4:	eaffffbc 	b	a5ec <_fclose_r>
    a6f8:	00016fb8 			; <UNDEFINED> instruction: 0x00016fb8

0000a6fc <__sflush_r>:
    a6fc:	e1d130fc 	ldrsh	r3, [r1, #12]
    a700:	e1a02803 	lsl	r2, r3, #16
    a704:	e3120702 	tst	r2, #524288	; 0x80000
    a708:	e92d41f0 	push	{r4, r5, r6, r7, r8, lr}
    a70c:	e1a05001 	mov	r5, r1
    a710:	e1a07000 	mov	r7, r0
    a714:	1a000034 	bne	a7ec <__sflush_r+0xf0>
    a718:	e5912004 	ldr	r2, [r1, #4]
    a71c:	e3833b02 	orr	r3, r3, #2048	; 0x800
    a720:	e3520000 	cmp	r2, #0
    a724:	e1c130bc 	strh	r3, [r1, #12]
    a728:	da000050 	ble	a870 <__sflush_r+0x174>
    a72c:	e5954028 	ldr	r4, [r5, #40]	; 0x28
    a730:	e3540000 	cmp	r4, #0
    a734:	0a000050 	beq	a87c <__sflush_r+0x180>
    a738:	e3a02000 	mov	r2, #0
    a73c:	e1a03803 	lsl	r3, r3, #16
    a740:	e2030201 	and	r0, r3, #268435456	; 0x10000000
    a744:	e1b08820 	lsrs	r8, r0, #16
    a748:	e5976000 	ldr	r6, [r7]
    a74c:	e1a03823 	lsr	r3, r3, #16
    a750:	e5872000 	str	r2, [r7]
    a754:	0a00005f 	beq	a8d8 <__sflush_r+0x1dc>
    a758:	e5952050 	ldr	r2, [r5, #80]	; 0x50
    a75c:	e3130004 	tst	r3, #4
    a760:	0a000005 	beq	a77c <__sflush_r+0x80>
    a764:	e5951030 	ldr	r1, [r5, #48]	; 0x30
    a768:	e5953004 	ldr	r3, [r5, #4]
    a76c:	e3510000 	cmp	r1, #0
    a770:	e0632002 	rsb	r2, r3, r2
    a774:	1595303c 	ldrne	r3, [r5, #60]	; 0x3c
    a778:	10632002 	rsbne	r2, r3, r2
    a77c:	e3a03000 	mov	r3, #0
    a780:	e595101c 	ldr	r1, [r5, #28]
    a784:	e1a00007 	mov	r0, r7
    a788:	e1a0e00f 	mov	lr, pc
    a78c:	e12fff14 	bx	r4
    a790:	e3700001 	cmn	r0, #1
    a794:	0a00003b 	beq	a888 <__sflush_r+0x18c>
    a798:	e3a01000 	mov	r1, #0
    a79c:	e1d530fc 	ldrsh	r3, [r5, #12]
    a7a0:	e5952010 	ldr	r2, [r5, #16]
    a7a4:	e3c33b02 	bic	r3, r3, #2048	; 0x800
    a7a8:	e3130a01 	tst	r3, #4096	; 0x1000
    a7ac:	e1c530bc 	strh	r3, [r5, #12]
    a7b0:	e5851004 	str	r1, [r5, #4]
    a7b4:	e5852000 	str	r2, [r5]
    a7b8:	1a000044 	bne	a8d0 <__sflush_r+0x1d4>
    a7bc:	e5951030 	ldr	r1, [r5, #48]	; 0x30
    a7c0:	e3510000 	cmp	r1, #0
    a7c4:	e5876000 	str	r6, [r7]
    a7c8:	0a00002b 	beq	a87c <__sflush_r+0x180>
    a7cc:	e2853040 	add	r3, r5, #64	; 0x40
    a7d0:	e1510003 	cmp	r1, r3
    a7d4:	11a00007 	movne	r0, r7
    a7d8:	1b000223 	blne	b06c <_free_r>
    a7dc:	e3a00000 	mov	r0, #0
    a7e0:	e5850030 	str	r0, [r5, #48]	; 0x30
    a7e4:	e8bd41f0 	pop	{r4, r5, r6, r7, r8, lr}
    a7e8:	e12fff1e 	bx	lr
    a7ec:	e5916010 	ldr	r6, [r1, #16]
    a7f0:	e3560000 	cmp	r6, #0
    a7f4:	0a000020 	beq	a87c <__sflush_r+0x180>
    a7f8:	e1a02822 	lsr	r2, r2, #16
    a7fc:	e3120003 	tst	r2, #3
    a800:	13a03000 	movne	r3, #0
    a804:	e5914000 	ldr	r4, [r1]
    a808:	05913014 	ldreq	r3, [r1, #20]
    a80c:	e0664004 	rsb	r4, r6, r4
    a810:	e3540000 	cmp	r4, #0
    a814:	e5816000 	str	r6, [r1]
    a818:	e5813008 	str	r3, [r1, #8]
    a81c:	ca000003 	bgt	a830 <__sflush_r+0x134>
    a820:	ea000015 	b	a87c <__sflush_r+0x180>
    a824:	e3540000 	cmp	r4, #0
    a828:	e0866000 	add	r6, r6, r0
    a82c:	da000012 	ble	a87c <__sflush_r+0x180>
    a830:	e1a03004 	mov	r3, r4
    a834:	e1a02006 	mov	r2, r6
    a838:	e595101c 	ldr	r1, [r5, #28]
    a83c:	e1a00007 	mov	r0, r7
    a840:	e595c024 	ldr	ip, [r5, #36]	; 0x24
    a844:	e1a0e00f 	mov	lr, pc
    a848:	e12fff1c 	bx	ip
    a84c:	e3500000 	cmp	r0, #0
    a850:	e0604004 	rsb	r4, r0, r4
    a854:	cafffff2 	bgt	a824 <__sflush_r+0x128>
    a858:	e3e00000 	mvn	r0, #0
    a85c:	e1d530bc 	ldrh	r3, [r5, #12]
    a860:	e3833040 	orr	r3, r3, #64	; 0x40
    a864:	e1c530bc 	strh	r3, [r5, #12]
    a868:	e8bd41f0 	pop	{r4, r5, r6, r7, r8, lr}
    a86c:	e12fff1e 	bx	lr
    a870:	e591203c 	ldr	r2, [r1, #60]	; 0x3c
    a874:	e3520000 	cmp	r2, #0
    a878:	caffffab 	bgt	a72c <__sflush_r+0x30>
    a87c:	e3a00000 	mov	r0, #0
    a880:	e8bd41f0 	pop	{r4, r5, r6, r7, r8, lr}
    a884:	e12fff1e 	bx	lr
    a888:	e5971000 	ldr	r1, [r7]
    a88c:	e351001d 	cmp	r1, #29
    a890:	8afffff0 	bhi	a858 <__sflush_r+0x15c>
    a894:	e59f309c 	ldr	r3, [pc, #156]	; a938 <__sflush_r+0x23c>
    a898:	e1a03133 	lsr	r3, r3, r1
    a89c:	e2033001 	and	r3, r3, #1
    a8a0:	e2333001 	eors	r3, r3, #1
    a8a4:	1affffeb 	bne	a858 <__sflush_r+0x15c>
    a8a8:	e1d520fc 	ldrsh	r2, [r5, #12]
    a8ac:	e595c010 	ldr	ip, [r5, #16]
    a8b0:	e3c22b02 	bic	r2, r2, #2048	; 0x800
    a8b4:	e3120a01 	tst	r2, #4096	; 0x1000
    a8b8:	e5853004 	str	r3, [r5, #4]
    a8bc:	e1c520bc 	strh	r2, [r5, #12]
    a8c0:	e585c000 	str	ip, [r5]
    a8c4:	0affffbc 	beq	a7bc <__sflush_r+0xc0>
    a8c8:	e3510000 	cmp	r1, #0
    a8cc:	1affffba 	bne	a7bc <__sflush_r+0xc0>
    a8d0:	e5850050 	str	r0, [r5, #80]	; 0x50
    a8d4:	eaffffb8 	b	a7bc <__sflush_r+0xc0>
    a8d8:	e1a02008 	mov	r2, r8
    a8dc:	e3a03001 	mov	r3, #1
    a8e0:	e595101c 	ldr	r1, [r5, #28]
    a8e4:	e1a00007 	mov	r0, r7
    a8e8:	e1a0e00f 	mov	lr, pc
    a8ec:	e12fff14 	bx	r4
    a8f0:	e3700001 	cmn	r0, #1
    a8f4:	e1a02000 	mov	r2, r0
    a8f8:	0a000002 	beq	a908 <__sflush_r+0x20c>
    a8fc:	e1d530bc 	ldrh	r3, [r5, #12]
    a900:	e5954028 	ldr	r4, [r5, #40]	; 0x28
    a904:	eaffff94 	b	a75c <__sflush_r+0x60>
    a908:	e5973000 	ldr	r3, [r7]
    a90c:	e3530000 	cmp	r3, #0
    a910:	0afffff9 	beq	a8fc <__sflush_r+0x200>
    a914:	e3530016 	cmp	r3, #22
    a918:	1353001d 	cmpne	r3, #29
    a91c:	11d530bc 	ldrhne	r3, [r5, #12]
    a920:	13833040 	orrne	r3, r3, #64	; 0x40
    a924:	05876000 	streq	r6, [r7]
    a928:	01a00008 	moveq	r0, r8
    a92c:	11a00002 	movne	r0, r2
    a930:	11c530bc 	strhne	r3, [r5, #12]
    a934:	eaffffcb 	b	a868 <__sflush_r+0x16c>
    a938:	20400001 	subcs	r0, r0, r1

0000a93c <_fflush_r>:
    a93c:	e92d4010 	push	{r4, lr}
    a940:	e2504000 	subs	r4, r0, #0
    a944:	e24dd008 	sub	sp, sp, #8
    a948:	0a000002 	beq	a958 <_fflush_r+0x1c>
    a94c:	e5943038 	ldr	r3, [r4, #56]	; 0x38
    a950:	e3530000 	cmp	r3, #0
    a954:	0a000009 	beq	a980 <_fflush_r+0x44>
    a958:	e1d100fc 	ldrsh	r0, [r1, #12]
    a95c:	e3500000 	cmp	r0, #0
    a960:	1a000002 	bne	a970 <_fflush_r+0x34>
    a964:	e28dd008 	add	sp, sp, #8
    a968:	e8bd4010 	pop	{r4, lr}
    a96c:	e12fff1e 	bx	lr
    a970:	e1a00004 	mov	r0, r4
    a974:	e28dd008 	add	sp, sp, #8
    a978:	e8bd4010 	pop	{r4, lr}
    a97c:	eaffff5e 	b	a6fc <__sflush_r>
    a980:	e58d1004 	str	r1, [sp, #4]
    a984:	eb00011a 	bl	adf4 <__sinit>
    a988:	e59d1004 	ldr	r1, [sp, #4]
    a98c:	eafffff1 	b	a958 <_fflush_r+0x1c>

0000a990 <fflush>:
    a990:	e2501000 	subs	r1, r0, #0
    a994:	159f3020 	ldrne	r3, [pc, #32]	; a9bc <fflush+0x2c>
    a998:	15930000 	ldrne	r0, [r3]
    a99c:	1affffe6 	bne	a93c <_fflush_r>
    a9a0:	e92d4010 	push	{r4, lr}
    a9a4:	e59f3014 	ldr	r3, [pc, #20]	; a9c0 <fflush+0x30>
    a9a8:	e59f1014 	ldr	r1, [pc, #20]	; a9c4 <fflush+0x34>
    a9ac:	e5930000 	ldr	r0, [r3]
    a9b0:	eb0003d1 	bl	b8fc <_fwalk_reent>
    a9b4:	e8bd4010 	pop	{r4, lr}
    a9b8:	e12fff1e 	bx	lr
    a9bc:	00016fb8 			; <UNDEFINED> instruction: 0x00016fb8
    a9c0:	000166e0 	andeq	r6, r1, r0, ror #13
    a9c4:	0000a93c 	andeq	sl, r0, ip, lsr r9

0000a9c8 <_fgets_r>:
    a9c8:	e3520001 	cmp	r2, #1
    a9cc:	da000045 	ble	aae8 <_fgets_r+0x120>
    a9d0:	e3500000 	cmp	r0, #0
    a9d4:	e92d47f0 	push	{r4, r5, r6, r7, r8, r9, sl, lr}
    a9d8:	e1a08000 	mov	r8, r0
    a9dc:	e1a05003 	mov	r5, r3
    a9e0:	e1a09001 	mov	r9, r1
    a9e4:	e1a06002 	mov	r6, r2
    a9e8:	0a000002 	beq	a9f8 <_fgets_r+0x30>
    a9ec:	e5903038 	ldr	r3, [r0, #56]	; 0x38
    a9f0:	e3530000 	cmp	r3, #0
    a9f4:	0a000037 	beq	aad8 <_fgets_r+0x110>
    a9f8:	e1a07009 	mov	r7, r9
    a9fc:	e2466001 	sub	r6, r6, #1
    aa00:	ea000015 	b	aa5c <_fgets_r+0x94>
    aa04:	e1540006 	cmp	r4, r6
    aa08:	21a04006 	movcs	r4, r6
    aa0c:	e595a000 	ldr	sl, [r5]
    aa10:	e1a02004 	mov	r2, r4
    aa14:	e1a0000a 	mov	r0, sl
    aa18:	e3a0100a 	mov	r1, #10
    aa1c:	eb000622 	bl	c2ac <memchr>
    aa20:	e3500000 	cmp	r0, #0
    aa24:	1a00001c 	bne	aa9c <_fgets_r+0xd4>
    aa28:	e5952004 	ldr	r2, [r5, #4]
    aa2c:	e5953000 	ldr	r3, [r5]
    aa30:	e0642002 	rsb	r2, r4, r2
    aa34:	e0833004 	add	r3, r3, r4
    aa38:	e5852004 	str	r2, [r5, #4]
    aa3c:	e1a00007 	mov	r0, r7
    aa40:	e1a0100a 	mov	r1, sl
    aa44:	e5853000 	str	r3, [r5]
    aa48:	e1a02004 	mov	r2, r4
    aa4c:	eb00065b 	bl	c3c0 <memcpy>
    aa50:	e0566004 	subs	r6, r6, r4
    aa54:	e0877004 	add	r7, r7, r4
    aa58:	0a00000a 	beq	aa88 <_fgets_r+0xc0>
    aa5c:	e5954004 	ldr	r4, [r5, #4]
    aa60:	e3540000 	cmp	r4, #0
    aa64:	1affffe6 	bne	aa04 <_fgets_r+0x3c>
    aa68:	e1a01005 	mov	r1, r5
    aa6c:	e1a00008 	mov	r0, r8
    aa70:	eb00077e 	bl	c870 <__srefill_r>
    aa74:	e3500000 	cmp	r0, #0
    aa78:	05954004 	ldreq	r4, [r5, #4]
    aa7c:	0affffe0 	beq	aa04 <_fgets_r+0x3c>
    aa80:	e1570009 	cmp	r7, r9
    aa84:	0a000015 	beq	aae0 <_fgets_r+0x118>
    aa88:	e3a03000 	mov	r3, #0
    aa8c:	e1a00009 	mov	r0, r9
    aa90:	e5c73000 	strb	r3, [r7]
    aa94:	e8bd47f0 	pop	{r4, r5, r6, r7, r8, r9, sl, lr}
    aa98:	e12fff1e 	bx	lr
    aa9c:	e5953004 	ldr	r3, [r5, #4]
    aaa0:	e2800001 	add	r0, r0, #1
    aaa4:	e06a4000 	rsb	r4, sl, r0
    aaa8:	e0643003 	rsb	r3, r4, r3
    aaac:	e5850000 	str	r0, [r5]
    aab0:	e5853004 	str	r3, [r5, #4]
    aab4:	e1a0100a 	mov	r1, sl
    aab8:	e1a02004 	mov	r2, r4
    aabc:	e1a00007 	mov	r0, r7
    aac0:	eb00063e 	bl	c3c0 <memcpy>
    aac4:	e3a03000 	mov	r3, #0
    aac8:	e7c73004 	strb	r3, [r7, r4]
    aacc:	e1a00009 	mov	r0, r9
    aad0:	e8bd47f0 	pop	{r4, r5, r6, r7, r8, r9, sl, lr}
    aad4:	e12fff1e 	bx	lr
    aad8:	eb0000c5 	bl	adf4 <__sinit>
    aadc:	eaffffc5 	b	a9f8 <_fgets_r+0x30>
    aae0:	e3a00000 	mov	r0, #0
    aae4:	eaffffea 	b	aa94 <_fgets_r+0xcc>
    aae8:	e3a00000 	mov	r0, #0
    aaec:	e12fff1e 	bx	lr

0000aaf0 <fgets>:
    aaf0:	e59fc010 	ldr	ip, [pc, #16]	; ab08 <fgets+0x18>
    aaf4:	e1a03002 	mov	r3, r2
    aaf8:	e1a02001 	mov	r2, r1
    aafc:	e1a01000 	mov	r1, r0
    ab00:	e59c0000 	ldr	r0, [ip]
    ab04:	eaffffaf 	b	a9c8 <_fgets_r>
    ab08:	00016fb8 			; <UNDEFINED> instruction: 0x00016fb8

0000ab0c <__fp_unlock>:
    ab0c:	e3a00000 	mov	r0, #0
    ab10:	e12fff1e 	bx	lr

0000ab14 <_cleanup_r>:
    ab14:	e92d4010 	push	{r4, lr}
    ab18:	e59f1008 	ldr	r1, [pc, #8]	; ab28 <_cleanup_r+0x14>
    ab1c:	eb000376 	bl	b8fc <_fwalk_reent>
    ab20:	e8bd4010 	pop	{r4, lr}
    ab24:	e12fff1e 	bx	lr
    ab28:	0000a5ec 	andeq	sl, r0, ip, ror #11

0000ab2c <__sinit.part.1>:
    ab2c:	e92d4ff0 	push	{r4, r5, r6, r7, r8, r9, sl, fp, lr}
    ab30:	e1a07000 	mov	r7, r0
    ab34:	e3a04000 	mov	r4, #0
    ab38:	e3a03004 	mov	r3, #4
    ab3c:	e3a01003 	mov	r1, #3
    ab40:	e5975004 	ldr	r5, [r7, #4]
    ab44:	e59f012c 	ldr	r0, [pc, #300]	; ac78 <__sinit.part.1+0x14c>
    ab48:	e2872fbb 	add	r2, r7, #748	; 0x2ec
    ab4c:	e587003c 	str	r0, [r7, #60]	; 0x3c
    ab50:	e58712e4 	str	r1, [r7, #740]	; 0x2e4
    ab54:	e58722e8 	str	r2, [r7, #744]	; 0x2e8
    ab58:	e58742e0 	str	r4, [r7, #736]	; 0x2e0
    ab5c:	e24dd00c 	sub	sp, sp, #12
    ab60:	e5854000 	str	r4, [r5]
    ab64:	e5854004 	str	r4, [r5, #4]
    ab68:	e5854008 	str	r4, [r5, #8]
    ab6c:	e5854064 	str	r4, [r5, #100]	; 0x64
    ab70:	e1c540be 	strh	r4, [r5, #14]
    ab74:	e5854010 	str	r4, [r5, #16]
    ab78:	e5854014 	str	r4, [r5, #20]
    ab7c:	e5854018 	str	r4, [r5, #24]
    ab80:	e1c530bc 	strh	r3, [r5, #12]
    ab84:	e1a01004 	mov	r1, r4
    ab88:	e285005c 	add	r0, r5, #92	; 0x5c
    ab8c:	e3a02008 	mov	r2, #8
    ab90:	eb000646 	bl	c4b0 <memset>
    ab94:	e3a03001 	mov	r3, #1
    ab98:	e3a02009 	mov	r2, #9
    ab9c:	e5976008 	ldr	r6, [r7, #8]
    aba0:	e59fb0d4 	ldr	fp, [pc, #212]	; ac7c <__sinit.part.1+0x150>
    aba4:	e59fa0d4 	ldr	sl, [pc, #212]	; ac80 <__sinit.part.1+0x154>
    aba8:	e59f90d4 	ldr	r9, [pc, #212]	; ac84 <__sinit.part.1+0x158>
    abac:	e59f80d4 	ldr	r8, [pc, #212]	; ac88 <__sinit.part.1+0x15c>
    abb0:	e585b020 	str	fp, [r5, #32]
    abb4:	e585a024 	str	sl, [r5, #36]	; 0x24
    abb8:	e5859028 	str	r9, [r5, #40]	; 0x28
    abbc:	e585802c 	str	r8, [r5, #44]	; 0x2c
    abc0:	e585501c 	str	r5, [r5, #28]
    abc4:	e1a01004 	mov	r1, r4
    abc8:	e1c630be 	strh	r3, [r6, #14]
    abcc:	e1c620bc 	strh	r2, [r6, #12]
    abd0:	e286005c 	add	r0, r6, #92	; 0x5c
    abd4:	e5864000 	str	r4, [r6]
    abd8:	e5864004 	str	r4, [r6, #4]
    abdc:	e5864008 	str	r4, [r6, #8]
    abe0:	e5864064 	str	r4, [r6, #100]	; 0x64
    abe4:	e5864010 	str	r4, [r6, #16]
    abe8:	e5864014 	str	r4, [r6, #20]
    abec:	e5864018 	str	r4, [r6, #24]
    abf0:	e3a02008 	mov	r2, #8
    abf4:	e58d3004 	str	r3, [sp, #4]
    abf8:	eb00062c 	bl	c4b0 <memset>
    abfc:	e3a00012 	mov	r0, #18
    ac00:	e3a02002 	mov	r2, #2
    ac04:	e597500c 	ldr	r5, [r7, #12]
    ac08:	e1a01004 	mov	r1, r4
    ac0c:	e586601c 	str	r6, [r6, #28]
    ac10:	e586b020 	str	fp, [r6, #32]
    ac14:	e586a024 	str	sl, [r6, #36]	; 0x24
    ac18:	e5869028 	str	r9, [r6, #40]	; 0x28
    ac1c:	e586802c 	str	r8, [r6, #44]	; 0x2c
    ac20:	e1c500bc 	strh	r0, [r5, #12]
    ac24:	e1c520be 	strh	r2, [r5, #14]
    ac28:	e5854000 	str	r4, [r5]
    ac2c:	e5854004 	str	r4, [r5, #4]
    ac30:	e5854008 	str	r4, [r5, #8]
    ac34:	e5854064 	str	r4, [r5, #100]	; 0x64
    ac38:	e5854010 	str	r4, [r5, #16]
    ac3c:	e5854014 	str	r4, [r5, #20]
    ac40:	e5854018 	str	r4, [r5, #24]
    ac44:	e285005c 	add	r0, r5, #92	; 0x5c
    ac48:	e3a02008 	mov	r2, #8
    ac4c:	eb000617 	bl	c4b0 <memset>
    ac50:	e59d3004 	ldr	r3, [sp, #4]
    ac54:	e585501c 	str	r5, [r5, #28]
    ac58:	e585b020 	str	fp, [r5, #32]
    ac5c:	e585a024 	str	sl, [r5, #36]	; 0x24
    ac60:	e5859028 	str	r9, [r5, #40]	; 0x28
    ac64:	e585802c 	str	r8, [r5, #44]	; 0x2c
    ac68:	e5873038 	str	r3, [r7, #56]	; 0x38
    ac6c:	e28dd00c 	add	sp, sp, #12
    ac70:	e8bd4ff0 	pop	{r4, r5, r6, r7, r8, r9, sl, fp, lr}
    ac74:	e12fff1e 	bx	lr
    ac78:	0000ab14 	andeq	sl, r0, r4, lsl fp
    ac7c:	0000caa4 	andeq	ip, r0, r4, lsr #21
    ac80:	0000cae0 	andeq	ip, r0, r0, ror #21
    ac84:	0000cb38 	andeq	ip, r0, r8, lsr fp
    ac88:	0000cb68 	andeq	ip, r0, r8, ror #22

0000ac8c <__fp_lock>:
    ac8c:	e3a00000 	mov	r0, #0
    ac90:	e12fff1e 	bx	lr

0000ac94 <__sfmoreglue>:
    ac94:	e2413001 	sub	r3, r1, #1
    ac98:	e92d4070 	push	{r4, r5, r6, lr}
    ac9c:	e0834083 	add	r4, r3, r3, lsl #1
    aca0:	e0833104 	add	r3, r3, r4, lsl #2
    aca4:	e1a04183 	lsl	r4, r3, #3
    aca8:	e1a06001 	mov	r6, r1
    acac:	e2841074 	add	r1, r4, #116	; 0x74
    acb0:	eb000393 	bl	bb04 <_malloc_r>
    acb4:	e2505000 	subs	r5, r0, #0
    acb8:	0a000006 	beq	acd8 <__sfmoreglue+0x44>
    acbc:	e3a01000 	mov	r1, #0
    acc0:	e285000c 	add	r0, r5, #12
    acc4:	e5856004 	str	r6, [r5, #4]
    acc8:	e2842068 	add	r2, r4, #104	; 0x68
    accc:	e5851000 	str	r1, [r5]
    acd0:	e5850008 	str	r0, [r5, #8]
    acd4:	eb0005f5 	bl	c4b0 <memset>
    acd8:	e1a00005 	mov	r0, r5
    acdc:	e8bd4070 	pop	{r4, r5, r6, lr}
    ace0:	e12fff1e 	bx	lr

0000ace4 <__sfp>:
    ace4:	e59f30e0 	ldr	r3, [pc, #224]	; adcc <__sfp+0xe8>
    ace8:	e92d4070 	push	{r4, r5, r6, lr}
    acec:	e5935000 	ldr	r5, [r3]
    acf0:	e5953038 	ldr	r3, [r5, #56]	; 0x38
    acf4:	e3530000 	cmp	r3, #0
    acf8:	e1a06000 	mov	r6, r0
    acfc:	01a00005 	moveq	r0, r5
    ad00:	0bffff89 	bleq	ab2c <__sinit.part.1>
    ad04:	e2855e2e 	add	r5, r5, #736	; 0x2e0
    ad08:	e5953004 	ldr	r3, [r5, #4]
    ad0c:	e2533001 	subs	r3, r3, #1
    ad10:	e5954008 	ldr	r4, [r5, #8]
    ad14:	5a000004 	bpl	ad2c <__sfp+0x48>
    ad18:	ea00001d 	b	ad94 <__sfp+0xb0>
    ad1c:	e2433001 	sub	r3, r3, #1
    ad20:	e3730001 	cmn	r3, #1
    ad24:	e2844068 	add	r4, r4, #104	; 0x68
    ad28:	0a000019 	beq	ad94 <__sfp+0xb0>
    ad2c:	e1d420fc 	ldrsh	r2, [r4, #12]
    ad30:	e3520000 	cmp	r2, #0
    ad34:	1afffff8 	bne	ad1c <__sfp+0x38>
    ad38:	e3a05000 	mov	r5, #0
    ad3c:	e3e02000 	mvn	r2, #0
    ad40:	e3a03001 	mov	r3, #1
    ad44:	e1c420be 	strh	r2, [r4, #14]
    ad48:	e1c430bc 	strh	r3, [r4, #12]
    ad4c:	e5845064 	str	r5, [r4, #100]	; 0x64
    ad50:	e5845000 	str	r5, [r4]
    ad54:	e5845008 	str	r5, [r4, #8]
    ad58:	e5845004 	str	r5, [r4, #4]
    ad5c:	e5845010 	str	r5, [r4, #16]
    ad60:	e5845014 	str	r5, [r4, #20]
    ad64:	e5845018 	str	r5, [r4, #24]
    ad68:	e1a01005 	mov	r1, r5
    ad6c:	e3a02008 	mov	r2, #8
    ad70:	e284005c 	add	r0, r4, #92	; 0x5c
    ad74:	eb0005cd 	bl	c4b0 <memset>
    ad78:	e1a00004 	mov	r0, r4
    ad7c:	e5845030 	str	r5, [r4, #48]	; 0x30
    ad80:	e5845034 	str	r5, [r4, #52]	; 0x34
    ad84:	e5845044 	str	r5, [r4, #68]	; 0x44
    ad88:	e5845048 	str	r5, [r4, #72]	; 0x48
    ad8c:	e8bd4070 	pop	{r4, r5, r6, lr}
    ad90:	e12fff1e 	bx	lr
    ad94:	e5953000 	ldr	r3, [r5]
    ad98:	e3530000 	cmp	r3, #0
    ad9c:	11a05003 	movne	r5, r3
    ada0:	1affffd8 	bne	ad08 <__sfp+0x24>
    ada4:	e3a01004 	mov	r1, #4
    ada8:	e1a00006 	mov	r0, r6
    adac:	ebffffb8 	bl	ac94 <__sfmoreglue>
    adb0:	e3500000 	cmp	r0, #0
    adb4:	e5850000 	str	r0, [r5]
    adb8:	11a05000 	movne	r5, r0
    adbc:	1affffd1 	bne	ad08 <__sfp+0x24>
    adc0:	e3a0300c 	mov	r3, #12
    adc4:	e5863000 	str	r3, [r6]
    adc8:	eaffffef 	b	ad8c <__sfp+0xa8>
    adcc:	000166e0 	andeq	r6, r1, r0, ror #13

0000add0 <_cleanup>:
    add0:	e92d4010 	push	{r4, lr}
    add4:	e59f3010 	ldr	r3, [pc, #16]	; adec <_cleanup+0x1c>
    add8:	e59f1010 	ldr	r1, [pc, #16]	; adf0 <_cleanup+0x20>
    addc:	e5930000 	ldr	r0, [r3]
    ade0:	eb0002c5 	bl	b8fc <_fwalk_reent>
    ade4:	e8bd4010 	pop	{r4, lr}
    ade8:	e12fff1e 	bx	lr
    adec:	000166e0 	andeq	r6, r1, r0, ror #13
    adf0:	0000a5ec 	andeq	sl, r0, ip, ror #11

0000adf4 <__sinit>:
    adf4:	e5903038 	ldr	r3, [r0, #56]	; 0x38
    adf8:	e3530000 	cmp	r3, #0
    adfc:	112fff1e 	bxne	lr
    ae00:	eaffff49 	b	ab2c <__sinit.part.1>

0000ae04 <__sfp_lock_acquire>:
    ae04:	e12fff1e 	bx	lr

0000ae08 <__sfp_lock_release>:
    ae08:	e12fff1e 	bx	lr

0000ae0c <__sinit_lock_acquire>:
    ae0c:	e12fff1e 	bx	lr

0000ae10 <__sinit_lock_release>:
    ae10:	e12fff1e 	bx	lr

0000ae14 <__fp_lock_all>:
    ae14:	e92d4010 	push	{r4, lr}
    ae18:	e59f3010 	ldr	r3, [pc, #16]	; ae30 <__fp_lock_all+0x1c>
    ae1c:	e59f1010 	ldr	r1, [pc, #16]	; ae34 <__fp_lock_all+0x20>
    ae20:	e5930000 	ldr	r0, [r3]
    ae24:	eb000293 	bl	b878 <_fwalk>
    ae28:	e8bd4010 	pop	{r4, lr}
    ae2c:	e12fff1e 	bx	lr
    ae30:	00016fb8 			; <UNDEFINED> instruction: 0x00016fb8
    ae34:	0000ac8c 	andeq	sl, r0, ip, lsl #25

0000ae38 <__fp_unlock_all>:
    ae38:	e92d4010 	push	{r4, lr}
    ae3c:	e59f3010 	ldr	r3, [pc, #16]	; ae54 <__fp_unlock_all+0x1c>
    ae40:	e59f1010 	ldr	r1, [pc, #16]	; ae58 <__fp_unlock_all+0x20>
    ae44:	e5930000 	ldr	r0, [r3]
    ae48:	eb00028a 	bl	b878 <_fwalk>
    ae4c:	e8bd4010 	pop	{r4, lr}
    ae50:	e12fff1e 	bx	lr
    ae54:	00016fb8 			; <UNDEFINED> instruction: 0x00016fb8
    ae58:	0000ab0c 	andeq	sl, r0, ip, lsl #22

0000ae5c <_fopen_r>:
    ae5c:	e1a03002 	mov	r3, r2
    ae60:	e92d40f0 	push	{r4, r5, r6, r7, lr}
    ae64:	e24dd00c 	sub	sp, sp, #12
    ae68:	e1a07001 	mov	r7, r1
    ae6c:	e28d2004 	add	r2, sp, #4
    ae70:	e1a01003 	mov	r1, r3
    ae74:	e1a05000 	mov	r5, r0
    ae78:	eb0016a2 	bl	10908 <__sflags>
    ae7c:	e2506000 	subs	r6, r0, #0
    ae80:	0a00001b 	beq	aef4 <_fopen_r+0x98>
    ae84:	e1a00005 	mov	r0, r5
    ae88:	ebffff95 	bl	ace4 <__sfp>
    ae8c:	e2504000 	subs	r4, r0, #0
    ae90:	0a000017 	beq	aef4 <_fopen_r+0x98>
    ae94:	e1a01007 	mov	r1, r7
    ae98:	e59f30a0 	ldr	r3, [pc, #160]	; af40 <_fopen_r+0xe4>
    ae9c:	e59d2004 	ldr	r2, [sp, #4]
    aea0:	e1a00005 	mov	r0, r5
    aea4:	eb0005c0 	bl	c5ac <_open_r>
    aea8:	e3500000 	cmp	r0, #0
    aeac:	ba00001d 	blt	af28 <_fopen_r+0xcc>
    aeb0:	e59fc08c 	ldr	ip, [pc, #140]	; af44 <_fopen_r+0xe8>
    aeb4:	e59f108c 	ldr	r1, [pc, #140]	; af48 <_fopen_r+0xec>
    aeb8:	e59f208c 	ldr	r2, [pc, #140]	; af4c <_fopen_r+0xf0>
    aebc:	e59f308c 	ldr	r3, [pc, #140]	; af50 <_fopen_r+0xf4>
    aec0:	e3160c01 	tst	r6, #256	; 0x100
    aec4:	e1c400be 	strh	r0, [r4, #14]
    aec8:	e1c460bc 	strh	r6, [r4, #12]
    aecc:	e584401c 	str	r4, [r4, #28]
    aed0:	e584c020 	str	ip, [r4, #32]
    aed4:	e5841024 	str	r1, [r4, #36]	; 0x24
    aed8:	e5842028 	str	r2, [r4, #40]	; 0x28
    aedc:	e584302c 	str	r3, [r4, #44]	; 0x2c
    aee0:	01a00004 	moveq	r0, r4
    aee4:	1a000006 	bne	af04 <_fopen_r+0xa8>
    aee8:	e28dd00c 	add	sp, sp, #12
    aeec:	e8bd40f0 	pop	{r4, r5, r6, r7, lr}
    aef0:	e12fff1e 	bx	lr
    aef4:	e3a00000 	mov	r0, #0
    aef8:	e28dd00c 	add	sp, sp, #12
    aefc:	e8bd40f0 	pop	{r4, r5, r6, r7, lr}
    af00:	e12fff1e 	bx	lr
    af04:	e1a00005 	mov	r0, r5
    af08:	e3a03002 	mov	r3, #2
    af0c:	e3a02000 	mov	r2, #0
    af10:	e1a01004 	mov	r1, r4
    af14:	eb00010f 	bl	b358 <_fseek_r>
    af18:	e1a00004 	mov	r0, r4
    af1c:	e28dd00c 	add	sp, sp, #12
    af20:	e8bd40f0 	pop	{r4, r5, r6, r7, lr}
    af24:	e12fff1e 	bx	lr
    af28:	e3a05000 	mov	r5, #0
    af2c:	ebffffb4 	bl	ae04 <__sfp_lock_acquire>
    af30:	e1c450bc 	strh	r5, [r4, #12]
    af34:	ebffffb3 	bl	ae08 <__sfp_lock_release>
    af38:	e1a00005 	mov	r0, r5
    af3c:	eaffffe9 	b	aee8 <_fopen_r+0x8c>
    af40:	000001b6 			; <UNDEFINED> instruction: 0x000001b6
    af44:	0000caa4 	andeq	ip, r0, r4, lsr #21
    af48:	0000cae0 	andeq	ip, r0, r0, ror #21
    af4c:	0000cb38 	andeq	ip, r0, r8, lsr fp
    af50:	0000cb68 	andeq	ip, r0, r8, ror #22

0000af54 <fopen>:
    af54:	e59f300c 	ldr	r3, [pc, #12]	; af68 <fopen+0x14>
    af58:	e1a02001 	mov	r2, r1
    af5c:	e1a01000 	mov	r1, r0
    af60:	e5930000 	ldr	r0, [r3]
    af64:	eaffffbc 	b	ae5c <_fopen_r>
    af68:	00016fb8 			; <UNDEFINED> instruction: 0x00016fb8

0000af6c <_malloc_trim_r>:
    af6c:	e92d41f0 	push	{r4, r5, r6, r7, r8, lr}
    af70:	e1a04001 	mov	r4, r1
    af74:	e59f70e4 	ldr	r7, [pc, #228]	; b060 <_malloc_trim_r+0xf4>
    af78:	e1a05000 	mov	r5, r0
    af7c:	eb000588 	bl	c5a4 <__malloc_lock>
    af80:	e5973008 	ldr	r3, [r7, #8]
    af84:	e5936004 	ldr	r6, [r3, #4]
    af88:	e3c66003 	bic	r6, r6, #3
    af8c:	e0644006 	rsb	r4, r4, r6
    af90:	e2844efe 	add	r4, r4, #4064	; 0xfe0
    af94:	e284400f 	add	r4, r4, #15
    af98:	e1a04624 	lsr	r4, r4, #12
    af9c:	e2444001 	sub	r4, r4, #1
    afa0:	e1a04604 	lsl	r4, r4, #12
    afa4:	e3540a01 	cmp	r4, #4096	; 0x1000
    afa8:	ba000006 	blt	afc8 <_malloc_trim_r+0x5c>
    afac:	e3a01000 	mov	r1, #0
    afb0:	e1a00005 	mov	r0, r5
    afb4:	eb0006a9 	bl	ca60 <_sbrk_r>
    afb8:	e5973008 	ldr	r3, [r7, #8]
    afbc:	e0833006 	add	r3, r3, r6
    afc0:	e1500003 	cmp	r0, r3
    afc4:	0a000004 	beq	afdc <_malloc_trim_r+0x70>
    afc8:	e1a00005 	mov	r0, r5
    afcc:	eb000575 	bl	c5a8 <__malloc_unlock>
    afd0:	e3a00000 	mov	r0, #0
    afd4:	e8bd41f0 	pop	{r4, r5, r6, r7, r8, lr}
    afd8:	e12fff1e 	bx	lr
    afdc:	e2641000 	rsb	r1, r4, #0
    afe0:	e1a00005 	mov	r0, r5
    afe4:	eb00069d 	bl	ca60 <_sbrk_r>
    afe8:	e3700001 	cmn	r0, #1
    afec:	0a00000c 	beq	b024 <_malloc_trim_r+0xb8>
    aff0:	e59f206c 	ldr	r2, [pc, #108]	; b064 <_malloc_trim_r+0xf8>
    aff4:	e5971008 	ldr	r1, [r7, #8]
    aff8:	e5923000 	ldr	r3, [r2]
    affc:	e0646006 	rsb	r6, r4, r6
    b000:	e3866001 	orr	r6, r6, #1
    b004:	e1a00005 	mov	r0, r5
    b008:	e0644003 	rsb	r4, r4, r3
    b00c:	e5816004 	str	r6, [r1, #4]
    b010:	e5824000 	str	r4, [r2]
    b014:	eb000563 	bl	c5a8 <__malloc_unlock>
    b018:	e3a00001 	mov	r0, #1
    b01c:	e8bd41f0 	pop	{r4, r5, r6, r7, r8, lr}
    b020:	e12fff1e 	bx	lr
    b024:	e3a01000 	mov	r1, #0
    b028:	e1a00005 	mov	r0, r5
    b02c:	eb00068b 	bl	ca60 <_sbrk_r>
    b030:	e5972008 	ldr	r2, [r7, #8]
    b034:	e0623000 	rsb	r3, r2, r0
    b038:	e353000f 	cmp	r3, #15
    b03c:	daffffe1 	ble	afc8 <_malloc_trim_r+0x5c>
    b040:	e59f1020 	ldr	r1, [pc, #32]	; b068 <_malloc_trim_r+0xfc>
    b044:	e591c000 	ldr	ip, [r1]
    b048:	e59f1014 	ldr	r1, [pc, #20]	; b064 <_malloc_trim_r+0xf8>
    b04c:	e3833001 	orr	r3, r3, #1
    b050:	e06c0000 	rsb	r0, ip, r0
    b054:	e5823004 	str	r3, [r2, #4]
    b058:	e5810000 	str	r0, [r1]
    b05c:	eaffffd9 	b	afc8 <_malloc_trim_r+0x5c>
    b060:	00016fbc 			; <UNDEFINED> instruction: 0x00016fbc
    b064:	0001f7ec 	andeq	pc, r1, ip, ror #15
    b068:	000173c8 	andeq	r7, r1, r8, asr #7

0000b06c <_free_r>:
    b06c:	e3510000 	cmp	r1, #0
    b070:	012fff1e 	bxeq	lr
    b074:	e92d4070 	push	{r4, r5, r6, lr}
    b078:	e1a04001 	mov	r4, r1
    b07c:	e1a05000 	mov	r5, r0
    b080:	eb000547 	bl	c5a4 <__malloc_lock>
    b084:	e5141004 	ldr	r1, [r4, #-4]
    b088:	e59fe2b4 	ldr	lr, [pc, #692]	; b344 <_free_r+0x2d8>
    b08c:	e3c13001 	bic	r3, r1, #1
    b090:	e244c008 	sub	ip, r4, #8
    b094:	e08c0003 	add	r0, ip, r3
    b098:	e59e6008 	ldr	r6, [lr, #8]
    b09c:	e5902004 	ldr	r2, [r0, #4]
    b0a0:	e1500006 	cmp	r0, r6
    b0a4:	e3c22003 	bic	r2, r2, #3
    b0a8:	0a000052 	beq	b1f8 <_free_r+0x18c>
    b0ac:	e3110001 	tst	r1, #1
    b0b0:	e5802004 	str	r2, [r0, #4]
    b0b4:	1a000009 	bne	b0e0 <_free_r+0x74>
    b0b8:	e5144008 	ldr	r4, [r4, #-8]
    b0bc:	e064c00c 	rsb	ip, r4, ip
    b0c0:	e59c1008 	ldr	r1, [ip, #8]
    b0c4:	e28e6008 	add	r6, lr, #8
    b0c8:	e1510006 	cmp	r1, r6
    b0cc:	e0833004 	add	r3, r3, r4
    b0d0:	0a00005e 	beq	b250 <_free_r+0x1e4>
    b0d4:	e59c400c 	ldr	r4, [ip, #12]
    b0d8:	e581400c 	str	r4, [r1, #12]
    b0dc:	e5841008 	str	r1, [r4, #8]
    b0e0:	e0801002 	add	r1, r0, r2
    b0e4:	e5911004 	ldr	r1, [r1, #4]
    b0e8:	e3110001 	tst	r1, #1
    b0ec:	13832001 	orrne	r2, r3, #1
    b0f0:	158c2004 	strne	r2, [ip, #4]
    b0f4:	178c3003 	strne	r3, [ip, r3]
    b0f8:	0a000030 	beq	b1c0 <_free_r+0x154>
    b0fc:	e3530c02 	cmp	r3, #512	; 0x200
    b100:	2a000011 	bcs	b14c <_free_r+0xe0>
    b104:	e3a04001 	mov	r4, #1
    b108:	e59e0004 	ldr	r0, [lr, #4]
    b10c:	e1a031a3 	lsr	r3, r3, #3
    b110:	e0832004 	add	r2, r3, r4
    b114:	e1a03143 	asr	r3, r3, #2
    b118:	e1803314 	orr	r3, r0, r4, lsl r3
    b11c:	e08e1182 	add	r1, lr, r2, lsl #3
    b120:	e79e0182 	ldr	r0, [lr, r2, lsl #3]
    b124:	e2411008 	sub	r1, r1, #8
    b128:	e58c100c 	str	r1, [ip, #12]
    b12c:	e58c0008 	str	r0, [ip, #8]
    b130:	e58e3004 	str	r3, [lr, #4]
    b134:	e78ec182 	str	ip, [lr, r2, lsl #3]
    b138:	e580c00c 	str	ip, [r0, #12]
    b13c:	e1a00005 	mov	r0, r5
    b140:	eb000518 	bl	c5a8 <__malloc_unlock>
    b144:	e8bd4070 	pop	{r4, r5, r6, lr}
    b148:	e12fff1e 	bx	lr
    b14c:	e1a024a3 	lsr	r2, r3, #9
    b150:	e3520004 	cmp	r2, #4
    b154:	8a00004a 	bhi	b284 <_free_r+0x218>
    b158:	e1a02323 	lsr	r2, r3, #6
    b15c:	e2824039 	add	r4, r2, #57	; 0x39
    b160:	e1a04084 	lsl	r4, r4, #1
    b164:	e2821038 	add	r1, r2, #56	; 0x38
    b168:	e08e0104 	add	r0, lr, r4, lsl #2
    b16c:	e79e2104 	ldr	r2, [lr, r4, lsl #2]
    b170:	e2400008 	sub	r0, r0, #8
    b174:	e1500002 	cmp	r0, r2
    b178:	e59fe1c4 	ldr	lr, [pc, #452]	; b344 <_free_r+0x2d8>
    b17c:	0a000046 	beq	b29c <_free_r+0x230>
    b180:	e5921004 	ldr	r1, [r2, #4]
    b184:	e3c11003 	bic	r1, r1, #3
    b188:	e1530001 	cmp	r3, r1
    b18c:	2a000002 	bcs	b19c <_free_r+0x130>
    b190:	e5922008 	ldr	r2, [r2, #8]
    b194:	e1500002 	cmp	r0, r2
    b198:	1afffff8 	bne	b180 <_free_r+0x114>
    b19c:	e592000c 	ldr	r0, [r2, #12]
    b1a0:	e58c000c 	str	r0, [ip, #12]
    b1a4:	e58c2008 	str	r2, [ip, #8]
    b1a8:	e580c008 	str	ip, [r0, #8]
    b1ac:	e1a00005 	mov	r0, r5
    b1b0:	e582c00c 	str	ip, [r2, #12]
    b1b4:	eb0004fb 	bl	c5a8 <__malloc_unlock>
    b1b8:	e8bd4070 	pop	{r4, r5, r6, lr}
    b1bc:	e12fff1e 	bx	lr
    b1c0:	e5901008 	ldr	r1, [r0, #8]
    b1c4:	e59f417c 	ldr	r4, [pc, #380]	; b348 <_free_r+0x2dc>
    b1c8:	e1510004 	cmp	r1, r4
    b1cc:	e0833002 	add	r3, r3, r2
    b1d0:	0a000038 	beq	b2b8 <_free_r+0x24c>
    b1d4:	e590000c 	ldr	r0, [r0, #12]
    b1d8:	e3832001 	orr	r2, r3, #1
    b1dc:	e3530c02 	cmp	r3, #512	; 0x200
    b1e0:	e581000c 	str	r0, [r1, #12]
    b1e4:	e5801008 	str	r1, [r0, #8]
    b1e8:	e58c2004 	str	r2, [ip, #4]
    b1ec:	e78c3003 	str	r3, [ip, r3]
    b1f0:	2affffd5 	bcs	b14c <_free_r+0xe0>
    b1f4:	eaffffc2 	b	b104 <_free_r+0x98>
    b1f8:	e3110001 	tst	r1, #1
    b1fc:	e0833002 	add	r3, r3, r2
    b200:	1a000006 	bne	b220 <_free_r+0x1b4>
    b204:	e5142008 	ldr	r2, [r4, #-8]
    b208:	e062c00c 	rsb	ip, r2, ip
    b20c:	e28c0008 	add	r0, ip, #8
    b210:	e8900003 	ldm	r0, {r0, r1}
    b214:	e580100c 	str	r1, [r0, #12]
    b218:	e5810008 	str	r0, [r1, #8]
    b21c:	e0833002 	add	r3, r3, r2
    b220:	e59f2124 	ldr	r2, [pc, #292]	; b34c <_free_r+0x2e0>
    b224:	e5921000 	ldr	r1, [r2]
    b228:	e3832001 	orr	r2, r3, #1
    b22c:	e1530001 	cmp	r3, r1
    b230:	e58c2004 	str	r2, [ip, #4]
    b234:	e58ec008 	str	ip, [lr, #8]
    b238:	3affffbf 	bcc	b13c <_free_r+0xd0>
    b23c:	e59f310c 	ldr	r3, [pc, #268]	; b350 <_free_r+0x2e4>
    b240:	e1a00005 	mov	r0, r5
    b244:	e5931000 	ldr	r1, [r3]
    b248:	ebffff47 	bl	af6c <_malloc_trim_r>
    b24c:	eaffffba 	b	b13c <_free_r+0xd0>
    b250:	e0801002 	add	r1, r0, r2
    b254:	e5911004 	ldr	r1, [r1, #4]
    b258:	e3110001 	tst	r1, #1
    b25c:	1a000034 	bne	b334 <_free_r+0x2c8>
    b260:	e2801008 	add	r1, r0, #8
    b264:	e0823003 	add	r3, r2, r3
    b268:	e8910006 	ldm	r1, {r1, r2}
    b26c:	e3830001 	orr	r0, r3, #1
    b270:	e581200c 	str	r2, [r1, #12]
    b274:	e5821008 	str	r1, [r2, #8]
    b278:	e58c0004 	str	r0, [ip, #4]
    b27c:	e78c3003 	str	r3, [ip, r3]
    b280:	eaffffad 	b	b13c <_free_r+0xd0>
    b284:	e3520014 	cmp	r2, #20
    b288:	8a000012 	bhi	b2d8 <_free_r+0x26c>
    b28c:	e282405c 	add	r4, r2, #92	; 0x5c
    b290:	e1a04084 	lsl	r4, r4, #1
    b294:	e282105b 	add	r1, r2, #91	; 0x5b
    b298:	eaffffb2 	b	b168 <_free_r+0xfc>
    b29c:	e3a04001 	mov	r4, #1
    b2a0:	e59e3004 	ldr	r3, [lr, #4]
    b2a4:	e1a02141 	asr	r2, r1, #2
    b2a8:	e1832214 	orr	r2, r3, r4, lsl r2
    b2ac:	e58e2004 	str	r2, [lr, #4]
    b2b0:	e1a02000 	mov	r2, r0
    b2b4:	eaffffb9 	b	b1a0 <_free_r+0x134>
    b2b8:	e3832001 	orr	r2, r3, #1
    b2bc:	e58ec014 	str	ip, [lr, #20]
    b2c0:	e58ec010 	str	ip, [lr, #16]
    b2c4:	e58c100c 	str	r1, [ip, #12]
    b2c8:	e58c1008 	str	r1, [ip, #8]
    b2cc:	e58c2004 	str	r2, [ip, #4]
    b2d0:	e78c3003 	str	r3, [ip, r3]
    b2d4:	eaffff98 	b	b13c <_free_r+0xd0>
    b2d8:	e3520054 	cmp	r2, #84	; 0x54
    b2dc:	8a000004 	bhi	b2f4 <_free_r+0x288>
    b2e0:	e1a02623 	lsr	r2, r3, #12
    b2e4:	e282406f 	add	r4, r2, #111	; 0x6f
    b2e8:	e1a04084 	lsl	r4, r4, #1
    b2ec:	e282106e 	add	r1, r2, #110	; 0x6e
    b2f0:	eaffff9c 	b	b168 <_free_r+0xfc>
    b2f4:	e3520f55 	cmp	r2, #340	; 0x154
    b2f8:	8a000004 	bhi	b310 <_free_r+0x2a4>
    b2fc:	e1a027a3 	lsr	r2, r3, #15
    b300:	e2824078 	add	r4, r2, #120	; 0x78
    b304:	e1a04084 	lsl	r4, r4, #1
    b308:	e2821077 	add	r1, r2, #119	; 0x77
    b30c:	eaffff95 	b	b168 <_free_r+0xfc>
    b310:	e59f103c 	ldr	r1, [pc, #60]	; b354 <_free_r+0x2e8>
    b314:	e1520001 	cmp	r2, r1
    b318:	91a02923 	lsrls	r2, r3, #18
    b31c:	9282407d 	addls	r4, r2, #125	; 0x7d
    b320:	91a04084 	lslls	r4, r4, #1
    b324:	9282107c 	addls	r1, r2, #124	; 0x7c
    b328:	83a040fe 	movhi	r4, #254	; 0xfe
    b32c:	83a0107e 	movhi	r1, #126	; 0x7e
    b330:	eaffff8c 	b	b168 <_free_r+0xfc>
    b334:	e3832001 	orr	r2, r3, #1
    b338:	e58c2004 	str	r2, [ip, #4]
    b33c:	e78c3003 	str	r3, [ip, r3]
    b340:	eaffff7d 	b	b13c <_free_r+0xd0>
    b344:	00016fbc 			; <UNDEFINED> instruction: 0x00016fbc
    b348:	00016fc4 	andeq	r6, r1, r4, asr #31
    b34c:	000173c4 	andeq	r7, r1, r4, asr #7
    b350:	0001f7e8 	andeq	pc, r1, r8, ror #15
    b354:	00000554 	andeq	r0, r0, r4, asr r5

0000b358 <_fseek_r>:
    b358:	e92d4010 	push	{r4, lr}
    b35c:	eb00000b 	bl	b390 <_fseeko_r>
    b360:	e8bd4010 	pop	{r4, lr}
    b364:	e12fff1e 	bx	lr

0000b368 <fseek>:
    b368:	e92d4010 	push	{r4, lr}
    b36c:	e59fc018 	ldr	ip, [pc, #24]	; b38c <fseek+0x24>
    b370:	e1a03002 	mov	r3, r2
    b374:	e1a02001 	mov	r2, r1
    b378:	e1a01000 	mov	r1, r0
    b37c:	e59c0000 	ldr	r0, [ip]
    b380:	eb000002 	bl	b390 <_fseeko_r>
    b384:	e8bd4010 	pop	{r4, lr}
    b388:	e12fff1e 	bx	lr
    b38c:	00016fb8 			; <UNDEFINED> instruction: 0x00016fb8

0000b390 <_fseeko_r>:
    b390:	e92d4ff0 	push	{r4, r5, r6, r7, r8, r9, sl, fp, lr}
    b394:	e2505000 	subs	r5, r0, #0
    b398:	e24dd044 	sub	sp, sp, #68	; 0x44
    b39c:	e1a04001 	mov	r4, r1
    b3a0:	e1a08002 	mov	r8, r2
    b3a4:	e1a06003 	mov	r6, r3
    b3a8:	0a000002 	beq	b3b8 <_fseeko_r+0x28>
    b3ac:	e5953038 	ldr	r3, [r5, #56]	; 0x38
    b3b0:	e3530000 	cmp	r3, #0
    b3b4:	0a000061 	beq	b540 <_fseeko_r+0x1b0>
    b3b8:	e1d430bc 	ldrh	r3, [r4, #12]
    b3bc:	e2033f42 	and	r3, r3, #264	; 0x108
    b3c0:	e3530f42 	cmp	r3, #264	; 0x108
    b3c4:	0a000062 	beq	b554 <_fseeko_r+0x1c4>
    b3c8:	e5949028 	ldr	r9, [r4, #40]	; 0x28
    b3cc:	e3590000 	cmp	r9, #0
    b3d0:	03a0301d 	moveq	r3, #29
    b3d4:	03e07000 	mvneq	r7, #0
    b3d8:	05853000 	streq	r3, [r5]
    b3dc:	0a000008 	beq	b404 <_fseeko_r+0x74>
    b3e0:	e3560001 	cmp	r6, #1
    b3e4:	0a000041 	beq	b4f0 <_fseeko_r+0x160>
    b3e8:	e3560002 	cmp	r6, #2
    b3ec:	0a000008 	beq	b414 <_fseeko_r+0x84>
    b3f0:	e3560000 	cmp	r6, #0
    b3f4:	13a03016 	movne	r3, #22
    b3f8:	13e07000 	mvnne	r7, #0
    b3fc:	15853000 	strne	r3, [r5]
    b400:	0a000003 	beq	b414 <_fseeko_r+0x84>
    b404:	e1a00007 	mov	r0, r7
    b408:	e28dd044 	add	sp, sp, #68	; 0x44
    b40c:	e8bd4ff0 	pop	{r4, r5, r6, r7, r8, r9, sl, fp, lr}
    b410:	e12fff1e 	bx	lr
    b414:	e3a0a000 	mov	sl, #0
    b418:	e1a0700a 	mov	r7, sl
    b41c:	e5943010 	ldr	r3, [r4, #16]
    b420:	e3530000 	cmp	r3, #0
    b424:	0a0000e5 	beq	b7c0 <_fseeko_r+0x430>
    b428:	e1d400fc 	ldrsh	r0, [r4, #12]
    b42c:	e59f23dc 	ldr	r2, [pc, #988]	; b810 <_fseeko_r+0x480>
    b430:	e1a03800 	lsl	r3, r0, #16
    b434:	e0022003 	and	r2, r2, r3
    b438:	e3520000 	cmp	r2, #0
    b43c:	e1a03823 	lsr	r3, r3, #16
    b440:	1a000006 	bne	b460 <_fseeko_r+0xd0>
    b444:	e3130b01 	tst	r3, #1024	; 0x400
    b448:	1a00004a 	bne	b578 <_fseeko_r+0x1e8>
    b44c:	e59f33c0 	ldr	r3, [pc, #960]	; b814 <_fseeko_r+0x484>
    b450:	e1590003 	cmp	r9, r3
    b454:	0a0000cb 	beq	b788 <_fseeko_r+0x3f8>
    b458:	e3800b02 	orr	r0, r0, #2048	; 0x800
    b45c:	e1c400bc 	strh	r0, [r4, #12]
    b460:	e1a01004 	mov	r1, r4
    b464:	e1a00005 	mov	r0, r5
    b468:	ebfffd33 	bl	a93c <_fflush_r>
    b46c:	e2507000 	subs	r7, r0, #0
    b470:	1a0000c2 	bne	b780 <_fseeko_r+0x3f0>
    b474:	e1a03006 	mov	r3, r6
    b478:	e1a02008 	mov	r2, r8
    b47c:	e594101c 	ldr	r1, [r4, #28]
    b480:	e1a00005 	mov	r0, r5
    b484:	e1a0e00f 	mov	lr, pc
    b488:	e12fff19 	bx	r9
    b48c:	e3700001 	cmn	r0, #1
    b490:	0a0000ba 	beq	b780 <_fseeko_r+0x3f0>
    b494:	e5941030 	ldr	r1, [r4, #48]	; 0x30
    b498:	e3510000 	cmp	r1, #0
    b49c:	0a000005 	beq	b4b8 <_fseeko_r+0x128>
    b4a0:	e2843040 	add	r3, r4, #64	; 0x40
    b4a4:	e1510003 	cmp	r1, r3
    b4a8:	11a00005 	movne	r0, r5
    b4ac:	1bfffeee 	blne	b06c <_free_r>
    b4b0:	e3a03000 	mov	r3, #0
    b4b4:	e5843030 	str	r3, [r4, #48]	; 0x30
    b4b8:	e3a01000 	mov	r1, #0
    b4bc:	e1d430bc 	ldrh	r3, [r4, #12]
    b4c0:	e5942010 	ldr	r2, [r4, #16]
    b4c4:	e3c33e82 	bic	r3, r3, #2080	; 0x820
    b4c8:	e5842000 	str	r2, [r4]
    b4cc:	e1c430bc 	strh	r3, [r4, #12]
    b4d0:	e5841004 	str	r1, [r4, #4]
    b4d4:	e284005c 	add	r0, r4, #92	; 0x5c
    b4d8:	e3a02008 	mov	r2, #8
    b4dc:	eb0003f3 	bl	c4b0 <memset>
    b4e0:	e1a00007 	mov	r0, r7
    b4e4:	e28dd044 	add	sp, sp, #68	; 0x44
    b4e8:	e8bd4ff0 	pop	{r4, r5, r6, r7, r8, r9, sl, fp, lr}
    b4ec:	e12fff1e 	bx	lr
    b4f0:	e1a01004 	mov	r1, r4
    b4f4:	e1a00005 	mov	r0, r5
    b4f8:	ebfffd0f 	bl	a93c <_fflush_r>
    b4fc:	e1d430bc 	ldrh	r3, [r4, #12]
    b500:	e2132a01 	ands	r2, r3, #4096	; 0x1000
    b504:	0a000094 	beq	b75c <_fseeko_r+0x3cc>
    b508:	e5947050 	ldr	r7, [r4, #80]	; 0x50
    b50c:	e3130004 	tst	r3, #4
    b510:	1a000046 	bne	b630 <_fseeko_r+0x2a0>
    b514:	e3130008 	tst	r3, #8
    b518:	0a00008d 	beq	b754 <_fseeko_r+0x3c4>
    b51c:	e5942000 	ldr	r2, [r4]
    b520:	e5943010 	ldr	r3, [r4, #16]
    b524:	e3520000 	cmp	r2, #0
    b528:	10632002 	rsbne	r2, r3, r2
    b52c:	10877002 	addne	r7, r7, r2
    b530:	e0888007 	add	r8, r8, r7
    b534:	e3a0a001 	mov	sl, #1
    b538:	e3a06000 	mov	r6, #0
    b53c:	eaffffb7 	b	b420 <_fseeko_r+0x90>
    b540:	ebfffe2b 	bl	adf4 <__sinit>
    b544:	e1d430bc 	ldrh	r3, [r4, #12]
    b548:	e2033f42 	and	r3, r3, #264	; 0x108
    b54c:	e3530f42 	cmp	r3, #264	; 0x108
    b550:	1affff9c 	bne	b3c8 <_fseeko_r+0x38>
    b554:	e1a01004 	mov	r1, r4
    b558:	e1a00005 	mov	r0, r5
    b55c:	ebfffcf6 	bl	a93c <_fflush_r>
    b560:	eaffff98 	b	b3c8 <_fseeko_r+0x38>
    b564:	e3a02b01 	mov	r2, #1024	; 0x400
    b568:	e1d430bc 	ldrh	r3, [r4, #12]
    b56c:	e1833002 	orr	r3, r3, r2
    b570:	e1c430bc 	strh	r3, [r4, #12]
    b574:	e584204c 	str	r2, [r4, #76]	; 0x4c
    b578:	e3560000 	cmp	r6, #0
    b57c:	01a0b008 	moveq	fp, r8
    b580:	1a00003f 	bne	b684 <_fseeko_r+0x2f4>
    b584:	e35a0000 	cmp	sl, #0
    b588:	0a000031 	beq	b654 <_fseeko_r+0x2c4>
    b58c:	e5941030 	ldr	r1, [r4, #48]	; 0x30
    b590:	e3510000 	cmp	r1, #0
    b594:	e594e004 	ldr	lr, [r4, #4]
    b598:	0a000095 	beq	b7f4 <_fseeko_r+0x464>
    b59c:	e594a03c 	ldr	sl, [r4, #60]	; 0x3c
    b5a0:	e5942038 	ldr	r2, [r4, #56]	; 0x38
    b5a4:	e594c010 	ldr	ip, [r4, #16]
    b5a8:	e087700e 	add	r7, r7, lr
    b5ac:	e06c2002 	rsb	r2, ip, r2
    b5b0:	e0627007 	rsb	r7, r2, r7
    b5b4:	e08a3002 	add	r3, sl, r2
    b5b8:	e15b0007 	cmp	fp, r7
    b5bc:	ba000039 	blt	b6a8 <_fseeko_r+0x318>
    b5c0:	e0872003 	add	r2, r7, r3
    b5c4:	e152000b 	cmp	r2, fp
    b5c8:	9a000036 	bls	b6a8 <_fseeko_r+0x318>
    b5cc:	e067700b 	rsb	r7, r7, fp
    b5d0:	e08cc007 	add	ip, ip, r7
    b5d4:	e0673003 	rsb	r3, r7, r3
    b5d8:	e3510000 	cmp	r1, #0
    b5dc:	e584c000 	str	ip, [r4]
    b5e0:	e5843004 	str	r3, [r4, #4]
    b5e4:	0a000005 	beq	b600 <_fseeko_r+0x270>
    b5e8:	e2843040 	add	r3, r4, #64	; 0x40
    b5ec:	e1510003 	cmp	r1, r3
    b5f0:	11a00005 	movne	r0, r5
    b5f4:	1bfffe9c 	blne	b06c <_free_r>
    b5f8:	e3a03000 	mov	r3, #0
    b5fc:	e5843030 	str	r3, [r4, #48]	; 0x30
    b600:	e1d430bc 	ldrh	r3, [r4, #12]
    b604:	e3c33020 	bic	r3, r3, #32
    b608:	e1c430bc 	strh	r3, [r4, #12]
    b60c:	e3a07000 	mov	r7, #0
    b610:	e284005c 	add	r0, r4, #92	; 0x5c
    b614:	e3a02008 	mov	r2, #8
    b618:	e3a01000 	mov	r1, #0
    b61c:	eb0003a3 	bl	c4b0 <memset>
    b620:	e1a00007 	mov	r0, r7
    b624:	e28dd044 	add	sp, sp, #68	; 0x44
    b628:	e8bd4ff0 	pop	{r4, r5, r6, r7, r8, r9, sl, fp, lr}
    b62c:	e12fff1e 	bx	lr
    b630:	e5942030 	ldr	r2, [r4, #48]	; 0x30
    b634:	e5943004 	ldr	r3, [r4, #4]
    b638:	e3520000 	cmp	r2, #0
    b63c:	e0637007 	rsb	r7, r3, r7
    b640:	0a000043 	beq	b754 <_fseeko_r+0x3c4>
    b644:	e594203c 	ldr	r2, [r4, #60]	; 0x3c
    b648:	e5943010 	ldr	r3, [r4, #16]
    b64c:	e0627007 	rsb	r7, r2, r7
    b650:	eaffffb6 	b	b530 <_fseeko_r+0x1a0>
    b654:	e1d430bc 	ldrh	r3, [r4, #12]
    b658:	e3130a01 	tst	r3, #4096	; 0x1000
    b65c:	0a00005b 	beq	b7d0 <_fseeko_r+0x440>
    b660:	e5940050 	ldr	r0, [r4, #80]	; 0x50
    b664:	e5941030 	ldr	r1, [r4, #48]	; 0x30
    b668:	e594e004 	ldr	lr, [r4, #4]
    b66c:	e3510000 	cmp	r1, #0
    b670:	e06e7000 	rsb	r7, lr, r0
    b674:	0a00005e 	beq	b7f4 <_fseeko_r+0x464>
    b678:	e594a03c 	ldr	sl, [r4, #60]	; 0x3c
    b67c:	e06a7007 	rsb	r7, sl, r7
    b680:	eaffffc6 	b	b5a0 <_fseeko_r+0x210>
    b684:	e28d2004 	add	r2, sp, #4
    b688:	e1d410fe 	ldrsh	r1, [r4, #14]
    b68c:	e1a00005 	mov	r0, r5
    b690:	eb000067 	bl	b834 <_fstat_r>
    b694:	e3500000 	cmp	r0, #0
    b698:	1affff70 	bne	b460 <_fseeko_r+0xd0>
    b69c:	e59db014 	ldr	fp, [sp, #20]
    b6a0:	e088b00b 	add	fp, r8, fp
    b6a4:	eaffffb6 	b	b584 <_fseeko_r+0x1f4>
    b6a8:	e594204c 	ldr	r2, [r4, #76]	; 0x4c
    b6ac:	e2622000 	rsb	r2, r2, #0
    b6b0:	e002700b 	and	r7, r2, fp
    b6b4:	e1a02007 	mov	r2, r7
    b6b8:	e3a03000 	mov	r3, #0
    b6bc:	e594101c 	ldr	r1, [r4, #28]
    b6c0:	e1a00005 	mov	r0, r5
    b6c4:	e1a0e00f 	mov	lr, pc
    b6c8:	e12fff19 	bx	r9
    b6cc:	e3700001 	cmn	r0, #1
    b6d0:	0affff62 	beq	b460 <_fseeko_r+0xd0>
    b6d4:	e3a02000 	mov	r2, #0
    b6d8:	e5941030 	ldr	r1, [r4, #48]	; 0x30
    b6dc:	e5943010 	ldr	r3, [r4, #16]
    b6e0:	e1510002 	cmp	r1, r2
    b6e4:	e5842004 	str	r2, [r4, #4]
    b6e8:	e5843000 	str	r3, [r4]
    b6ec:	0a000005 	beq	b708 <_fseeko_r+0x378>
    b6f0:	e2843040 	add	r3, r4, #64	; 0x40
    b6f4:	e1510003 	cmp	r1, r3
    b6f8:	11a00005 	movne	r0, r5
    b6fc:	1bfffe5a 	blne	b06c <_free_r>
    b700:	e3a03000 	mov	r3, #0
    b704:	e5843030 	str	r3, [r4, #48]	; 0x30
    b708:	e1d430bc 	ldrh	r3, [r4, #12]
    b70c:	e05bb007 	subs	fp, fp, r7
    b710:	e3c33020 	bic	r3, r3, #32
    b714:	e1c430bc 	strh	r3, [r4, #12]
    b718:	0affffbb 	beq	b60c <_fseeko_r+0x27c>
    b71c:	e1a01004 	mov	r1, r4
    b720:	e1a00005 	mov	r0, r5
    b724:	eb000451 	bl	c870 <__srefill_r>
    b728:	e3500000 	cmp	r0, #0
    b72c:	1affff4b 	bne	b460 <_fseeko_r+0xd0>
    b730:	e5943004 	ldr	r3, [r4, #4]
    b734:	e15b0003 	cmp	fp, r3
    b738:	8affff48 	bhi	b460 <_fseeko_r+0xd0>
    b73c:	e5942000 	ldr	r2, [r4]
    b740:	e06b3003 	rsb	r3, fp, r3
    b744:	e082b00b 	add	fp, r2, fp
    b748:	e5843004 	str	r3, [r4, #4]
    b74c:	e584b000 	str	fp, [r4]
    b750:	eaffffad 	b	b60c <_fseeko_r+0x27c>
    b754:	e5943010 	ldr	r3, [r4, #16]
    b758:	eaffff74 	b	b530 <_fseeko_r+0x1a0>
    b75c:	e1a03006 	mov	r3, r6
    b760:	e594101c 	ldr	r1, [r4, #28]
    b764:	e1a00005 	mov	r0, r5
    b768:	e1a0e00f 	mov	lr, pc
    b76c:	e12fff19 	bx	r9
    b770:	e3700001 	cmn	r0, #1
    b774:	e1a07000 	mov	r7, r0
    b778:	11d430bc 	ldrhne	r3, [r4, #12]
    b77c:	1affff62 	bne	b50c <_fseeko_r+0x17c>
    b780:	e3e07000 	mvn	r7, #0
    b784:	eaffff1e 	b	b404 <_fseeko_r+0x74>
    b788:	e1d410fe 	ldrsh	r1, [r4, #14]
    b78c:	e3510000 	cmp	r1, #0
    b790:	baffff30 	blt	b458 <_fseeko_r+0xc8>
    b794:	e28d2004 	add	r2, sp, #4
    b798:	e1a00005 	mov	r0, r5
    b79c:	eb000024 	bl	b834 <_fstat_r>
    b7a0:	e3500000 	cmp	r0, #0
    b7a4:	1a000003 	bne	b7b8 <_fseeko_r+0x428>
    b7a8:	e59d3008 	ldr	r3, [sp, #8]
    b7ac:	e2033a0f 	and	r3, r3, #61440	; 0xf000
    b7b0:	e3530902 	cmp	r3, #32768	; 0x8000
    b7b4:	0affff6a 	beq	b564 <_fseeko_r+0x1d4>
    b7b8:	e1d400fc 	ldrsh	r0, [r4, #12]
    b7bc:	eaffff25 	b	b458 <_fseeko_r+0xc8>
    b7c0:	e1a01004 	mov	r1, r4
    b7c4:	e1a00005 	mov	r0, r5
    b7c8:	eb000093 	bl	ba1c <__smakebuf_r>
    b7cc:	eaffff15 	b	b428 <_fseeko_r+0x98>
    b7d0:	e1a0200a 	mov	r2, sl
    b7d4:	e3a03001 	mov	r3, #1
    b7d8:	e594101c 	ldr	r1, [r4, #28]
    b7dc:	e1a00005 	mov	r0, r5
    b7e0:	e1a0e00f 	mov	lr, pc
    b7e4:	e12fff19 	bx	r9
    b7e8:	e3700001 	cmn	r0, #1
    b7ec:	1affff9c 	bne	b664 <_fseeko_r+0x2d4>
    b7f0:	eaffff1a 	b	b460 <_fseeko_r+0xd0>
    b7f4:	e5943000 	ldr	r3, [r4]
    b7f8:	e594c010 	ldr	ip, [r4, #16]
    b7fc:	e06c3003 	rsb	r3, ip, r3
    b800:	e0637007 	rsb	r7, r3, r7
    b804:	e3a01000 	mov	r1, #0
    b808:	e08e3003 	add	r3, lr, r3
    b80c:	eaffff69 	b	b5b8 <_fseeko_r+0x228>
    b810:	081a0000 	ldmdaeq	sl, {}	; <UNPREDICTABLE>
    b814:	0000cb38 	andeq	ip, r0, r8, lsr fp

0000b818 <fseeko>:
    b818:	e59fc010 	ldr	ip, [pc, #16]	; b830 <fseeko+0x18>
    b81c:	e1a03002 	mov	r3, r2
    b820:	e1a02001 	mov	r2, r1
    b824:	e1a01000 	mov	r1, r0
    b828:	e59c0000 	ldr	r0, [ip]
    b82c:	eafffed7 	b	b390 <_fseeko_r>
    b830:	00016fb8 			; <UNDEFINED> instruction: 0x00016fb8

0000b834 <_fstat_r>:
    b834:	e1a0c001 	mov	ip, r1
    b838:	e3a03000 	mov	r3, #0
    b83c:	e92d4070 	push	{r4, r5, r6, lr}
    b840:	e59f402c 	ldr	r4, [pc, #44]	; b874 <_fstat_r+0x40>
    b844:	e1a05000 	mov	r5, r0
    b848:	e1a01002 	mov	r1, r2
    b84c:	e1a0000c 	mov	r0, ip
    b850:	e5843000 	str	r3, [r4]
    b854:	ebfff637 	bl	9138 <_fstat>
    b858:	e3700001 	cmn	r0, #1
    b85c:	1a000002 	bne	b86c <_fstat_r+0x38>
    b860:	e5943000 	ldr	r3, [r4]
    b864:	e3530000 	cmp	r3, #0
    b868:	15853000 	strne	r3, [r5]
    b86c:	e8bd4070 	pop	{r4, r5, r6, lr}
    b870:	e12fff1e 	bx	lr
    b874:	0001f834 	andeq	pc, r1, r4, lsr r8	; <UNPREDICTABLE>

0000b878 <_fwalk>:
    b878:	e92d41f0 	push	{r4, r5, r6, r7, r8, lr}
    b87c:	e2907e2e 	adds	r7, r0, #736	; 0x2e0
    b880:	0a000019 	beq	b8ec <_fwalk+0x74>
    b884:	e1a08001 	mov	r8, r1
    b888:	e3a06000 	mov	r6, #0
    b88c:	e5975004 	ldr	r5, [r7, #4]
    b890:	e2555001 	subs	r5, r5, #1
    b894:	e5974008 	ldr	r4, [r7, #8]
    b898:	4a00000d 	bmi	b8d4 <_fwalk+0x5c>
    b89c:	e1d430bc 	ldrh	r3, [r4, #12]
    b8a0:	e3530001 	cmp	r3, #1
    b8a4:	e2455001 	sub	r5, r5, #1
    b8a8:	9a000006 	bls	b8c8 <_fwalk+0x50>
    b8ac:	e1d430fe 	ldrsh	r3, [r4, #14]
    b8b0:	e3730001 	cmn	r3, #1
    b8b4:	0a000003 	beq	b8c8 <_fwalk+0x50>
    b8b8:	e1a00004 	mov	r0, r4
    b8bc:	e1a0e00f 	mov	lr, pc
    b8c0:	e12fff18 	bx	r8
    b8c4:	e1866000 	orr	r6, r6, r0
    b8c8:	e3750001 	cmn	r5, #1
    b8cc:	e2844068 	add	r4, r4, #104	; 0x68
    b8d0:	1afffff1 	bne	b89c <_fwalk+0x24>
    b8d4:	e5977000 	ldr	r7, [r7]
    b8d8:	e3570000 	cmp	r7, #0
    b8dc:	1affffea 	bne	b88c <_fwalk+0x14>
    b8e0:	e1a00006 	mov	r0, r6
    b8e4:	e8bd41f0 	pop	{r4, r5, r6, r7, r8, lr}
    b8e8:	e12fff1e 	bx	lr
    b8ec:	e1a06007 	mov	r6, r7
    b8f0:	e1a00006 	mov	r0, r6
    b8f4:	e8bd41f0 	pop	{r4, r5, r6, r7, r8, lr}
    b8f8:	e12fff1e 	bx	lr

0000b8fc <_fwalk_reent>:
    b8fc:	e92d47f0 	push	{r4, r5, r6, r7, r8, r9, sl, lr}
    b900:	e2906e2e 	adds	r6, r0, #736	; 0x2e0
    b904:	0a00001b 	beq	b978 <_fwalk_reent+0x7c>
    b908:	e1a08001 	mov	r8, r1
    b90c:	e1a07000 	mov	r7, r0
    b910:	e3a09000 	mov	r9, #0
    b914:	e5965004 	ldr	r5, [r6, #4]
    b918:	e2555001 	subs	r5, r5, #1
    b91c:	e5964008 	ldr	r4, [r6, #8]
    b920:	4a00000e 	bmi	b960 <_fwalk_reent+0x64>
    b924:	e1d430bc 	ldrh	r3, [r4, #12]
    b928:	e3530001 	cmp	r3, #1
    b92c:	e2455001 	sub	r5, r5, #1
    b930:	9a000007 	bls	b954 <_fwalk_reent+0x58>
    b934:	e1d430fe 	ldrsh	r3, [r4, #14]
    b938:	e3730001 	cmn	r3, #1
    b93c:	0a000004 	beq	b954 <_fwalk_reent+0x58>
    b940:	e1a01004 	mov	r1, r4
    b944:	e1a00007 	mov	r0, r7
    b948:	e1a0e00f 	mov	lr, pc
    b94c:	e12fff18 	bx	r8
    b950:	e1899000 	orr	r9, r9, r0
    b954:	e3750001 	cmn	r5, #1
    b958:	e2844068 	add	r4, r4, #104	; 0x68
    b95c:	1afffff0 	bne	b924 <_fwalk_reent+0x28>
    b960:	e5966000 	ldr	r6, [r6]
    b964:	e3560000 	cmp	r6, #0
    b968:	1affffe9 	bne	b914 <_fwalk_reent+0x18>
    b96c:	e1a00009 	mov	r0, r9
    b970:	e8bd47f0 	pop	{r4, r5, r6, r7, r8, r9, sl, lr}
    b974:	e12fff1e 	bx	lr
    b978:	e1a09006 	mov	r9, r6
    b97c:	e1a00009 	mov	r0, r9
    b980:	e8bd47f0 	pop	{r4, r5, r6, r7, r8, r9, sl, lr}
    b984:	e12fff1e 	bx	lr

0000b988 <__swhatbuf_r>:
    b988:	e92d4070 	push	{r4, r5, r6, lr}
    b98c:	e1a04001 	mov	r4, r1
    b990:	e1d110fe 	ldrsh	r1, [r1, #14]
    b994:	e3510000 	cmp	r1, #0
    b998:	e24dd040 	sub	sp, sp, #64	; 0x40
    b99c:	e1a05002 	mov	r5, r2
    b9a0:	e1a06003 	mov	r6, r3
    b9a4:	ba00000f 	blt	b9e8 <__swhatbuf_r+0x60>
    b9a8:	e28d2004 	add	r2, sp, #4
    b9ac:	ebffffa0 	bl	b834 <_fstat_r>
    b9b0:	e3500000 	cmp	r0, #0
    b9b4:	ba00000b 	blt	b9e8 <__swhatbuf_r+0x60>
    b9b8:	e59d2008 	ldr	r2, [sp, #8]
    b9bc:	e2022a0f 	and	r2, r2, #61440	; 0xf000
    b9c0:	e2423a02 	sub	r3, r2, #8192	; 0x2000
    b9c4:	e2732000 	rsbs	r2, r3, #0
    b9c8:	e0a22003 	adc	r2, r2, r3
    b9cc:	e3a03b01 	mov	r3, #1024	; 0x400
    b9d0:	e3a00b02 	mov	r0, #2048	; 0x800
    b9d4:	e5862000 	str	r2, [r6]
    b9d8:	e5853000 	str	r3, [r5]
    b9dc:	e28dd040 	add	sp, sp, #64	; 0x40
    b9e0:	e8bd4070 	pop	{r4, r5, r6, lr}
    b9e4:	e12fff1e 	bx	lr
    b9e8:	e1d420bc 	ldrh	r2, [r4, #12]
    b9ec:	e2122080 	ands	r2, r2, #128	; 0x80
    b9f0:	e3a00000 	mov	r0, #0
    b9f4:	13a03040 	movne	r3, #64	; 0x40
    b9f8:	e5860000 	str	r0, [r6]
    b9fc:	15853000 	strne	r3, [r5]
    ba00:	1afffff5 	bne	b9dc <__swhatbuf_r+0x54>
    ba04:	e3a03b01 	mov	r3, #1024	; 0x400
    ba08:	e1a00002 	mov	r0, r2
    ba0c:	e5853000 	str	r3, [r5]
    ba10:	e28dd040 	add	sp, sp, #64	; 0x40
    ba14:	e8bd4070 	pop	{r4, r5, r6, lr}
    ba18:	e12fff1e 	bx	lr

0000ba1c <__smakebuf_r>:
    ba1c:	e1d120bc 	ldrh	r2, [r1, #12]
    ba20:	e3120002 	tst	r2, #2
    ba24:	e1a03001 	mov	r3, r1
    ba28:	0a000005 	beq	ba44 <__smakebuf_r+0x28>
    ba2c:	e3a01001 	mov	r1, #1
    ba30:	e2832043 	add	r2, r3, #67	; 0x43
    ba34:	e5831014 	str	r1, [r3, #20]
    ba38:	e5832000 	str	r2, [r3]
    ba3c:	e5832010 	str	r2, [r3, #16]
    ba40:	e12fff1e 	bx	lr
    ba44:	e92d4070 	push	{r4, r5, r6, lr}
    ba48:	e24dd008 	sub	sp, sp, #8
    ba4c:	e28d3004 	add	r3, sp, #4
    ba50:	e1a0200d 	mov	r2, sp
    ba54:	e1a04001 	mov	r4, r1
    ba58:	e1a05000 	mov	r5, r0
    ba5c:	ebffffc9 	bl	b988 <__swhatbuf_r>
    ba60:	e59d1000 	ldr	r1, [sp]
    ba64:	e1a06000 	mov	r6, r0
    ba68:	e1a00005 	mov	r0, r5
    ba6c:	eb000024 	bl	bb04 <_malloc_r>
    ba70:	e3500000 	cmp	r0, #0
    ba74:	e1d430fc 	ldrsh	r3, [r4, #12]
    ba78:	0a000016 	beq	bad8 <__smakebuf_r+0xbc>
    ba7c:	e59dc004 	ldr	ip, [sp, #4]
    ba80:	e59f1078 	ldr	r1, [pc, #120]	; bb00 <__smakebuf_r+0xe4>
    ba84:	e59d2000 	ldr	r2, [sp]
    ba88:	e3833080 	orr	r3, r3, #128	; 0x80
    ba8c:	e35c0000 	cmp	ip, #0
    ba90:	e585103c 	str	r1, [r5, #60]	; 0x3c
    ba94:	e1c430bc 	strh	r3, [r4, #12]
    ba98:	e5840000 	str	r0, [r4]
    ba9c:	e5840010 	str	r0, [r4, #16]
    baa0:	e5842014 	str	r2, [r4, #20]
    baa4:	1a000004 	bne	babc <__smakebuf_r+0xa0>
    baa8:	e1833006 	orr	r3, r3, r6
    baac:	e1c430bc 	strh	r3, [r4, #12]
    bab0:	e28dd008 	add	sp, sp, #8
    bab4:	e8bd4070 	pop	{r4, r5, r6, lr}
    bab8:	e12fff1e 	bx	lr
    babc:	e1a00005 	mov	r0, r5
    bac0:	e1d410fe 	ldrsh	r1, [r4, #14]
    bac4:	eb0014ef 	bl	10e88 <_isatty_r>
    bac8:	e1d430fc 	ldrsh	r3, [r4, #12]
    bacc:	e3500000 	cmp	r0, #0
    bad0:	13833001 	orrne	r3, r3, #1
    bad4:	eafffff3 	b	baa8 <__smakebuf_r+0x8c>
    bad8:	e3130c02 	tst	r3, #512	; 0x200
    badc:	1afffff3 	bne	bab0 <__smakebuf_r+0x94>
    bae0:	e3a01001 	mov	r1, #1
    bae4:	e2842043 	add	r2, r4, #67	; 0x43
    bae8:	e3833002 	orr	r3, r3, #2
    baec:	e1c430bc 	strh	r3, [r4, #12]
    baf0:	e5841014 	str	r1, [r4, #20]
    baf4:	e5842000 	str	r2, [r4]
    baf8:	e5842010 	str	r2, [r4, #16]
    bafc:	eaffffeb 	b	bab0 <__smakebuf_r+0x94>
    bb00:	0000ab14 	andeq	sl, r0, r4, lsl fp

0000bb04 <_malloc_r>:
    bb04:	e92d4ff0 	push	{r4, r5, r6, r7, r8, r9, sl, fp, lr}
    bb08:	e281500b 	add	r5, r1, #11
    bb0c:	e3550016 	cmp	r5, #22
    bb10:	e24dd00c 	sub	sp, sp, #12
    bb14:	e1a06000 	mov	r6, r0
    bb18:	9a000073 	bls	bcec <_malloc_r+0x1e8>
    bb1c:	e3c55007 	bic	r5, r5, #7
    bb20:	e1510005 	cmp	r1, r5
    bb24:	93a01000 	movls	r1, #0
    bb28:	83a01001 	movhi	r1, #1
    bb2c:	e1913fa5 	orrs	r3, r1, r5, lsr #31
    bb30:	1a00008a 	bne	bd60 <_malloc_r+0x25c>
    bb34:	eb00029a 	bl	c5a4 <__malloc_lock>
    bb38:	e3550f7e 	cmp	r5, #504	; 0x1f8
    bb3c:	3a0001cf 	bcc	c280 <_malloc_r+0x77c>
    bb40:	e1b034a5 	lsrs	r3, r5, #9
    bb44:	0a00008c 	beq	bd7c <_malloc_r+0x278>
    bb48:	e3530004 	cmp	r3, #4
    bb4c:	8a0000da 	bhi	bebc <_malloc_r+0x3b8>
    bb50:	e1a00325 	lsr	r0, r5, #6
    bb54:	e280c039 	add	ip, r0, #57	; 0x39
    bb58:	e1a0108c 	lsl	r1, ip, #1
    bb5c:	e2800038 	add	r0, r0, #56	; 0x38
    bb60:	e59f7728 	ldr	r7, [pc, #1832]	; c290 <_malloc_r+0x78c>
    bb64:	e0871101 	add	r1, r7, r1, lsl #2
    bb68:	e5914004 	ldr	r4, [r1, #4]
    bb6c:	e2411008 	sub	r1, r1, #8
    bb70:	e1510004 	cmp	r1, r4
    bb74:	1a000005 	bne	bb90 <_malloc_r+0x8c>
    bb78:	ea000083 	b	bd8c <_malloc_r+0x288>
    bb7c:	e3520000 	cmp	r2, #0
    bb80:	aa000067 	bge	bd24 <_malloc_r+0x220>
    bb84:	e594400c 	ldr	r4, [r4, #12]
    bb88:	e1510004 	cmp	r1, r4
    bb8c:	0a00007e 	beq	bd8c <_malloc_r+0x288>
    bb90:	e5943004 	ldr	r3, [r4, #4]
    bb94:	e3c33003 	bic	r3, r3, #3
    bb98:	e0652003 	rsb	r2, r5, r3
    bb9c:	e352000f 	cmp	r2, #15
    bba0:	dafffff5 	ble	bb7c <_malloc_r+0x78>
    bba4:	e59f16e4 	ldr	r1, [pc, #1764]	; c290 <_malloc_r+0x78c>
    bba8:	e5974010 	ldr	r4, [r7, #16]
    bbac:	e281c008 	add	ip, r1, #8
    bbb0:	e154000c 	cmp	r4, ip
    bbb4:	05918004 	ldreq	r8, [r1, #4]
    bbb8:	0a000019 	beq	bc24 <_malloc_r+0x120>
    bbbc:	e5943004 	ldr	r3, [r4, #4]
    bbc0:	e3c33003 	bic	r3, r3, #3
    bbc4:	e0652003 	rsb	r2, r5, r3
    bbc8:	e352000f 	cmp	r2, #15
    bbcc:	ca0000df 	bgt	bf50 <_malloc_r+0x44c>
    bbd0:	e3520000 	cmp	r2, #0
    bbd4:	e581c014 	str	ip, [r1, #20]
    bbd8:	e581c010 	str	ip, [r1, #16]
    bbdc:	aa00006c 	bge	bd94 <_malloc_r+0x290>
    bbe0:	e3530c02 	cmp	r3, #512	; 0x200
    bbe4:	2a0000bd 	bcs	bee0 <_malloc_r+0x3dc>
    bbe8:	e3a09001 	mov	r9, #1
    bbec:	e5912004 	ldr	r2, [r1, #4]
    bbf0:	e1a031a3 	lsr	r3, r3, #3
    bbf4:	e083e009 	add	lr, r3, r9
    bbf8:	e1a03143 	asr	r3, r3, #2
    bbfc:	e1823319 	orr	r3, r2, r9, lsl r3
    bc00:	e081818e 	add	r8, r1, lr, lsl #3
    bc04:	e2482008 	sub	r2, r8, #8
    bc08:	e1a08003 	mov	r8, r3
    bc0c:	e791918e 	ldr	r9, [r1, lr, lsl #3]
    bc10:	e584200c 	str	r2, [r4, #12]
    bc14:	e5849008 	str	r9, [r4, #8]
    bc18:	e5813004 	str	r3, [r1, #4]
    bc1c:	e781418e 	str	r4, [r1, lr, lsl #3]
    bc20:	e589400c 	str	r4, [r9, #12]
    bc24:	e3a0e001 	mov	lr, #1
    bc28:	e1a03140 	asr	r3, r0, #2
    bc2c:	e1a0e31e 	lsl	lr, lr, r3
    bc30:	e15e0008 	cmp	lr, r8
    bc34:	8a000061 	bhi	bdc0 <_malloc_r+0x2bc>
    bc38:	e11e0008 	tst	lr, r8
    bc3c:	1a000008 	bne	bc64 <_malloc_r+0x160>
    bc40:	e1a0e08e 	lsl	lr, lr, #1
    bc44:	e3c00003 	bic	r0, r0, #3
    bc48:	e11e0008 	tst	lr, r8
    bc4c:	e2800004 	add	r0, r0, #4
    bc50:	1a000003 	bne	bc64 <_malloc_r+0x160>
    bc54:	e1a0e08e 	lsl	lr, lr, #1
    bc58:	e11e0008 	tst	lr, r8
    bc5c:	e2800004 	add	r0, r0, #4
    bc60:	0afffffb 	beq	bc54 <_malloc_r+0x150>
    bc64:	e0879180 	add	r9, r7, r0, lsl #3
    bc68:	e1a04009 	mov	r4, r9
    bc6c:	e1a08000 	mov	r8, r0
    bc70:	e594300c 	ldr	r3, [r4, #12]
    bc74:	e1540003 	cmp	r4, r3
    bc78:	1a000005 	bne	bc94 <_malloc_r+0x190>
    bc7c:	ea0000c0 	b	bf84 <_malloc_r+0x480>
    bc80:	e3510000 	cmp	r1, #0
    bc84:	aa0000c8 	bge	bfac <_malloc_r+0x4a8>
    bc88:	e593300c 	ldr	r3, [r3, #12]
    bc8c:	e1540003 	cmp	r4, r3
    bc90:	0a0000bb 	beq	bf84 <_malloc_r+0x480>
    bc94:	e5932004 	ldr	r2, [r3, #4]
    bc98:	e3c22003 	bic	r2, r2, #3
    bc9c:	e0651002 	rsb	r1, r5, r2
    bca0:	e351000f 	cmp	r1, #15
    bca4:	dafffff5 	ble	bc80 <_malloc_r+0x17c>
    bca8:	e1a04003 	mov	r4, r3
    bcac:	e593200c 	ldr	r2, [r3, #12]
    bcb0:	e5b4e008 	ldr	lr, [r4, #8]!
    bcb4:	e3858001 	orr	r8, r5, #1
    bcb8:	e5838004 	str	r8, [r3, #4]
    bcbc:	e0835005 	add	r5, r3, r5
    bcc0:	e3813001 	orr	r3, r1, #1
    bcc4:	e58e200c 	str	r2, [lr, #12]
    bcc8:	e1a00006 	mov	r0, r6
    bccc:	e582e008 	str	lr, [r2, #8]
    bcd0:	e5875014 	str	r5, [r7, #20]
    bcd4:	e5875010 	str	r5, [r7, #16]
    bcd8:	e585c00c 	str	ip, [r5, #12]
    bcdc:	e9851008 	stmib	r5, {r3, ip}
    bce0:	e7851001 	str	r1, [r5, r1]
    bce4:	eb00022f 	bl	c5a8 <__malloc_unlock>
    bce8:	ea000018 	b	bd50 <_malloc_r+0x24c>
    bcec:	e3510010 	cmp	r1, #16
    bcf0:	8a00001a 	bhi	bd60 <_malloc_r+0x25c>
    bcf4:	eb00022a 	bl	c5a4 <__malloc_lock>
    bcf8:	e3a05010 	mov	r5, #16
    bcfc:	e3a03006 	mov	r3, #6
    bd00:	e3a00002 	mov	r0, #2
    bd04:	e59f7584 	ldr	r7, [pc, #1412]	; c290 <_malloc_r+0x78c>
    bd08:	e0873103 	add	r3, r7, r3, lsl #2
    bd0c:	e5934004 	ldr	r4, [r3, #4]
    bd10:	e2432008 	sub	r2, r3, #8
    bd14:	e1540002 	cmp	r4, r2
    bd18:	0a00009e 	beq	bf98 <_malloc_r+0x494>
    bd1c:	e5943004 	ldr	r3, [r4, #4]
    bd20:	e3c33003 	bic	r3, r3, #3
    bd24:	e0843003 	add	r3, r4, r3
    bd28:	e5932004 	ldr	r2, [r3, #4]
    bd2c:	e594100c 	ldr	r1, [r4, #12]
    bd30:	e594c008 	ldr	ip, [r4, #8]
    bd34:	e3822001 	orr	r2, r2, #1
    bd38:	e58c100c 	str	r1, [ip, #12]
    bd3c:	e1a00006 	mov	r0, r6
    bd40:	e581c008 	str	ip, [r1, #8]
    bd44:	e5832004 	str	r2, [r3, #4]
    bd48:	eb000216 	bl	c5a8 <__malloc_unlock>
    bd4c:	e2844008 	add	r4, r4, #8
    bd50:	e1a00004 	mov	r0, r4
    bd54:	e28dd00c 	add	sp, sp, #12
    bd58:	e8bd4ff0 	pop	{r4, r5, r6, r7, r8, r9, sl, fp, lr}
    bd5c:	e12fff1e 	bx	lr
    bd60:	e3a04000 	mov	r4, #0
    bd64:	e3a0300c 	mov	r3, #12
    bd68:	e1a00004 	mov	r0, r4
    bd6c:	e5863000 	str	r3, [r6]
    bd70:	e28dd00c 	add	sp, sp, #12
    bd74:	e8bd4ff0 	pop	{r4, r5, r6, r7, r8, r9, sl, fp, lr}
    bd78:	e12fff1e 	bx	lr
    bd7c:	e3a01080 	mov	r1, #128	; 0x80
    bd80:	e3a0c040 	mov	ip, #64	; 0x40
    bd84:	e3a0003f 	mov	r0, #63	; 0x3f
    bd88:	eaffff74 	b	bb60 <_malloc_r+0x5c>
    bd8c:	e1a0000c 	mov	r0, ip
    bd90:	eaffff83 	b	bba4 <_malloc_r+0xa0>
    bd94:	e0843003 	add	r3, r4, r3
    bd98:	e5932004 	ldr	r2, [r3, #4]
    bd9c:	e3822001 	orr	r2, r2, #1
    bda0:	e1a00006 	mov	r0, r6
    bda4:	e5832004 	str	r2, [r3, #4]
    bda8:	e2844008 	add	r4, r4, #8
    bdac:	eb0001fd 	bl	c5a8 <__malloc_unlock>
    bdb0:	e1a00004 	mov	r0, r4
    bdb4:	e28dd00c 	add	sp, sp, #12
    bdb8:	e8bd4ff0 	pop	{r4, r5, r6, r7, r8, r9, sl, fp, lr}
    bdbc:	e12fff1e 	bx	lr
    bdc0:	e5974008 	ldr	r4, [r7, #8]
    bdc4:	e5948004 	ldr	r8, [r4, #4]
    bdc8:	e3c88003 	bic	r8, r8, #3
    bdcc:	e0653008 	rsb	r3, r5, r8
    bdd0:	e353000f 	cmp	r3, #15
    bdd4:	c3a02000 	movgt	r2, #0
    bdd8:	d3a02001 	movle	r2, #1
    bddc:	e1580005 	cmp	r8, r5
    bde0:	33822001 	orrcc	r2, r2, #1
    bde4:	e3520000 	cmp	r2, #0
    bde8:	0a000026 	beq	be88 <_malloc_r+0x384>
    bdec:	e59f94a0 	ldr	r9, [pc, #1184]	; c294 <_malloc_r+0x790>
    bdf0:	e59f34a0 	ldr	r3, [pc, #1184]	; c298 <_malloc_r+0x794>
    bdf4:	e5992000 	ldr	r2, [r9]
    bdf8:	e5933000 	ldr	r3, [r3]
    bdfc:	e3720001 	cmn	r2, #1
    be00:	e0853003 	add	r3, r5, r3
    be04:	12833a01 	addne	r3, r3, #4096	; 0x1000
    be08:	1283300f 	addne	r3, r3, #15
    be0c:	13c33eff 	bicne	r3, r3, #4080	; 0xff0
    be10:	02833010 	addeq	r3, r3, #16
    be14:	13c3300f 	bicne	r3, r3, #15
    be18:	e1a01003 	mov	r1, r3
    be1c:	e1a00006 	mov	r0, r6
    be20:	e58d3004 	str	r3, [sp, #4]
    be24:	eb00030d 	bl	ca60 <_sbrk_r>
    be28:	e3700001 	cmn	r0, #1
    be2c:	e1a0a000 	mov	sl, r0
    be30:	e59d3004 	ldr	r3, [sp, #4]
    be34:	0a0000eb 	beq	c1e8 <_malloc_r+0x6e4>
    be38:	e0841008 	add	r1, r4, r8
    be3c:	e1540007 	cmp	r4, r7
    be40:	11510000 	cmpne	r1, r0
    be44:	e59f0444 	ldr	r0, [pc, #1092]	; c290 <_malloc_r+0x78c>
    be48:	9a000085 	bls	c064 <_malloc_r+0x560>
    be4c:	e5904008 	ldr	r4, [r0, #8]
    be50:	e5943004 	ldr	r3, [r4, #4]
    be54:	e3c33003 	bic	r3, r3, #3
    be58:	e1550003 	cmp	r5, r3
    be5c:	93a02000 	movls	r2, #0
    be60:	83a02001 	movhi	r2, #1
    be64:	e0653003 	rsb	r3, r5, r3
    be68:	e353000f 	cmp	r3, #15
    be6c:	d3822001 	orrle	r2, r2, #1
    be70:	e3520000 	cmp	r2, #0
    be74:	0a000003 	beq	be88 <_malloc_r+0x384>
    be78:	e1a00006 	mov	r0, r6
    be7c:	eb0001c9 	bl	c5a8 <__malloc_unlock>
    be80:	e3a04000 	mov	r4, #0
    be84:	eaffffb1 	b	bd50 <_malloc_r+0x24c>
    be88:	e3852001 	orr	r2, r5, #1
    be8c:	e3833001 	orr	r3, r3, #1
    be90:	e0845005 	add	r5, r4, r5
    be94:	e5842004 	str	r2, [r4, #4]
    be98:	e1a00006 	mov	r0, r6
    be9c:	e5875008 	str	r5, [r7, #8]
    bea0:	e2844008 	add	r4, r4, #8
    bea4:	e5853004 	str	r3, [r5, #4]
    bea8:	eb0001be 	bl	c5a8 <__malloc_unlock>
    beac:	e1a00004 	mov	r0, r4
    beb0:	e28dd00c 	add	sp, sp, #12
    beb4:	e8bd4ff0 	pop	{r4, r5, r6, r7, r8, r9, sl, fp, lr}
    beb8:	e12fff1e 	bx	lr
    bebc:	e3530014 	cmp	r3, #20
    bec0:	9a000045 	bls	bfdc <_malloc_r+0x4d8>
    bec4:	e3530054 	cmp	r3, #84	; 0x54
    bec8:	8a0000a8 	bhi	c170 <_malloc_r+0x66c>
    becc:	e1a00625 	lsr	r0, r5, #12
    bed0:	e280c06f 	add	ip, r0, #111	; 0x6f
    bed4:	e1a0108c 	lsl	r1, ip, #1
    bed8:	e280006e 	add	r0, r0, #110	; 0x6e
    bedc:	eaffff1f 	b	bb60 <_malloc_r+0x5c>
    bee0:	e1a014a3 	lsr	r1, r3, #9
    bee4:	e3510004 	cmp	r1, #4
    bee8:	9a00003f 	bls	bfec <_malloc_r+0x4e8>
    beec:	e3510014 	cmp	r1, #20
    bef0:	8a0000b5 	bhi	c1cc <_malloc_r+0x6c8>
    bef4:	e281205c 	add	r2, r1, #92	; 0x5c
    bef8:	e1a02082 	lsl	r2, r2, #1
    befc:	e281105b 	add	r1, r1, #91	; 0x5b
    bf00:	e087e102 	add	lr, r7, r2, lsl #2
    bf04:	e7972102 	ldr	r2, [r7, r2, lsl #2]
    bf08:	e24ee008 	sub	lr, lr, #8
    bf0c:	e15e0002 	cmp	lr, r2
    bf10:	e59f9378 	ldr	r9, [pc, #888]	; c290 <_malloc_r+0x78c>
    bf14:	0a00009c 	beq	c18c <_malloc_r+0x688>
    bf18:	e5921004 	ldr	r1, [r2, #4]
    bf1c:	e3c11003 	bic	r1, r1, #3
    bf20:	e1530001 	cmp	r3, r1
    bf24:	2a000002 	bcs	bf34 <_malloc_r+0x430>
    bf28:	e5922008 	ldr	r2, [r2, #8]
    bf2c:	e15e0002 	cmp	lr, r2
    bf30:	1afffff8 	bne	bf18 <_malloc_r+0x414>
    bf34:	e592e00c 	ldr	lr, [r2, #12]
    bf38:	e5978004 	ldr	r8, [r7, #4]
    bf3c:	e584e00c 	str	lr, [r4, #12]
    bf40:	e5842008 	str	r2, [r4, #8]
    bf44:	e58e4008 	str	r4, [lr, #8]
    bf48:	e582400c 	str	r4, [r2, #12]
    bf4c:	eaffff34 	b	bc24 <_malloc_r+0x120>
    bf50:	e385e001 	orr	lr, r5, #1
    bf54:	e3823001 	orr	r3, r2, #1
    bf58:	e0845005 	add	r5, r4, r5
    bf5c:	e584e004 	str	lr, [r4, #4]
    bf60:	e1a00006 	mov	r0, r6
    bf64:	e5815014 	str	r5, [r1, #20]
    bf68:	e5815010 	str	r5, [r1, #16]
    bf6c:	e585c00c 	str	ip, [r5, #12]
    bf70:	e9851008 	stmib	r5, {r3, ip}
    bf74:	e7852002 	str	r2, [r5, r2]
    bf78:	e2844008 	add	r4, r4, #8
    bf7c:	eb000189 	bl	c5a8 <__malloc_unlock>
    bf80:	eaffff72 	b	bd50 <_malloc_r+0x24c>
    bf84:	e2888001 	add	r8, r8, #1
    bf88:	e3180003 	tst	r8, #3
    bf8c:	e2844008 	add	r4, r4, #8
    bf90:	1affff36 	bne	bc70 <_malloc_r+0x16c>
    bf94:	ea00001d 	b	c010 <_malloc_r+0x50c>
    bf98:	e593400c 	ldr	r4, [r3, #12]
    bf9c:	e1530004 	cmp	r3, r4
    bfa0:	02800002 	addeq	r0, r0, #2
    bfa4:	0afffefe 	beq	bba4 <_malloc_r+0xa0>
    bfa8:	eaffff5b 	b	bd1c <_malloc_r+0x218>
    bfac:	e1a04003 	mov	r4, r3
    bfb0:	e0832002 	add	r2, r3, r2
    bfb4:	e5921004 	ldr	r1, [r2, #4]
    bfb8:	e593c00c 	ldr	ip, [r3, #12]
    bfbc:	e5b4e008 	ldr	lr, [r4, #8]!
    bfc0:	e3813001 	orr	r3, r1, #1
    bfc4:	e5823004 	str	r3, [r2, #4]
    bfc8:	e1a00006 	mov	r0, r6
    bfcc:	e58ec00c 	str	ip, [lr, #12]
    bfd0:	e58ce008 	str	lr, [ip, #8]
    bfd4:	eb000173 	bl	c5a8 <__malloc_unlock>
    bfd8:	eaffff5c 	b	bd50 <_malloc_r+0x24c>
    bfdc:	e283c05c 	add	ip, r3, #92	; 0x5c
    bfe0:	e283005b 	add	r0, r3, #91	; 0x5b
    bfe4:	e1a0108c 	lsl	r1, ip, #1
    bfe8:	eafffedc 	b	bb60 <_malloc_r+0x5c>
    bfec:	e1a01323 	lsr	r1, r3, #6
    bff0:	e2812039 	add	r2, r1, #57	; 0x39
    bff4:	e1a02082 	lsl	r2, r2, #1
    bff8:	e2811038 	add	r1, r1, #56	; 0x38
    bffc:	eaffffbf 	b	bf00 <_malloc_r+0x3fc>
    c000:	e4193008 	ldr	r3, [r9], #-8
    c004:	e1590003 	cmp	r9, r3
    c008:	e2400001 	sub	r0, r0, #1
    c00c:	1a000099 	bne	c278 <_malloc_r+0x774>
    c010:	e3100003 	tst	r0, #3
    c014:	1afffff9 	bne	c000 <_malloc_r+0x4fc>
    c018:	e5973004 	ldr	r3, [r7, #4]
    c01c:	e1c3300e 	bic	r3, r3, lr
    c020:	e5873004 	str	r3, [r7, #4]
    c024:	e1b0e08e 	lsls	lr, lr, #1
    c028:	13a02001 	movne	r2, #1
    c02c:	03a02000 	moveq	r2, #0
    c030:	e15e0003 	cmp	lr, r3
    c034:	83a02000 	movhi	r2, #0
    c038:	92022001 	andls	r2, r2, #1
    c03c:	e3520000 	cmp	r2, #0
    c040:	0affff5e 	beq	bdc0 <_malloc_r+0x2bc>
    c044:	e11e0003 	tst	lr, r3
    c048:	e1a00008 	mov	r0, r8
    c04c:	1affff04 	bne	bc64 <_malloc_r+0x160>
    c050:	e1a0e08e 	lsl	lr, lr, #1
    c054:	e11e0003 	tst	lr, r3
    c058:	e2800004 	add	r0, r0, #4
    c05c:	0afffffb 	beq	c050 <_malloc_r+0x54c>
    c060:	eafffeff 	b	bc64 <_malloc_r+0x160>
    c064:	e59fb230 	ldr	fp, [pc, #560]	; c29c <_malloc_r+0x798>
    c068:	e59b2000 	ldr	r2, [fp]
    c06c:	e151000a 	cmp	r1, sl
    c070:	e0832002 	add	r2, r3, r2
    c074:	e58b2000 	str	r2, [fp]
    c078:	0a00005e 	beq	c1f8 <_malloc_r+0x6f4>
    c07c:	e5990000 	ldr	r0, [r9]
    c080:	e3700001 	cmn	r0, #1
    c084:	1061100a 	rsbne	r1, r1, sl
    c088:	e59f0204 	ldr	r0, [pc, #516]	; c294 <_malloc_r+0x790>
    c08c:	10812002 	addne	r2, r1, r2
    c090:	0580a000 	streq	sl, [r0]
    c094:	158b2000 	strne	r2, [fp]
    c098:	e21a2007 	ands	r2, sl, #7
    c09c:	03a02a01 	moveq	r2, #4096	; 0x1000
    c0a0:	12621008 	rsbne	r1, r2, #8
    c0a4:	108aa001 	addne	sl, sl, r1
    c0a8:	12622a01 	rsbne	r2, r2, #4096	; 0x1000
    c0ac:	e08a3003 	add	r3, sl, r3
    c0b0:	e1a03a03 	lsl	r3, r3, #20
    c0b4:	12822008 	addne	r2, r2, #8
    c0b8:	e0429a23 	sub	r9, r2, r3, lsr #20
    c0bc:	e1a01009 	mov	r1, r9
    c0c0:	e1a00006 	mov	r0, r6
    c0c4:	eb000265 	bl	ca60 <_sbrk_r>
    c0c8:	e3700001 	cmn	r0, #1
    c0cc:	03a09000 	moveq	r9, #0
    c0d0:	03a03001 	moveq	r3, #1
    c0d4:	106a3000 	rsbne	r3, sl, r0
    c0d8:	e59b2000 	ldr	r2, [fp]
    c0dc:	10833009 	addne	r3, r3, r9
    c0e0:	13833001 	orrne	r3, r3, #1
    c0e4:	e0892002 	add	r2, r9, r2
    c0e8:	e1540007 	cmp	r4, r7
    c0ec:	e587a008 	str	sl, [r7, #8]
    c0f0:	e58b2000 	str	r2, [fp]
    c0f4:	e58a3004 	str	r3, [sl, #4]
    c0f8:	e59f919c 	ldr	r9, [pc, #412]	; c29c <_malloc_r+0x798>
    c0fc:	0a00000f 	beq	c140 <_malloc_r+0x63c>
    c100:	e358000f 	cmp	r8, #15
    c104:	93a03001 	movls	r3, #1
    c108:	958a3004 	strls	r3, [sl, #4]
    c10c:	9affff59 	bls	be78 <_malloc_r+0x374>
    c110:	e3a00005 	mov	r0, #5
    c114:	e5941004 	ldr	r1, [r4, #4]
    c118:	e248300c 	sub	r3, r8, #12
    c11c:	e3c33007 	bic	r3, r3, #7
    c120:	e2011001 	and	r1, r1, #1
    c124:	e1811003 	orr	r1, r1, r3
    c128:	e353000f 	cmp	r3, #15
    c12c:	e0843003 	add	r3, r4, r3
    c130:	e5841004 	str	r1, [r4, #4]
    c134:	e5830004 	str	r0, [r3, #4]
    c138:	e5830008 	str	r0, [r3, #8]
    c13c:	8a000038 	bhi	c224 <_malloc_r+0x720>
    c140:	e59f3158 	ldr	r3, [pc, #344]	; c2a0 <_malloc_r+0x79c>
    c144:	e5931000 	ldr	r1, [r3]
    c148:	e1520001 	cmp	r2, r1
    c14c:	e59f1150 	ldr	r1, [pc, #336]	; c2a4 <_malloc_r+0x7a0>
    c150:	85832000 	strhi	r2, [r3]
    c154:	e5974008 	ldr	r4, [r7, #8]
    c158:	e5913000 	ldr	r3, [r1]
    c15c:	e1520003 	cmp	r2, r3
    c160:	e5943004 	ldr	r3, [r4, #4]
    c164:	85812000 	strhi	r2, [r1]
    c168:	e3c33003 	bic	r3, r3, #3
    c16c:	eaffff39 	b	be58 <_malloc_r+0x354>
    c170:	e3530f55 	cmp	r3, #340	; 0x154
    c174:	8a00000c 	bhi	c1ac <_malloc_r+0x6a8>
    c178:	e1a007a5 	lsr	r0, r5, #15
    c17c:	e280c078 	add	ip, r0, #120	; 0x78
    c180:	e1a0108c 	lsl	r1, ip, #1
    c184:	e2800077 	add	r0, r0, #119	; 0x77
    c188:	eafffe74 	b	bb60 <_malloc_r+0x5c>
    c18c:	e3a08001 	mov	r8, #1
    c190:	e5993004 	ldr	r3, [r9, #4]
    c194:	e1a01141 	asr	r1, r1, #2
    c198:	e1833118 	orr	r3, r3, r8, lsl r1
    c19c:	e5893004 	str	r3, [r9, #4]
    c1a0:	e1a08003 	mov	r8, r3
    c1a4:	e1a0200e 	mov	r2, lr
    c1a8:	eaffff63 	b	bf3c <_malloc_r+0x438>
    c1ac:	e59f20f4 	ldr	r2, [pc, #244]	; c2a8 <_malloc_r+0x7a4>
    c1b0:	e1530002 	cmp	r3, r2
    c1b4:	8a000016 	bhi	c214 <_malloc_r+0x710>
    c1b8:	e1a00925 	lsr	r0, r5, #18
    c1bc:	e280c07d 	add	ip, r0, #125	; 0x7d
    c1c0:	e1a0108c 	lsl	r1, ip, #1
    c1c4:	e280007c 	add	r0, r0, #124	; 0x7c
    c1c8:	eafffe64 	b	bb60 <_malloc_r+0x5c>
    c1cc:	e3510054 	cmp	r1, #84	; 0x54
    c1d0:	8a000018 	bhi	c238 <_malloc_r+0x734>
    c1d4:	e1a01623 	lsr	r1, r3, #12
    c1d8:	e281206f 	add	r2, r1, #111	; 0x6f
    c1dc:	e1a02082 	lsl	r2, r2, #1
    c1e0:	e281106e 	add	r1, r1, #110	; 0x6e
    c1e4:	eaffff45 	b	bf00 <_malloc_r+0x3fc>
    c1e8:	e5974008 	ldr	r4, [r7, #8]
    c1ec:	e5943004 	ldr	r3, [r4, #4]
    c1f0:	e3c33003 	bic	r3, r3, #3
    c1f4:	eaffff17 	b	be58 <_malloc_r+0x354>
    c1f8:	e1b0ca01 	lsls	ip, r1, #20
    c1fc:	1affff9e 	bne	c07c <_malloc_r+0x578>
    c200:	e0883003 	add	r3, r8, r3
    c204:	e5901008 	ldr	r1, [r0, #8]
    c208:	e3833001 	orr	r3, r3, #1
    c20c:	e5813004 	str	r3, [r1, #4]
    c210:	eaffffca 	b	c140 <_malloc_r+0x63c>
    c214:	e3a010fe 	mov	r1, #254	; 0xfe
    c218:	e3a0c07f 	mov	ip, #127	; 0x7f
    c21c:	e3a0007e 	mov	r0, #126	; 0x7e
    c220:	eafffe4e 	b	bb60 <_malloc_r+0x5c>
    c224:	e2841008 	add	r1, r4, #8
    c228:	e1a00006 	mov	r0, r6
    c22c:	ebfffb8e 	bl	b06c <_free_r>
    c230:	e5992000 	ldr	r2, [r9]
    c234:	eaffffc1 	b	c140 <_malloc_r+0x63c>
    c238:	e3510f55 	cmp	r1, #340	; 0x154
    c23c:	8a000004 	bhi	c254 <_malloc_r+0x750>
    c240:	e1a017a3 	lsr	r1, r3, #15
    c244:	e2812078 	add	r2, r1, #120	; 0x78
    c248:	e1a02082 	lsl	r2, r2, #1
    c24c:	e2811077 	add	r1, r1, #119	; 0x77
    c250:	eaffff2a 	b	bf00 <_malloc_r+0x3fc>
    c254:	e59f204c 	ldr	r2, [pc, #76]	; c2a8 <_malloc_r+0x7a4>
    c258:	e1510002 	cmp	r1, r2
    c25c:	91a01923 	lsrls	r1, r3, #18
    c260:	9281207d 	addls	r2, r1, #125	; 0x7d
    c264:	91a02082 	lslls	r2, r2, #1
    c268:	9281107c 	addls	r1, r1, #124	; 0x7c
    c26c:	83a020fe 	movhi	r2, #254	; 0xfe
    c270:	83a0107e 	movhi	r1, #126	; 0x7e
    c274:	eaffff21 	b	bf00 <_malloc_r+0x3fc>
    c278:	e5973004 	ldr	r3, [r7, #4]
    c27c:	eaffff68 	b	c024 <_malloc_r+0x520>
    c280:	e1a001a5 	lsr	r0, r5, #3
    c284:	e2803001 	add	r3, r0, #1
    c288:	e1a03083 	lsl	r3, r3, #1
    c28c:	eafffe9c 	b	bd04 <_malloc_r+0x200>
    c290:	00016fbc 			; <UNDEFINED> instruction: 0x00016fbc
    c294:	000173c8 	andeq	r7, r1, r8, asr #7
    c298:	0001f7e8 	andeq	pc, r1, r8, ror #15
    c29c:	0001f7ec 	andeq	pc, r1, ip, ror #15
    c2a0:	0001f7e4 	andeq	pc, r1, r4, ror #15
    c2a4:	0001f7e0 	andeq	pc, r1, r0, ror #15
    c2a8:	00000554 	andeq	r0, r0, r4, asr r5

0000c2ac <memchr>:
    c2ac:	e3100003 	tst	r0, #3
    c2b0:	e92d4030 	push	{r4, r5, lr}
    c2b4:	e201e0ff 	and	lr, r1, #255	; 0xff
    c2b8:	0a00003a 	beq	c3a8 <memchr+0xfc>
    c2bc:	e3520000 	cmp	r2, #0
    c2c0:	e2423001 	sub	r3, r2, #1
    c2c4:	0a00001f 	beq	c348 <memchr+0x9c>
    c2c8:	e5d02000 	ldrb	r2, [r0]
    c2cc:	e152000e 	cmp	r2, lr
    c2d0:	0a00001d 	beq	c34c <memchr+0xa0>
    c2d4:	e2802001 	add	r2, r0, #1
    c2d8:	ea000006 	b	c2f8 <memchr+0x4c>
    c2dc:	e3530000 	cmp	r3, #0
    c2e0:	0a000018 	beq	c348 <memchr+0x9c>
    c2e4:	e5d0c000 	ldrb	ip, [r0]
    c2e8:	e15c000e 	cmp	ip, lr
    c2ec:	e2822001 	add	r2, r2, #1
    c2f0:	e2433001 	sub	r3, r3, #1
    c2f4:	0a000014 	beq	c34c <memchr+0xa0>
    c2f8:	e3120003 	tst	r2, #3
    c2fc:	e1a00002 	mov	r0, r2
    c300:	1afffff5 	bne	c2dc <memchr+0x30>
    c304:	e3530003 	cmp	r3, #3
    c308:	8a000011 	bhi	c354 <memchr+0xa8>
    c30c:	e3530000 	cmp	r3, #0
    c310:	0a000026 	beq	c3b0 <memchr+0x104>
    c314:	e5d02000 	ldrb	r2, [r0]
    c318:	e152000e 	cmp	r2, lr
    c31c:	0a00000a 	beq	c34c <memchr+0xa0>
    c320:	e0803003 	add	r3, r0, r3
    c324:	e2802001 	add	r2, r0, #1
    c328:	ea000003 	b	c33c <memchr+0x90>
    c32c:	e5d01000 	ldrb	r1, [r0]
    c330:	e151000e 	cmp	r1, lr
    c334:	e2822001 	add	r2, r2, #1
    c338:	0a000003 	beq	c34c <memchr+0xa0>
    c33c:	e1530002 	cmp	r3, r2
    c340:	e1a00002 	mov	r0, r2
    c344:	1afffff8 	bne	c32c <memchr+0x80>
    c348:	e3a00000 	mov	r0, #0
    c34c:	e8bd4030 	pop	{r4, r5, lr}
    c350:	e12fff1e 	bx	lr
    c354:	e1a0c000 	mov	ip, r0
    c358:	e1a05401 	lsl	r5, r1, #8
    c35c:	e2055cff 	and	r5, r5, #65280	; 0xff00
    c360:	e185500e 	orr	r5, r5, lr
    c364:	e1855805 	orr	r5, r5, r5, lsl #16
    c368:	e59c1000 	ldr	r1, [ip]
    c36c:	e59f2044 	ldr	r2, [pc, #68]	; c3b8 <memchr+0x10c>
    c370:	e0211005 	eor	r1, r1, r5
    c374:	e0812002 	add	r2, r1, r2
    c378:	e59f403c 	ldr	r4, [pc, #60]	; c3bc <memchr+0x110>
    c37c:	e1c22001 	bic	r2, r2, r1
    c380:	e0044002 	and	r4, r4, r2
    c384:	e3540000 	cmp	r4, #0
    c388:	e1a0000c 	mov	r0, ip
    c38c:	e28cc004 	add	ip, ip, #4
    c390:	1affffdf 	bne	c314 <memchr+0x68>
    c394:	e2433004 	sub	r3, r3, #4
    c398:	e3530003 	cmp	r3, #3
    c39c:	e1a0000c 	mov	r0, ip
    c3a0:	8afffff0 	bhi	c368 <memchr+0xbc>
    c3a4:	eaffffd8 	b	c30c <memchr+0x60>
    c3a8:	e1a03002 	mov	r3, r2
    c3ac:	eaffffd4 	b	c304 <memchr+0x58>
    c3b0:	e1a00003 	mov	r0, r3
    c3b4:	eaffffe4 	b	c34c <memchr+0xa0>
    c3b8:	fefefeff 	mrc2	14, 7, pc, cr14, cr15, {7}
    c3bc:	80808080 	addhi	r8, r0, r0, lsl #1

0000c3c0 <memcpy>:
    c3c0:	e352000f 	cmp	r2, #15
    c3c4:	e92d40f0 	push	{r4, r5, r6, r7, lr}
    c3c8:	9a000029 	bls	c474 <memcpy+0xb4>
    c3cc:	e1813000 	orr	r3, r1, r0
    c3d0:	e3130003 	tst	r3, #3
    c3d4:	1a000031 	bne	c4a0 <memcpy+0xe0>
    c3d8:	e1a0e002 	mov	lr, r2
    c3dc:	e280c010 	add	ip, r0, #16
    c3e0:	e2813010 	add	r3, r1, #16
    c3e4:	e5137010 	ldr	r7, [r3, #-16]
    c3e8:	e513600c 	ldr	r6, [r3, #-12]
    c3ec:	e5135008 	ldr	r5, [r3, #-8]
    c3f0:	e5134004 	ldr	r4, [r3, #-4]
    c3f4:	e24ee010 	sub	lr, lr, #16
    c3f8:	e35e000f 	cmp	lr, #15
    c3fc:	e50c7010 	str	r7, [ip, #-16]
    c400:	e50c600c 	str	r6, [ip, #-12]
    c404:	e50c5008 	str	r5, [ip, #-8]
    c408:	e50c4004 	str	r4, [ip, #-4]
    c40c:	e2833010 	add	r3, r3, #16
    c410:	e28cc010 	add	ip, ip, #16
    c414:	8afffff2 	bhi	c3e4 <memcpy+0x24>
    c418:	e2423010 	sub	r3, r2, #16
    c41c:	e3c3300f 	bic	r3, r3, #15
    c420:	e202600f 	and	r6, r2, #15
    c424:	e2833010 	add	r3, r3, #16
    c428:	e3560003 	cmp	r6, #3
    c42c:	e0811003 	add	r1, r1, r3
    c430:	e0803003 	add	r3, r0, r3
    c434:	9a00001b 	bls	c4a8 <memcpy+0xe8>
    c438:	e1a04001 	mov	r4, r1
    c43c:	e1a0c006 	mov	ip, r6
    c440:	e243e004 	sub	lr, r3, #4
    c444:	e24cc004 	sub	ip, ip, #4
    c448:	e4945004 	ldr	r5, [r4], #4
    c44c:	e35c0003 	cmp	ip, #3
    c450:	e5ae5004 	str	r5, [lr, #4]!
    c454:	8afffffa 	bhi	c444 <memcpy+0x84>
    c458:	e246c004 	sub	ip, r6, #4
    c45c:	e3ccc003 	bic	ip, ip, #3
    c460:	e28cc004 	add	ip, ip, #4
    c464:	e083300c 	add	r3, r3, ip
    c468:	e081100c 	add	r1, r1, ip
    c46c:	e2022003 	and	r2, r2, #3
    c470:	ea000000 	b	c478 <memcpy+0xb8>
    c474:	e1a03000 	mov	r3, r0
    c478:	e3520000 	cmp	r2, #0
    c47c:	0a000005 	beq	c498 <memcpy+0xd8>
    c480:	e2433001 	sub	r3, r3, #1
    c484:	e0812002 	add	r2, r1, r2
    c488:	e4d1c001 	ldrb	ip, [r1], #1
    c48c:	e1510002 	cmp	r1, r2
    c490:	e5e3c001 	strb	ip, [r3, #1]!
    c494:	1afffffb 	bne	c488 <memcpy+0xc8>
    c498:	e8bd40f0 	pop	{r4, r5, r6, r7, lr}
    c49c:	e12fff1e 	bx	lr
    c4a0:	e1a03000 	mov	r3, r0
    c4a4:	eafffff5 	b	c480 <memcpy+0xc0>
    c4a8:	e1a02006 	mov	r2, r6
    c4ac:	eafffff1 	b	c478 <memcpy+0xb8>

0000c4b0 <memset>:
    c4b0:	e3100003 	tst	r0, #3
    c4b4:	e92d4010 	push	{r4, lr}
    c4b8:	0a000037 	beq	c59c <memset+0xec>
    c4bc:	e3520000 	cmp	r2, #0
    c4c0:	e2422001 	sub	r2, r2, #1
    c4c4:	0a000032 	beq	c594 <memset+0xe4>
    c4c8:	e201c0ff 	and	ip, r1, #255	; 0xff
    c4cc:	e1a03000 	mov	r3, r0
    c4d0:	ea000002 	b	c4e0 <memset+0x30>
    c4d4:	e3520000 	cmp	r2, #0
    c4d8:	e2422001 	sub	r2, r2, #1
    c4dc:	0a00002c 	beq	c594 <memset+0xe4>
    c4e0:	e4c3c001 	strb	ip, [r3], #1
    c4e4:	e3130003 	tst	r3, #3
    c4e8:	1afffff9 	bne	c4d4 <memset+0x24>
    c4ec:	e3520003 	cmp	r2, #3
    c4f0:	9a000020 	bls	c578 <memset+0xc8>
    c4f4:	e201e0ff 	and	lr, r1, #255	; 0xff
    c4f8:	e18ee40e 	orr	lr, lr, lr, lsl #8
    c4fc:	e352000f 	cmp	r2, #15
    c500:	e18ee80e 	orr	lr, lr, lr, lsl #16
    c504:	9a000010 	bls	c54c <memset+0x9c>
    c508:	e1a04002 	mov	r4, r2
    c50c:	e283c010 	add	ip, r3, #16
    c510:	e2444010 	sub	r4, r4, #16
    c514:	e354000f 	cmp	r4, #15
    c518:	e50ce010 	str	lr, [ip, #-16]
    c51c:	e50ce00c 	str	lr, [ip, #-12]
    c520:	e50ce008 	str	lr, [ip, #-8]
    c524:	e50ce004 	str	lr, [ip, #-4]
    c528:	e28cc010 	add	ip, ip, #16
    c52c:	8afffff7 	bhi	c510 <memset+0x60>
    c530:	e242c010 	sub	ip, r2, #16
    c534:	e3ccc00f 	bic	ip, ip, #15
    c538:	e202200f 	and	r2, r2, #15
    c53c:	e28cc010 	add	ip, ip, #16
    c540:	e3520003 	cmp	r2, #3
    c544:	e083300c 	add	r3, r3, ip
    c548:	9a00000a 	bls	c578 <memset+0xc8>
    c54c:	e1a04003 	mov	r4, r3
    c550:	e1a0c002 	mov	ip, r2
    c554:	e24cc004 	sub	ip, ip, #4
    c558:	e35c0003 	cmp	ip, #3
    c55c:	e484e004 	str	lr, [r4], #4
    c560:	8afffffb 	bhi	c554 <memset+0xa4>
    c564:	e242c004 	sub	ip, r2, #4
    c568:	e3ccc003 	bic	ip, ip, #3
    c56c:	e28cc004 	add	ip, ip, #4
    c570:	e083300c 	add	r3, r3, ip
    c574:	e2022003 	and	r2, r2, #3
    c578:	e3520000 	cmp	r2, #0
    c57c:	120110ff 	andne	r1, r1, #255	; 0xff
    c580:	10832002 	addne	r2, r3, r2
    c584:	0a000002 	beq	c594 <memset+0xe4>
    c588:	e4c31001 	strb	r1, [r3], #1
    c58c:	e1530002 	cmp	r3, r2
    c590:	1afffffc 	bne	c588 <memset+0xd8>
    c594:	e8bd4010 	pop	{r4, lr}
    c598:	e12fff1e 	bx	lr
    c59c:	e1a03000 	mov	r3, r0
    c5a0:	eaffffd1 	b	c4ec <memset+0x3c>

0000c5a4 <__malloc_lock>:
    c5a4:	e12fff1e 	bx	lr

0000c5a8 <__malloc_unlock>:
    c5a8:	e12fff1e 	bx	lr

0000c5ac <_open_r>:
    c5ac:	e92d4070 	push	{r4, r5, r6, lr}
    c5b0:	e1a0e001 	mov	lr, r1
    c5b4:	e3a0c000 	mov	ip, #0
    c5b8:	e59f4030 	ldr	r4, [pc, #48]	; c5f0 <_open_r+0x44>
    c5bc:	e1a01002 	mov	r1, r2
    c5c0:	e1a05000 	mov	r5, r0
    c5c4:	e1a02003 	mov	r2, r3
    c5c8:	e1a0000e 	mov	r0, lr
    c5cc:	e584c000 	str	ip, [r4]
    c5d0:	ebfff2c3 	bl	90e4 <_open>
    c5d4:	e3700001 	cmn	r0, #1
    c5d8:	1a000002 	bne	c5e8 <_open_r+0x3c>
    c5dc:	e5943000 	ldr	r3, [r4]
    c5e0:	e3530000 	cmp	r3, #0
    c5e4:	15853000 	strne	r3, [r5]
    c5e8:	e8bd4070 	pop	{r4, r5, r6, lr}
    c5ec:	e12fff1e 	bx	lr
    c5f0:	0001f834 	andeq	pc, r1, r4, lsr r8	; <UNPREDICTABLE>

0000c5f4 <_printf_r>:
    c5f4:	e92d000e 	push	{r1, r2, r3}
    c5f8:	e52de004 	push	{lr}		; (str lr, [sp, #-4]!)
    c5fc:	e24dd008 	sub	sp, sp, #8
    c600:	e28dc010 	add	ip, sp, #16
    c604:	e1a0300c 	mov	r3, ip
    c608:	e59d200c 	ldr	r2, [sp, #12]
    c60c:	e5901008 	ldr	r1, [r0, #8]
    c610:	e58dc004 	str	ip, [sp, #4]
    c614:	eb000253 	bl	cf68 <_vfprintf_r>
    c618:	e28dd008 	add	sp, sp, #8
    c61c:	e49de004 	pop	{lr}		; (ldr lr, [sp], #4)
    c620:	e28dd00c 	add	sp, sp, #12
    c624:	e12fff1e 	bx	lr

0000c628 <printf>:
    c628:	e92d000f 	push	{r0, r1, r2, r3}
    c62c:	e52de004 	push	{lr}		; (str lr, [sp, #-4]!)
    c630:	e59f302c 	ldr	r3, [pc, #44]	; c664 <printf+0x3c>
    c634:	e24dd00c 	sub	sp, sp, #12
    c638:	e5930000 	ldr	r0, [r3]
    c63c:	e28dc014 	add	ip, sp, #20
    c640:	e5901008 	ldr	r1, [r0, #8]
    c644:	e1a0300c 	mov	r3, ip
    c648:	e59d2010 	ldr	r2, [sp, #16]
    c64c:	e58dc004 	str	ip, [sp, #4]
    c650:	eb000244 	bl	cf68 <_vfprintf_r>
    c654:	e28dd00c 	add	sp, sp, #12
    c658:	e49de004 	pop	{lr}		; (ldr lr, [sp], #4)
    c65c:	e28dd010 	add	sp, sp, #16
    c660:	e12fff1e 	bx	lr
    c664:	00016fb8 			; <UNDEFINED> instruction: 0x00016fb8

0000c668 <_puts_r>:
    c668:	e92d4030 	push	{r4, r5, lr}
    c66c:	e1a05000 	mov	r5, r0
    c670:	e24dd024 	sub	sp, sp, #36	; 0x24
    c674:	e1a00001 	mov	r0, r1
    c678:	e1a04001 	mov	r4, r1
    c67c:	eb000221 	bl	cf08 <strlen>
    c680:	e3a0c001 	mov	ip, #1
    c684:	e3a01002 	mov	r1, #2
    c688:	e5953038 	ldr	r3, [r5, #56]	; 0x38
    c68c:	e59f207c 	ldr	r2, [pc, #124]	; c710 <_puts_r+0xa8>
    c690:	e3530000 	cmp	r3, #0
    c694:	e080e00c 	add	lr, r0, ip
    c698:	e28d3010 	add	r3, sp, #16
    c69c:	e58d4010 	str	r4, [sp, #16]
    c6a0:	e58d0014 	str	r0, [sp, #20]
    c6a4:	e58de00c 	str	lr, [sp, #12]
    c6a8:	e5954008 	ldr	r4, [r5, #8]
    c6ac:	e58dc01c 	str	ip, [sp, #28]
    c6b0:	e58d1008 	str	r1, [sp, #8]
    c6b4:	e58d2018 	str	r2, [sp, #24]
    c6b8:	e58d3004 	str	r3, [sp, #4]
    c6bc:	0a000010 	beq	c704 <_puts_r+0x9c>
    c6c0:	e1d430fc 	ldrsh	r3, [r4, #12]
    c6c4:	e3130a02 	tst	r3, #8192	; 0x2000
    c6c8:	05942064 	ldreq	r2, [r4, #100]	; 0x64
    c6cc:	03833a02 	orreq	r3, r3, #8192	; 0x2000
    c6d0:	03c22a02 	biceq	r2, r2, #8192	; 0x2000
    c6d4:	05842064 	streq	r2, [r4, #100]	; 0x64
    c6d8:	01c430bc 	strheq	r3, [r4, #12]
    c6dc:	e1a01004 	mov	r1, r4
    c6e0:	e1a00005 	mov	r0, r5
    c6e4:	e28d2004 	add	r2, sp, #4
    c6e8:	eb0010b4 	bl	109c0 <__sfvwrite_r>
    c6ec:	e3500000 	cmp	r0, #0
    c6f0:	13e00000 	mvnne	r0, #0
    c6f4:	03a0000a 	moveq	r0, #10
    c6f8:	e28dd024 	add	sp, sp, #36	; 0x24
    c6fc:	e8bd4030 	pop	{r4, r5, lr}
    c700:	e12fff1e 	bx	lr
    c704:	e1a00005 	mov	r0, r5
    c708:	ebfff9b9 	bl	adf4 <__sinit>
    c70c:	eaffffeb 	b	c6c0 <_puts_r+0x58>
    c710:	0001665c 	andeq	r6, r1, ip, asr r6

0000c714 <puts>:
    c714:	e59f3008 	ldr	r3, [pc, #8]	; c724 <puts+0x10>
    c718:	e1a01000 	mov	r1, r0
    c71c:	e5930000 	ldr	r0, [r3]
    c720:	eaffffd0 	b	c668 <_puts_r>
    c724:	00016fb8 			; <UNDEFINED> instruction: 0x00016fb8

0000c728 <cleanup_glue>:
    c728:	e92d4070 	push	{r4, r5, r6, lr}
    c72c:	e1a04001 	mov	r4, r1
    c730:	e5911000 	ldr	r1, [r1]
    c734:	e3510000 	cmp	r1, #0
    c738:	e1a05000 	mov	r5, r0
    c73c:	1bfffff9 	blne	c728 <cleanup_glue>
    c740:	e1a01004 	mov	r1, r4
    c744:	e1a00005 	mov	r0, r5
    c748:	ebfffa47 	bl	b06c <_free_r>
    c74c:	e8bd4070 	pop	{r4, r5, r6, lr}
    c750:	e12fff1e 	bx	lr

0000c754 <_reclaim_reent>:
    c754:	e59f30e8 	ldr	r3, [pc, #232]	; c844 <_reclaim_reent+0xf0>
    c758:	e5933000 	ldr	r3, [r3]
    c75c:	e1530000 	cmp	r3, r0
    c760:	012fff1e 	bxeq	lr
    c764:	e590304c 	ldr	r3, [r0, #76]	; 0x4c
    c768:	e3530000 	cmp	r3, #0
    c76c:	e92d4070 	push	{r4, r5, r6, lr}
    c770:	e1a05000 	mov	r5, r0
    c774:	0a00000f 	beq	c7b8 <_reclaim_reent+0x64>
    c778:	e3a06000 	mov	r6, #0
    c77c:	e7931006 	ldr	r1, [r3, r6]
    c780:	e3510000 	cmp	r1, #0
    c784:	0a000005 	beq	c7a0 <_reclaim_reent+0x4c>
    c788:	e5914000 	ldr	r4, [r1]
    c78c:	e1a00005 	mov	r0, r5
    c790:	ebfffa35 	bl	b06c <_free_r>
    c794:	e2541000 	subs	r1, r4, #0
    c798:	1afffffa 	bne	c788 <_reclaim_reent+0x34>
    c79c:	e595304c 	ldr	r3, [r5, #76]	; 0x4c
    c7a0:	e2866004 	add	r6, r6, #4
    c7a4:	e3560080 	cmp	r6, #128	; 0x80
    c7a8:	1afffff3 	bne	c77c <_reclaim_reent+0x28>
    c7ac:	e1a01003 	mov	r1, r3
    c7b0:	e1a00005 	mov	r0, r5
    c7b4:	ebfffa2c 	bl	b06c <_free_r>
    c7b8:	e5951040 	ldr	r1, [r5, #64]	; 0x40
    c7bc:	e3510000 	cmp	r1, #0
    c7c0:	11a00005 	movne	r0, r5
    c7c4:	1bfffa28 	blne	b06c <_free_r>
    c7c8:	e5951148 	ldr	r1, [r5, #328]	; 0x148
    c7cc:	e3510000 	cmp	r1, #0
    c7d0:	0a000008 	beq	c7f8 <_reclaim_reent+0xa4>
    c7d4:	e2856f53 	add	r6, r5, #332	; 0x14c
    c7d8:	e1510006 	cmp	r1, r6
    c7dc:	0a000005 	beq	c7f8 <_reclaim_reent+0xa4>
    c7e0:	e5914000 	ldr	r4, [r1]
    c7e4:	e1a00005 	mov	r0, r5
    c7e8:	ebfffa1f 	bl	b06c <_free_r>
    c7ec:	e1560004 	cmp	r6, r4
    c7f0:	e1a01004 	mov	r1, r4
    c7f4:	1afffff9 	bne	c7e0 <_reclaim_reent+0x8c>
    c7f8:	e5951054 	ldr	r1, [r5, #84]	; 0x54
    c7fc:	e3510000 	cmp	r1, #0
    c800:	11a00005 	movne	r0, r5
    c804:	1bfffa18 	blne	b06c <_free_r>
    c808:	e5953038 	ldr	r3, [r5, #56]	; 0x38
    c80c:	e3530000 	cmp	r3, #0
    c810:	1a000001 	bne	c81c <_reclaim_reent+0xc8>
    c814:	e8bd4070 	pop	{r4, r5, r6, lr}
    c818:	e12fff1e 	bx	lr
    c81c:	e1a00005 	mov	r0, r5
    c820:	e595c03c 	ldr	ip, [r5, #60]	; 0x3c
    c824:	e1a0e00f 	mov	lr, pc
    c828:	e12fff1c 	bx	ip
    c82c:	e59512e0 	ldr	r1, [r5, #736]	; 0x2e0
    c830:	e3510000 	cmp	r1, #0
    c834:	0afffff6 	beq	c814 <_reclaim_reent+0xc0>
    c838:	e1a00005 	mov	r0, r5
    c83c:	e8bd4070 	pop	{r4, r5, r6, lr}
    c840:	eaffffb8 	b	c728 <cleanup_glue>
    c844:	00016fb8 			; <UNDEFINED> instruction: 0x00016fb8

0000c848 <lflush>:
    c848:	e1d030bc 	ldrh	r3, [r0, #12]
    c84c:	e2033009 	and	r3, r3, #9
    c850:	e3530009 	cmp	r3, #9
    c854:	0a000001 	beq	c860 <lflush+0x18>
    c858:	e3a00000 	mov	r0, #0
    c85c:	e12fff1e 	bx	lr
    c860:	e92d4010 	push	{r4, lr}
    c864:	ebfff849 	bl	a990 <fflush>
    c868:	e8bd4010 	pop	{r4, lr}
    c86c:	e12fff1e 	bx	lr

0000c870 <__srefill_r>:
    c870:	e92d41f0 	push	{r4, r5, r6, r7, r8, lr}
    c874:	e2505000 	subs	r5, r0, #0
    c878:	e1a04001 	mov	r4, r1
    c87c:	0a000002 	beq	c88c <__srefill_r+0x1c>
    c880:	e5953038 	ldr	r3, [r5, #56]	; 0x38
    c884:	e3530000 	cmp	r3, #0
    c888:	0a000042 	beq	c998 <__srefill_r+0x128>
    c88c:	e1d420fc 	ldrsh	r2, [r4, #12]
    c890:	e1a03802 	lsl	r3, r2, #16
    c894:	e3130202 	tst	r3, #536870912	; 0x20000000
    c898:	e1a03823 	lsr	r3, r3, #16
    c89c:	1a000006 	bne	c8bc <__srefill_r+0x4c>
    c8a0:	e5941064 	ldr	r1, [r4, #100]	; 0x64
    c8a4:	e3822a02 	orr	r2, r2, #8192	; 0x2000
    c8a8:	e3c11a02 	bic	r1, r1, #8192	; 0x2000
    c8ac:	e1a03802 	lsl	r3, r2, #16
    c8b0:	e1c420bc 	strh	r2, [r4, #12]
    c8b4:	e5841064 	str	r1, [r4, #100]	; 0x64
    c8b8:	e1a03823 	lsr	r3, r3, #16
    c8bc:	e3a01000 	mov	r1, #0
    c8c0:	e3130020 	tst	r3, #32
    c8c4:	e5841004 	str	r1, [r4, #4]
    c8c8:	1a00002f 	bne	c98c <__srefill_r+0x11c>
    c8cc:	e3130004 	tst	r3, #4
    c8d0:	0a000022 	beq	c960 <__srefill_r+0xf0>
    c8d4:	e5941030 	ldr	r1, [r4, #48]	; 0x30
    c8d8:	e3510000 	cmp	r1, #0
    c8dc:	0a000009 	beq	c908 <__srefill_r+0x98>
    c8e0:	e2843040 	add	r3, r4, #64	; 0x40
    c8e4:	e1510003 	cmp	r1, r3
    c8e8:	11a00005 	movne	r0, r5
    c8ec:	1bfff9de 	blne	b06c <_free_r>
    c8f0:	e3a00000 	mov	r0, #0
    c8f4:	e594303c 	ldr	r3, [r4, #60]	; 0x3c
    c8f8:	e1530000 	cmp	r3, r0
    c8fc:	e5840030 	str	r0, [r4, #48]	; 0x30
    c900:	e5843004 	str	r3, [r4, #4]
    c904:	1a00003b 	bne	c9f8 <__srefill_r+0x188>
    c908:	e5943010 	ldr	r3, [r4, #16]
    c90c:	e3530000 	cmp	r3, #0
    c910:	0a000046 	beq	ca30 <__srefill_r+0x1c0>
    c914:	e1d470fc 	ldrsh	r7, [r4, #12]
    c918:	e1a03807 	lsl	r3, r7, #16
    c91c:	e3130803 	tst	r3, #196608	; 0x30000
    c920:	e1a06823 	lsr	r6, r3, #16
    c924:	1a00001d 	bne	c9a0 <__srefill_r+0x130>
    c928:	e5942010 	ldr	r2, [r4, #16]
    c92c:	e1a00005 	mov	r0, r5
    c930:	e5842000 	str	r2, [r4]
    c934:	e5943014 	ldr	r3, [r4, #20]
    c938:	e594101c 	ldr	r1, [r4, #28]
    c93c:	e594c020 	ldr	ip, [r4, #32]
    c940:	e1a0e00f 	mov	lr, pc
    c944:	e12fff1c 	bx	ip
    c948:	e3500000 	cmp	r0, #0
    c94c:	e5840004 	str	r0, [r4, #4]
    c950:	c3a00000 	movgt	r0, #0
    c954:	da000008 	ble	c97c <__srefill_r+0x10c>
    c958:	e8bd41f0 	pop	{r4, r5, r6, r7, r8, lr}
    c95c:	e12fff1e 	bx	lr
    c960:	e3130010 	tst	r3, #16
    c964:	0a000035 	beq	ca40 <__srefill_r+0x1d0>
    c968:	e3130008 	tst	r3, #8
    c96c:	1a000025 	bne	ca08 <__srefill_r+0x198>
    c970:	e3822004 	orr	r2, r2, #4
    c974:	e1c420bc 	strh	r2, [r4, #12]
    c978:	eaffffe2 	b	c908 <__srefill_r+0x98>
    c97c:	1a000015 	bne	c9d8 <__srefill_r+0x168>
    c980:	e1d430bc 	ldrh	r3, [r4, #12]
    c984:	e3833020 	orr	r3, r3, #32
    c988:	e1c430bc 	strh	r3, [r4, #12]
    c98c:	e3e00000 	mvn	r0, #0
    c990:	e8bd41f0 	pop	{r4, r5, r6, r7, r8, lr}
    c994:	e12fff1e 	bx	lr
    c998:	ebfff915 	bl	adf4 <__sinit>
    c99c:	eaffffba 	b	c88c <__srefill_r+0x1c>
    c9a0:	e3a02001 	mov	r2, #1
    c9a4:	e59f30ac 	ldr	r3, [pc, #172]	; ca58 <__srefill_r+0x1e8>
    c9a8:	e1c420bc 	strh	r2, [r4, #12]
    c9ac:	e5930000 	ldr	r0, [r3]
    c9b0:	e59f10a4 	ldr	r1, [pc, #164]	; ca5c <__srefill_r+0x1ec>
    c9b4:	ebfffbaf 	bl	b878 <_fwalk>
    c9b8:	e2063009 	and	r3, r6, #9
    c9bc:	e3530009 	cmp	r3, #9
    c9c0:	e1c470bc 	strh	r7, [r4, #12]
    c9c4:	1affffd7 	bne	c928 <__srefill_r+0xb8>
    c9c8:	e1a01004 	mov	r1, r4
    c9cc:	e1a00005 	mov	r0, r5
    c9d0:	ebfff749 	bl	a6fc <__sflush_r>
    c9d4:	eaffffd3 	b	c928 <__srefill_r+0xb8>
    c9d8:	e3a02000 	mov	r2, #0
    c9dc:	e1d430bc 	ldrh	r3, [r4, #12]
    c9e0:	e3833040 	orr	r3, r3, #64	; 0x40
    c9e4:	e1c430bc 	strh	r3, [r4, #12]
    c9e8:	e5842004 	str	r2, [r4, #4]
    c9ec:	e3e00000 	mvn	r0, #0
    c9f0:	e8bd41f0 	pop	{r4, r5, r6, r7, r8, lr}
    c9f4:	e12fff1e 	bx	lr
    c9f8:	e5943038 	ldr	r3, [r4, #56]	; 0x38
    c9fc:	e5843000 	str	r3, [r4]
    ca00:	e8bd41f0 	pop	{r4, r5, r6, r7, r8, lr}
    ca04:	e12fff1e 	bx	lr
    ca08:	e1a01004 	mov	r1, r4
    ca0c:	e1a00005 	mov	r0, r5
    ca10:	ebfff7c9 	bl	a93c <_fflush_r>
    ca14:	e3500000 	cmp	r0, #0
    ca18:	1affffdb 	bne	c98c <__srefill_r+0x11c>
    ca1c:	e1d420fc 	ldrsh	r2, [r4, #12]
    ca20:	e5840008 	str	r0, [r4, #8]
    ca24:	e5840018 	str	r0, [r4, #24]
    ca28:	e3c22008 	bic	r2, r2, #8
    ca2c:	eaffffcf 	b	c970 <__srefill_r+0x100>
    ca30:	e1a01004 	mov	r1, r4
    ca34:	e1a00005 	mov	r0, r5
    ca38:	ebfffbf7 	bl	ba1c <__smakebuf_r>
    ca3c:	eaffffb4 	b	c914 <__srefill_r+0xa4>
    ca40:	e3a03009 	mov	r3, #9
    ca44:	e3822040 	orr	r2, r2, #64	; 0x40
    ca48:	e5853000 	str	r3, [r5]
    ca4c:	e3e00000 	mvn	r0, #0
    ca50:	e1c420bc 	strh	r2, [r4, #12]
    ca54:	eaffffbf 	b	c958 <__srefill_r+0xe8>
    ca58:	000166e0 	andeq	r6, r1, r0, ror #13
    ca5c:	0000c848 	andeq	ip, r0, r8, asr #16

0000ca60 <_sbrk_r>:
    ca60:	e3a03000 	mov	r3, #0
    ca64:	e92d4070 	push	{r4, r5, r6, lr}
    ca68:	e59f4030 	ldr	r4, [pc, #48]	; caa0 <_sbrk_r+0x40>
    ca6c:	e1a05000 	mov	r5, r0
    ca70:	e1a00001 	mov	r0, r1
    ca74:	e5843000 	str	r3, [r4]
    ca78:	ebfff1a4 	bl	9110 <_sbrk>
    ca7c:	e3700001 	cmn	r0, #1
    ca80:	0a000001 	beq	ca8c <_sbrk_r+0x2c>
    ca84:	e8bd4070 	pop	{r4, r5, r6, lr}
    ca88:	e12fff1e 	bx	lr
    ca8c:	e5943000 	ldr	r3, [r4]
    ca90:	e3530000 	cmp	r3, #0
    ca94:	15853000 	strne	r3, [r5]
    ca98:	e8bd4070 	pop	{r4, r5, r6, lr}
    ca9c:	e12fff1e 	bx	lr
    caa0:	0001f834 	andeq	pc, r1, r4, lsr r8	; <UNPREDICTABLE>

0000caa4 <__sread>:
    caa4:	e92d4010 	push	{r4, lr}
    caa8:	e1a04001 	mov	r4, r1
    caac:	e1d110fe 	ldrsh	r1, [r1, #14]
    cab0:	eb0014dd 	bl	11e2c <_read_r>
    cab4:	e3500000 	cmp	r0, #0
    cab8:	a5943050 	ldrge	r3, [r4, #80]	; 0x50
    cabc:	b1d430bc 	ldrhlt	r3, [r4, #12]
    cac0:	a0833000 	addge	r3, r3, r0
    cac4:	b3c33a01 	biclt	r3, r3, #4096	; 0x1000
    cac8:	a5843050 	strge	r3, [r4, #80]	; 0x50
    cacc:	b1c430bc 	strhlt	r3, [r4, #12]
    cad0:	e8bd4010 	pop	{r4, lr}
    cad4:	e12fff1e 	bx	lr

0000cad8 <__seofread>:
    cad8:	e3a00000 	mov	r0, #0
    cadc:	e12fff1e 	bx	lr

0000cae0 <__swrite>:
    cae0:	e92d41f0 	push	{r4, r5, r6, r7, r8, lr}
    cae4:	e1a04001 	mov	r4, r1
    cae8:	e1d110fc 	ldrsh	r1, [r1, #12]
    caec:	e3110c01 	tst	r1, #256	; 0x100
    caf0:	e1a06002 	mov	r6, r2
    caf4:	e1a07003 	mov	r7, r3
    caf8:	e1a05000 	mov	r5, r0
    cafc:	0a000004 	beq	cb14 <__swrite+0x34>
    cb00:	e1d410fe 	ldrsh	r1, [r4, #14]
    cb04:	e3a03002 	mov	r3, #2
    cb08:	e3a02000 	mov	r2, #0
    cb0c:	eb001102 	bl	10f1c <_lseek_r>
    cb10:	e1d410fc 	ldrsh	r1, [r4, #12]
    cb14:	e3c11a01 	bic	r1, r1, #4096	; 0x1000
    cb18:	e1c410bc 	strh	r1, [r4, #12]
    cb1c:	e1a03007 	mov	r3, r7
    cb20:	e1a02006 	mov	r2, r6
    cb24:	e1d410fe 	ldrsh	r1, [r4, #14]
    cb28:	e1a00005 	mov	r0, r5
    cb2c:	eb0009ca 	bl	f25c <_write_r>
    cb30:	e8bd41f0 	pop	{r4, r5, r6, r7, r8, lr}
    cb34:	e12fff1e 	bx	lr

0000cb38 <__sseek>:
    cb38:	e92d4010 	push	{r4, lr}
    cb3c:	e1a04001 	mov	r4, r1
    cb40:	e1d110fe 	ldrsh	r1, [r1, #14]
    cb44:	eb0010f4 	bl	10f1c <_lseek_r>
    cb48:	e1d430bc 	ldrh	r3, [r4, #12]
    cb4c:	e3700001 	cmn	r0, #1
    cb50:	03c33a01 	biceq	r3, r3, #4096	; 0x1000
    cb54:	13833a01 	orrne	r3, r3, #4096	; 0x1000
    cb58:	15840050 	strne	r0, [r4, #80]	; 0x50
    cb5c:	e1c430bc 	strh	r3, [r4, #12]
    cb60:	e8bd4010 	pop	{r4, lr}
    cb64:	e12fff1e 	bx	lr

0000cb68 <__sclose>:
    cb68:	e92d4010 	push	{r4, lr}
    cb6c:	e1d110fe 	ldrsh	r1, [r1, #14]
    cb70:	eb000a24 	bl	f408 <_close_r>
    cb74:	e8bd4010 	pop	{r4, lr}
    cb78:	e12fff1e 	bx	lr

0000cb7c <strchr>:
    cb7c:	e211c0ff 	ands	ip, r1, #255	; 0xff
    cb80:	e92d4010 	push	{r4, lr}
    cb84:	0a00002e 	beq	cc44 <strchr+0xc8>
    cb88:	e3100003 	tst	r0, #3
    cb8c:	0a00000e 	beq	cbcc <strchr+0x50>
    cb90:	e5d03000 	ldrb	r3, [r0]
    cb94:	e3530000 	cmp	r3, #0
    cb98:	0a00004c 	beq	ccd0 <strchr+0x154>
    cb9c:	e15c0003 	cmp	ip, r3
    cba0:	0a000025 	beq	cc3c <strchr+0xc0>
    cba4:	e2803001 	add	r3, r0, #1
    cba8:	ea000004 	b	cbc0 <strchr+0x44>
    cbac:	e4d32001 	ldrb	r2, [r3], #1
    cbb0:	e3520000 	cmp	r2, #0
    cbb4:	0a000042 	beq	ccc4 <strchr+0x148>
    cbb8:	e15c0002 	cmp	ip, r2
    cbbc:	0a00001e 	beq	cc3c <strchr+0xc0>
    cbc0:	e3130003 	tst	r3, #3
    cbc4:	e1a00003 	mov	r0, r3
    cbc8:	1afffff7 	bne	cbac <strchr+0x30>
    cbcc:	e1a04401 	lsl	r4, r1, #8
    cbd0:	e2044cff 	and	r4, r4, #65280	; 0xff00
    cbd4:	e184400c 	orr	r4, r4, ip
    cbd8:	e5901000 	ldr	r1, [r0]
    cbdc:	e1844804 	orr	r4, r4, r4, lsl #16
    cbe0:	ea000000 	b	cbe8 <strchr+0x6c>
    cbe4:	e5b01004 	ldr	r1, [r0, #4]!
    cbe8:	e59f30ec 	ldr	r3, [pc, #236]	; ccdc <strchr+0x160>
    cbec:	e1a02003 	mov	r2, r3
    cbf0:	e024e001 	eor	lr, r4, r1
    cbf4:	e0812002 	add	r2, r1, r2
    cbf8:	e08e3003 	add	r3, lr, r3
    cbfc:	e1c22001 	bic	r2, r2, r1
    cc00:	e1c3300e 	bic	r3, r3, lr
    cc04:	e59f10d4 	ldr	r1, [pc, #212]	; cce0 <strchr+0x164>
    cc08:	e1823003 	orr	r3, r2, r3
    cc0c:	e0011003 	and	r1, r1, r3
    cc10:	e3510000 	cmp	r1, #0
    cc14:	0afffff2 	beq	cbe4 <strchr+0x68>
    cc18:	e5d03000 	ldrb	r3, [r0]
    cc1c:	e3530000 	cmp	r3, #0
    cc20:	1a000003 	bne	cc34 <strchr+0xb8>
    cc24:	ea000029 	b	ccd0 <strchr+0x154>
    cc28:	e5f03001 	ldrb	r3, [r0, #1]!
    cc2c:	e3530000 	cmp	r3, #0
    cc30:	0a000026 	beq	ccd0 <strchr+0x154>
    cc34:	e15c0003 	cmp	ip, r3
    cc38:	1afffffa 	bne	cc28 <strchr+0xac>
    cc3c:	e8bd4010 	pop	{r4, lr}
    cc40:	e12fff1e 	bx	lr
    cc44:	e3100003 	tst	r0, #3
    cc48:	0a00000b 	beq	cc7c <strchr+0x100>
    cc4c:	e5d03000 	ldrb	r3, [r0]
    cc50:	e3530000 	cmp	r3, #0
    cc54:	0afffff8 	beq	cc3c <strchr+0xc0>
    cc58:	e2803001 	add	r3, r0, #1
    cc5c:	ea000003 	b	cc70 <strchr+0xf4>
    cc60:	e5d02000 	ldrb	r2, [r0]
    cc64:	e3520000 	cmp	r2, #0
    cc68:	e2833001 	add	r3, r3, #1
    cc6c:	0afffff2 	beq	cc3c <strchr+0xc0>
    cc70:	e3130003 	tst	r3, #3
    cc74:	e1a00003 	mov	r0, r3
    cc78:	1afffff8 	bne	cc60 <strchr+0xe4>
    cc7c:	e5901000 	ldr	r1, [r0]
    cc80:	ea000000 	b	cc88 <strchr+0x10c>
    cc84:	e5b01004 	ldr	r1, [r0, #4]!
    cc88:	e59f304c 	ldr	r3, [pc, #76]	; ccdc <strchr+0x160>
    cc8c:	e59f204c 	ldr	r2, [pc, #76]	; cce0 <strchr+0x164>
    cc90:	e0813003 	add	r3, r1, r3
    cc94:	e1c33001 	bic	r3, r3, r1
    cc98:	e0022003 	and	r2, r2, r3
    cc9c:	e3520000 	cmp	r2, #0
    cca0:	0afffff7 	beq	cc84 <strchr+0x108>
    cca4:	e5d03000 	ldrb	r3, [r0]
    cca8:	e3530000 	cmp	r3, #0
    ccac:	0affffe2 	beq	cc3c <strchr+0xc0>
    ccb0:	e5f03001 	ldrb	r3, [r0, #1]!
    ccb4:	e3530000 	cmp	r3, #0
    ccb8:	1afffffc 	bne	ccb0 <strchr+0x134>
    ccbc:	e8bd4010 	pop	{r4, lr}
    ccc0:	e12fff1e 	bx	lr
    ccc4:	e1a00002 	mov	r0, r2
    ccc8:	e8bd4010 	pop	{r4, lr}
    cccc:	e12fff1e 	bx	lr
    ccd0:	e1a00003 	mov	r0, r3
    ccd4:	e8bd4010 	pop	{r4, lr}
    ccd8:	e12fff1e 	bx	lr
    ccdc:	fefefeff 	mrc2	14, 7, pc, cr14, cr15, {7}
    cce0:	80808080 	addhi	r8, r0, r0, lsl #1

0000cce4 <strcmp>:
    cce4:	e020c001 	eor	ip, r0, r1
    cce8:	e31c0003 	tst	ip, #3
    ccec:	1a000021 	bne	cd78 <strcmp+0x94>
    ccf0:	e210c003 	ands	ip, r0, #3
    ccf4:	e3c00003 	bic	r0, r0, #3
    ccf8:	e3c11003 	bic	r1, r1, #3
    ccfc:	e4902004 	ldr	r2, [r0], #4
    cd00:	04913004 	ldreq	r3, [r1], #4
    cd04:	0a000006 	beq	cd24 <strcmp+0x40>
    cd08:	e22cc003 	eor	ip, ip, #3
    cd0c:	e3e034ff 	mvn	r3, #-16777216	; 0xff000000
    cd10:	e1a0c18c 	lsl	ip, ip, #3
    cd14:	e1a0cc33 	lsr	ip, r3, ip
    cd18:	e4913004 	ldr	r3, [r1], #4
    cd1c:	e182200c 	orr	r2, r2, ip
    cd20:	e183300c 	orr	r3, r3, ip
    cd24:	e52d4004 	push	{r4}		; (str r4, [sp, #-4]!)
    cd28:	e3a04001 	mov	r4, #1
    cd2c:	e1844404 	orr	r4, r4, r4, lsl #8
    cd30:	e1844804 	orr	r4, r4, r4, lsl #16
    cd34:	e042c004 	sub	ip, r2, r4
    cd38:	e1520003 	cmp	r2, r3
    cd3c:	01ccc002 	biceq	ip, ip, r2
    cd40:	011c0384 	tsteq	ip, r4, lsl #7
    cd44:	04902004 	ldreq	r2, [r0], #4
    cd48:	04913004 	ldreq	r3, [r1], #4
    cd4c:	0afffff8 	beq	cd34 <strcmp+0x50>
    cd50:	e1a00c02 	lsl	r0, r2, #24
    cd54:	e1a02422 	lsr	r2, r2, #8
    cd58:	e3500001 	cmp	r0, #1
    cd5c:	21500c03 	cmpcs	r0, r3, lsl #24
    cd60:	01a03423 	lsreq	r3, r3, #8
    cd64:	0afffff9 	beq	cd50 <strcmp+0x6c>
    cd68:	e20330ff 	and	r3, r3, #255	; 0xff
    cd6c:	e0630c20 	rsb	r0, r3, r0, lsr #24
    cd70:	e49d4004 	pop	{r4}		; (ldr r4, [sp], #4)
    cd74:	e12fff1e 	bx	lr
    cd78:	e3100003 	tst	r0, #3
    cd7c:	0a000006 	beq	cd9c <strcmp+0xb8>
    cd80:	e4d02001 	ldrb	r2, [r0], #1
    cd84:	e4d13001 	ldrb	r3, [r1], #1
    cd88:	e3520001 	cmp	r2, #1
    cd8c:	21520003 	cmpcs	r2, r3
    cd90:	0afffff8 	beq	cd78 <strcmp+0x94>
    cd94:	e0420003 	sub	r0, r2, r3
    cd98:	e12fff1e 	bx	lr
    cd9c:	e92d0030 	push	{r4, r5}
    cda0:	e3a04001 	mov	r4, #1
    cda4:	e1844404 	orr	r4, r4, r4, lsl #8
    cda8:	e1844804 	orr	r4, r4, r4, lsl #16
    cdac:	e4902004 	ldr	r2, [r0], #4
    cdb0:	e2015003 	and	r5, r1, #3
    cdb4:	e3c11003 	bic	r1, r1, #3
    cdb8:	e4913004 	ldr	r3, [r1], #4
    cdbc:	e3550002 	cmp	r5, #2
    cdc0:	0a000017 	beq	ce24 <strcmp+0x140>
    cdc4:	8a00002d 	bhi	ce80 <strcmp+0x19c>
    cdc8:	e3c254ff 	bic	r5, r2, #-16777216	; 0xff000000
    cdcc:	e1550423 	cmp	r5, r3, lsr #8
    cdd0:	e042c004 	sub	ip, r2, r4
    cdd4:	e1ccc002 	bic	ip, ip, r2
    cdd8:	1a000007 	bne	cdfc <strcmp+0x118>
    cddc:	e01cc384 	ands	ip, ip, r4, lsl #7
    cde0:	04913004 	ldreq	r3, [r1], #4
    cde4:	1a000006 	bne	ce04 <strcmp+0x120>
    cde8:	e0255002 	eor	r5, r5, r2
    cdec:	e1550c03 	cmp	r5, r3, lsl #24
    cdf0:	1a000008 	bne	ce18 <strcmp+0x134>
    cdf4:	e4902004 	ldr	r2, [r0], #4
    cdf8:	eafffff2 	b	cdc8 <strcmp+0xe4>
    cdfc:	e1a03423 	lsr	r3, r3, #8
    ce00:	ea000036 	b	cee0 <strcmp+0x1fc>
    ce04:	e3dcc4ff 	bics	ip, ip, #-16777216	; 0xff000000
    ce08:	1a000031 	bne	ced4 <strcmp+0x1f0>
    ce0c:	e5d13000 	ldrb	r3, [r1]
    ce10:	e1a05c22 	lsr	r5, r2, #24
    ce14:	ea000031 	b	cee0 <strcmp+0x1fc>
    ce18:	e1a05c22 	lsr	r5, r2, #24
    ce1c:	e20330ff 	and	r3, r3, #255	; 0xff
    ce20:	ea00002e 	b	cee0 <strcmp+0x1fc>
    ce24:	e1a05802 	lsl	r5, r2, #16
    ce28:	e042c004 	sub	ip, r2, r4
    ce2c:	e1a05825 	lsr	r5, r5, #16
    ce30:	e1ccc002 	bic	ip, ip, r2
    ce34:	e1550823 	cmp	r5, r3, lsr #16
    ce38:	1a00000e 	bne	ce78 <strcmp+0x194>
    ce3c:	e01cc384 	ands	ip, ip, r4, lsl #7
    ce40:	04913004 	ldreq	r3, [r1], #4
    ce44:	1a000004 	bne	ce5c <strcmp+0x178>
    ce48:	e0255002 	eor	r5, r5, r2
    ce4c:	e1550803 	cmp	r5, r3, lsl #16
    ce50:	1a000006 	bne	ce70 <strcmp+0x18c>
    ce54:	e4902004 	ldr	r2, [r0], #4
    ce58:	eafffff1 	b	ce24 <strcmp+0x140>
    ce5c:	e1b0c80c 	lsls	ip, ip, #16
    ce60:	1a00001b 	bne	ced4 <strcmp+0x1f0>
    ce64:	e1d130b0 	ldrh	r3, [r1]
    ce68:	e1a05822 	lsr	r5, r2, #16
    ce6c:	ea00001b 	b	cee0 <strcmp+0x1fc>
    ce70:	e1a03803 	lsl	r3, r3, #16
    ce74:	e1a05822 	lsr	r5, r2, #16
    ce78:	e1a03823 	lsr	r3, r3, #16
    ce7c:	ea000017 	b	cee0 <strcmp+0x1fc>
    ce80:	e20250ff 	and	r5, r2, #255	; 0xff
    ce84:	e1550c23 	cmp	r5, r3, lsr #24
    ce88:	e042c004 	sub	ip, r2, r4
    ce8c:	e1ccc002 	bic	ip, ip, r2
    ce90:	1a000007 	bne	ceb4 <strcmp+0x1d0>
    ce94:	e01cc384 	ands	ip, ip, r4, lsl #7
    ce98:	04913004 	ldreq	r3, [r1], #4
    ce9c:	1a000006 	bne	cebc <strcmp+0x1d8>
    cea0:	e0255002 	eor	r5, r5, r2
    cea4:	e1550403 	cmp	r5, r3, lsl #8
    cea8:	1a000006 	bne	cec8 <strcmp+0x1e4>
    ceac:	e4902004 	ldr	r2, [r0], #4
    ceb0:	eafffff2 	b	ce80 <strcmp+0x19c>
    ceb4:	e1a03c23 	lsr	r3, r3, #24
    ceb8:	ea000008 	b	cee0 <strcmp+0x1fc>
    cebc:	e31200ff 	tst	r2, #255	; 0xff
    cec0:	0a000003 	beq	ced4 <strcmp+0x1f0>
    cec4:	e4913004 	ldr	r3, [r1], #4
    cec8:	e1a05422 	lsr	r5, r2, #8
    cecc:	e3c334ff 	bic	r3, r3, #-16777216	; 0xff000000
    ced0:	ea000002 	b	cee0 <strcmp+0x1fc>
    ced4:	e3a00000 	mov	r0, #0
    ced8:	e8bd0030 	pop	{r4, r5}
    cedc:	e12fff1e 	bx	lr
    cee0:	e20520ff 	and	r2, r5, #255	; 0xff
    cee4:	e20300ff 	and	r0, r3, #255	; 0xff
    cee8:	e3500001 	cmp	r0, #1
    ceec:	21500002 	cmpcs	r0, r2
    cef0:	01a05425 	lsreq	r5, r5, #8
    cef4:	01a03423 	lsreq	r3, r3, #8
    cef8:	0afffff8 	beq	cee0 <strcmp+0x1fc>
    cefc:	e0420000 	sub	r0, r2, r0
    cf00:	e8bd0030 	pop	{r4, r5}
    cf04:	e12fff1e 	bx	lr

0000cf08 <strlen>:
    cf08:	e3c01003 	bic	r1, r0, #3
    cf0c:	e2100003 	ands	r0, r0, #3
    cf10:	e2600000 	rsb	r0, r0, #0
    cf14:	e4913004 	ldr	r3, [r1], #4
    cf18:	e280c004 	add	ip, r0, #4
    cf1c:	e1a0c18c 	lsl	ip, ip, #3
    cf20:	e3e02000 	mvn	r2, #0
    cf24:	11833c32 	orrne	r3, r3, r2, lsr ip
    cf28:	e3a0c001 	mov	ip, #1
    cf2c:	e18cc40c 	orr	ip, ip, ip, lsl #8
    cf30:	e18cc80c 	orr	ip, ip, ip, lsl #16
    cf34:	e043200c 	sub	r2, r3, ip
    cf38:	e1c22003 	bic	r2, r2, r3
    cf3c:	e012238c 	ands	r2, r2, ip, lsl #7
    cf40:	04913004 	ldreq	r3, [r1], #4
    cf44:	02800004 	addeq	r0, r0, #4
    cf48:	0afffff9 	beq	cf34 <strlen+0x2c>
    cf4c:	e31300ff 	tst	r3, #255	; 0xff
    cf50:	12800001 	addne	r0, r0, #1
    cf54:	13130cff 	tstne	r3, #65280	; 0xff00
    cf58:	12800001 	addne	r0, r0, #1
    cf5c:	131308ff 	tstne	r3, #16711680	; 0xff0000
    cf60:	12800001 	addne	r0, r0, #1
    cf64:	e12fff1e 	bx	lr

0000cf68 <_vfprintf_r>:
    cf68:	e92d4ff0 	push	{r4, r5, r6, r7, r8, r9, sl, fp, lr}
    cf6c:	ed2d8b06 	vpush	{d8-d10}
    cf70:	e24dd0ec 	sub	sp, sp, #236	; 0xec
    cf74:	e1a04003 	mov	r4, r3
    cf78:	e1a0a001 	mov	sl, r1
    cf7c:	e1a0b002 	mov	fp, r2
    cf80:	e1a05000 	mov	r5, r0
    cf84:	e58d0018 	str	r0, [sp, #24]
    cf88:	eb000fcf 	bl	10ecc <_localeconv_r>
    cf8c:	e5903000 	ldr	r3, [r0]
    cf90:	e1a00003 	mov	r0, r3
    cf94:	e58d3048 	str	r3, [sp, #72]	; 0x48
    cf98:	ebffffda 	bl	cf08 <strlen>
    cf9c:	e3550000 	cmp	r5, #0
    cfa0:	e58d0044 	str	r0, [sp, #68]	; 0x44
    cfa4:	e58d4028 	str	r4, [sp, #40]	; 0x28
    cfa8:	0a000002 	beq	cfb8 <_vfprintf_r+0x50>
    cfac:	e5953038 	ldr	r3, [r5, #56]	; 0x38
    cfb0:	e3530000 	cmp	r3, #0
    cfb4:	0a0000da 	beq	d324 <_vfprintf_r+0x3bc>
    cfb8:	e1da20fc 	ldrsh	r2, [sl, #12]
    cfbc:	e1a03802 	lsl	r3, r2, #16
    cfc0:	e3130202 	tst	r3, #536870912	; 0x20000000
    cfc4:	e1a03823 	lsr	r3, r3, #16
    cfc8:	1a000006 	bne	cfe8 <_vfprintf_r+0x80>
    cfcc:	e59a3064 	ldr	r3, [sl, #100]	; 0x64
    cfd0:	e3822a02 	orr	r2, r2, #8192	; 0x2000
    cfd4:	e3c33a02 	bic	r3, r3, #8192	; 0x2000
    cfd8:	e1ca20bc 	strh	r2, [sl, #12]
    cfdc:	e1a02802 	lsl	r2, r2, #16
    cfe0:	e58a3064 	str	r3, [sl, #100]	; 0x64
    cfe4:	e1a03822 	lsr	r3, r2, #16
    cfe8:	e3130008 	tst	r3, #8
    cfec:	0a0000a2 	beq	d27c <_vfprintf_r+0x314>
    cff0:	e59a2010 	ldr	r2, [sl, #16]
    cff4:	e3520000 	cmp	r2, #0
    cff8:	0a00009f 	beq	d27c <_vfprintf_r+0x314>
    cffc:	e203301a 	and	r3, r3, #26
    d000:	e353000a 	cmp	r3, #10
    d004:	0a0000ba 	beq	d2f4 <_vfprintf_r+0x38c>
    d008:	e3a03000 	mov	r3, #0
    d00c:	ed9f8be3 	vldr	d8, [pc, #908]	; d3a0 <_vfprintf_r+0x438>
    d010:	ed9f9be4 	vldr	d9, [pc, #912]	; d3a8 <_vfprintf_r+0x440>
    d014:	e28d80a8 	add	r8, sp, #168	; 0xa8
    d018:	e58d303c 	str	r3, [sp, #60]	; 0x3c
    d01c:	e58d304c 	str	r3, [sp, #76]	; 0x4c
    d020:	e58d301c 	str	r3, [sp, #28]
    d024:	e58d307c 	str	r3, [sp, #124]	; 0x7c
    d028:	e58d3078 	str	r3, [sp, #120]	; 0x78
    d02c:	e58d8074 	str	r8, [sp, #116]	; 0x74
    d030:	e59f9390 	ldr	r9, [pc, #912]	; d3c8 <_vfprintf_r+0x460>
    d034:	e5db3000 	ldrb	r3, [fp]
    d038:	e3530000 	cmp	r3, #0
    d03c:	13530025 	cmpne	r3, #37	; 0x25
    d040:	e1a0400b 	mov	r4, fp
    d044:	0a000013 	beq	d098 <_vfprintf_r+0x130>
    d048:	e5f43001 	ldrb	r3, [r4, #1]!
    d04c:	e3530000 	cmp	r3, #0
    d050:	13530025 	cmpne	r3, #37	; 0x25
    d054:	1afffffb 	bne	d048 <_vfprintf_r+0xe0>
    d058:	e054500b 	subs	r5, r4, fp
    d05c:	0a00000d 	beq	d098 <_vfprintf_r+0x130>
    d060:	e59d3078 	ldr	r3, [sp, #120]	; 0x78
    d064:	e59d207c 	ldr	r2, [sp, #124]	; 0x7c
    d068:	e2833001 	add	r3, r3, #1
    d06c:	e3530007 	cmp	r3, #7
    d070:	e0822005 	add	r2, r2, r5
    d074:	e588b000 	str	fp, [r8]
    d078:	e5885004 	str	r5, [r8, #4]
    d07c:	e58d3078 	str	r3, [sp, #120]	; 0x78
    d080:	e58d207c 	str	r2, [sp, #124]	; 0x7c
    d084:	d2888008 	addle	r8, r8, #8
    d088:	ca000083 	bgt	d29c <_vfprintf_r+0x334>
    d08c:	e59d301c 	ldr	r3, [sp, #28]
    d090:	e0833005 	add	r3, r3, r5
    d094:	e58d301c 	str	r3, [sp, #28]
    d098:	e5d43000 	ldrb	r3, [r4]
    d09c:	e3530000 	cmp	r3, #0
    d0a0:	0a000085 	beq	d2bc <_vfprintf_r+0x354>
    d0a4:	e3a03000 	mov	r3, #0
    d0a8:	e1a02003 	mov	r2, r3
    d0ac:	e5cd3057 	strb	r3, [sp, #87]	; 0x57
    d0b0:	e1a00003 	mov	r0, r3
    d0b4:	e58d3020 	str	r3, [sp, #32]
    d0b8:	e1a05003 	mov	r5, r3
    d0bc:	e5d43001 	ldrb	r3, [r4, #1]
    d0c0:	e284b001 	add	fp, r4, #1
    d0c4:	e3e01000 	mvn	r1, #0
    d0c8:	e58d1014 	str	r1, [sp, #20]
    d0cc:	e1a06003 	mov	r6, r3
    d0d0:	e28bb001 	add	fp, fp, #1
    d0d4:	e2463020 	sub	r3, r6, #32
    d0d8:	e3530058 	cmp	r3, #88	; 0x58
    d0dc:	979ff103 	ldrls	pc, [pc, r3, lsl #2]
    d0e0:	ea00028d 	b	db1c <_vfprintf_r+0xbb4>
    d0e4:	0000db08 	andeq	sp, r0, r8, lsl #22
    d0e8:	0000db1c 	andeq	sp, r0, ip, lsl fp
    d0ec:	0000db1c 	andeq	sp, r0, ip, lsl fp
    d0f0:	0000da20 	andeq	sp, r0, r0, lsr #20
    d0f4:	0000db1c 	andeq	sp, r0, ip, lsl fp
    d0f8:	0000db1c 	andeq	sp, r0, ip, lsl fp
    d0fc:	0000db1c 	andeq	sp, r0, ip, lsl fp
    d100:	0000db1c 	andeq	sp, r0, ip, lsl fp
    d104:	0000db1c 	andeq	sp, r0, ip, lsl fp
    d108:	0000db1c 	andeq	sp, r0, ip, lsl fp
    d10c:	0000d248 	andeq	sp, r0, r8, asr #4
    d110:	0000d330 	andeq	sp, r0, r0, lsr r3
    d114:	0000db1c 	andeq	sp, r0, ip, lsl fp
    d118:	0000d270 	andeq	sp, r0, r0, ror r2
    d11c:	0000d340 	andeq	sp, r0, r0, asr #6
    d120:	0000db1c 	andeq	sp, r0, ip, lsl fp
    d124:	0000d390 	muleq	r0, r0, r3
    d128:	0000d610 	andeq	sp, r0, r0, lsl r6
    d12c:	0000d610 	andeq	sp, r0, r0, lsl r6
    d130:	0000d610 	andeq	sp, r0, r0, lsl r6
    d134:	0000d610 	andeq	sp, r0, r0, lsl r6
    d138:	0000d610 	andeq	sp, r0, r0, lsl r6
    d13c:	0000d610 	andeq	sp, r0, r0, lsl r6
    d140:	0000d610 	andeq	sp, r0, r0, lsl r6
    d144:	0000d610 	andeq	sp, r0, r0, lsl r6
    d148:	0000d610 	andeq	sp, r0, r0, lsl r6
    d14c:	0000db1c 	andeq	sp, r0, ip, lsl fp
    d150:	0000db1c 	andeq	sp, r0, ip, lsl fp
    d154:	0000db1c 	andeq	sp, r0, ip, lsl fp
    d158:	0000db1c 	andeq	sp, r0, ip, lsl fp
    d15c:	0000db1c 	andeq	sp, r0, ip, lsl fp
    d160:	0000db1c 	andeq	sp, r0, ip, lsl fp
    d164:	0000db1c 	andeq	sp, r0, ip, lsl fp
    d168:	0000db1c 	andeq	sp, r0, ip, lsl fp
    d16c:	0000db1c 	andeq	sp, r0, ip, lsl fp
    d170:	0000db1c 	andeq	sp, r0, ip, lsl fp
    d174:	0000d3cc 	andeq	sp, r0, ip, asr #7
    d178:	0000d574 	andeq	sp, r0, r4, ror r5
    d17c:	0000db1c 	andeq	sp, r0, ip, lsl fp
    d180:	0000d574 	andeq	sp, r0, r4, ror r5
    d184:	0000db1c 	andeq	sp, r0, ip, lsl fp
    d188:	0000db1c 	andeq	sp, r0, ip, lsl fp
    d18c:	0000db1c 	andeq	sp, r0, ip, lsl fp
    d190:	0000db1c 	andeq	sp, r0, ip, lsl fp
    d194:	0000d604 	andeq	sp, r0, r4, lsl #12
    d198:	0000db1c 	andeq	sp, r0, ip, lsl fp
    d19c:	0000db1c 	andeq	sp, r0, ip, lsl fp
    d1a0:	0000d63c 	andeq	sp, r0, ip, lsr r6
    d1a4:	0000db1c 	andeq	sp, r0, ip, lsl fp
    d1a8:	0000db1c 	andeq	sp, r0, ip, lsl fp
    d1ac:	0000db1c 	andeq	sp, r0, ip, lsl fp
    d1b0:	0000db1c 	andeq	sp, r0, ip, lsl fp
    d1b4:	0000db1c 	andeq	sp, r0, ip, lsl fp
    d1b8:	0000d6f4 	strdeq	sp, [r0], -r4
    d1bc:	0000db1c 	andeq	sp, r0, ip, lsl fp
    d1c0:	0000db1c 	andeq	sp, r0, ip, lsl fp
    d1c4:	0000d984 	andeq	sp, r0, r4, lsl #19
    d1c8:	0000db1c 	andeq	sp, r0, ip, lsl fp
    d1cc:	0000db1c 	andeq	sp, r0, ip, lsl fp
    d1d0:	0000db1c 	andeq	sp, r0, ip, lsl fp
    d1d4:	0000db1c 	andeq	sp, r0, ip, lsl fp
    d1d8:	0000db1c 	andeq	sp, r0, ip, lsl fp
    d1dc:	0000db1c 	andeq	sp, r0, ip, lsl fp
    d1e0:	0000db1c 	andeq	sp, r0, ip, lsl fp
    d1e4:	0000db1c 	andeq	sp, r0, ip, lsl fp
    d1e8:	0000db1c 	andeq	sp, r0, ip, lsl fp
    d1ec:	0000db1c 	andeq	sp, r0, ip, lsl fp
    d1f0:	0000d8f0 	strdeq	sp, [r0], -r0
    d1f4:	0000d934 	andeq	sp, r0, r4, lsr r9
    d1f8:	0000d574 	andeq	sp, r0, r4, ror r5
    d1fc:	0000d574 	andeq	sp, r0, r4, ror r5
    d200:	0000d574 	andeq	sp, r0, r4, ror r5
    d204:	0000d824 	andeq	sp, r0, r4, lsr #16
    d208:	0000d934 	andeq	sp, r0, r4, lsr r9
    d20c:	0000db1c 	andeq	sp, r0, ip, lsl fp
    d210:	0000db1c 	andeq	sp, r0, ip, lsl fp
    d214:	0000d830 	andeq	sp, r0, r0, lsr r8
    d218:	0000db1c 	andeq	sp, r0, ip, lsl fp
    d21c:	0000d84c 	andeq	sp, r0, ip, asr #16
    d220:	0000d87c 	andeq	sp, r0, ip, ror r8
    d224:	0000d764 	andeq	sp, r0, r4, ror #14
    d228:	0000d818 	andeq	sp, r0, r8, lsl r8
    d22c:	0000db1c 	andeq	sp, r0, ip, lsl fp
    d230:	0000da2c 	andeq	sp, r0, ip, lsr #20
    d234:	0000db1c 	andeq	sp, r0, ip, lsl fp
    d238:	0000da98 	muleq	r0, r8, sl
    d23c:	0000db1c 	andeq	sp, r0, ip, lsl fp
    d240:	0000db1c 	andeq	sp, r0, ip, lsl fp
    d244:	0000d9ec 	andeq	sp, r0, ip, ror #19
    d248:	e59d3028 	ldr	r3, [sp, #40]	; 0x28
    d24c:	e5931000 	ldr	r1, [r3]
    d250:	e2833004 	add	r3, r3, #4
    d254:	e3510000 	cmp	r1, #0
    d258:	e58d1020 	str	r1, [sp, #32]
    d25c:	e58d3028 	str	r3, [sp, #40]	; 0x28
    d260:	aa000003 	bge	d274 <_vfprintf_r+0x30c>
    d264:	e59d3020 	ldr	r3, [sp, #32]
    d268:	e2633000 	rsb	r3, r3, #0
    d26c:	e58d3020 	str	r3, [sp, #32]
    d270:	e3855004 	orr	r5, r5, #4
    d274:	e5db3000 	ldrb	r3, [fp]
    d278:	eaffff93 	b	d0cc <_vfprintf_r+0x164>
    d27c:	e1a0100a 	mov	r1, sl
    d280:	e59d0018 	ldr	r0, [sp, #24]
    d284:	eb000806 	bl	f2a4 <__swsetup_r>
    d288:	e3500000 	cmp	r0, #0
    d28c:	01da30bc 	ldrheq	r3, [sl, #12]
    d290:	0affff59 	beq	cffc <_vfprintf_r+0x94>
    d294:	e3e00000 	mvn	r0, #0
    d298:	ea000011 	b	d2e4 <_vfprintf_r+0x37c>
    d29c:	e28d2074 	add	r2, sp, #116	; 0x74
    d2a0:	e1a0100a 	mov	r1, sl
    d2a4:	e59d0018 	ldr	r0, [sp, #24]
    d2a8:	eb00147c 	bl	124a0 <__sprint_r>
    d2ac:	e3500000 	cmp	r0, #0
    d2b0:	1a000007 	bne	d2d4 <_vfprintf_r+0x36c>
    d2b4:	e28d80a8 	add	r8, sp, #168	; 0xa8
    d2b8:	eaffff73 	b	d08c <_vfprintf_r+0x124>
    d2bc:	e59d307c 	ldr	r3, [sp, #124]	; 0x7c
    d2c0:	e3530000 	cmp	r3, #0
    d2c4:	159d0018 	ldrne	r0, [sp, #24]
    d2c8:	128d2074 	addne	r2, sp, #116	; 0x74
    d2cc:	11a0100a 	movne	r1, sl
    d2d0:	1b001472 	blne	124a0 <__sprint_r>
    d2d4:	e1da30bc 	ldrh	r3, [sl, #12]
    d2d8:	e3130040 	tst	r3, #64	; 0x40
    d2dc:	1affffec 	bne	d294 <_vfprintf_r+0x32c>
    d2e0:	e59d001c 	ldr	r0, [sp, #28]
    d2e4:	e28dd0ec 	add	sp, sp, #236	; 0xec
    d2e8:	ecbd8b06 	vpop	{d8-d10}
    d2ec:	e8bd4ff0 	pop	{r4, r5, r6, r7, r8, r9, sl, fp, lr}
    d2f0:	e12fff1e 	bx	lr
    d2f4:	e1da30fe 	ldrsh	r3, [sl, #14]
    d2f8:	e3530000 	cmp	r3, #0
    d2fc:	baffff41 	blt	d008 <_vfprintf_r+0xa0>
    d300:	e1a03004 	mov	r3, r4
    d304:	e1a0200b 	mov	r2, fp
    d308:	e1a0100a 	mov	r1, sl
    d30c:	e59d0018 	ldr	r0, [sp, #24]
    d310:	eb0007a6 	bl	f1b0 <__sbprintf>
    d314:	e28dd0ec 	add	sp, sp, #236	; 0xec
    d318:	ecbd8b06 	vpop	{d8-d10}
    d31c:	e8bd4ff0 	pop	{r4, r5, r6, r7, r8, r9, sl, fp, lr}
    d320:	e12fff1e 	bx	lr
    d324:	e59d0018 	ldr	r0, [sp, #24]
    d328:	ebfff6b1 	bl	adf4 <__sinit>
    d32c:	eaffff21 	b	cfb8 <_vfprintf_r+0x50>
    d330:	e5db3000 	ldrb	r3, [fp]
    d334:	e3a02001 	mov	r2, #1
    d338:	e3a0002b 	mov	r0, #43	; 0x2b
    d33c:	eaffff62 	b	d0cc <_vfprintf_r+0x164>
    d340:	e5db6000 	ldrb	r6, [fp]
    d344:	e356002a 	cmp	r6, #42	; 0x2a
    d348:	e28b1001 	add	r1, fp, #1
    d34c:	0a00077a 	beq	f13c <_vfprintf_r+0x21d4>
    d350:	e2463030 	sub	r3, r6, #48	; 0x30
    d354:	e3530009 	cmp	r3, #9
    d358:	83a03000 	movhi	r3, #0
    d35c:	e1a0b001 	mov	fp, r1
    d360:	858d3014 	strhi	r3, [sp, #20]
    d364:	8affff5a 	bhi	d0d4 <_vfprintf_r+0x16c>
    d368:	e3a01000 	mov	r1, #0
    d36c:	e4db6001 	ldrb	r6, [fp], #1
    d370:	e0811101 	add	r1, r1, r1, lsl #2
    d374:	e0831081 	add	r1, r3, r1, lsl #1
    d378:	e2463030 	sub	r3, r6, #48	; 0x30
    d37c:	e3530009 	cmp	r3, #9
    d380:	9afffff9 	bls	d36c <_vfprintf_r+0x404>
    d384:	e1813fc1 	orr	r3, r1, r1, asr #31
    d388:	e58d3014 	str	r3, [sp, #20]
    d38c:	eaffff50 	b	d0d4 <_vfprintf_r+0x16c>
    d390:	e3855080 	orr	r5, r5, #128	; 0x80
    d394:	e5db3000 	ldrb	r3, [fp]
    d398:	eaffff4b 	b	d0cc <_vfprintf_r+0x164>
    d39c:	e1a00000 	nop			; (mov r0, r0)
	...
    d3a8:	ffffffff 			; <UNDEFINED> instruction: 0xffffffff
    d3ac:	7fefffff 	svcvc	0x00efffff
    d3b0:	0001666c 	andeq	r6, r1, ip, ror #12
    d3b4:	00016670 	andeq	r6, r1, r0, ror r6
    d3b8:	0001667c 	andeq	r6, r1, ip, ror r6
    d3bc:	00016690 	muleq	r1, r0, r6
    d3c0:	000166f4 	strdeq	r6, [r1], -r4
    d3c4:	000166ac 	andeq	r6, r1, ip, lsr #13
    d3c8:	000166e4 	andeq	r6, r1, r4, ror #13
    d3cc:	e3520000 	cmp	r2, #0
    d3d0:	e3855010 	orr	r5, r5, #16
    d3d4:	15cd0057 	strbne	r0, [sp, #87]	; 0x57
    d3d8:	e3150020 	tst	r5, #32
    d3dc:	0a000158 	beq	d944 <_vfprintf_r+0x9dc>
    d3e0:	e59d3028 	ldr	r3, [sp, #40]	; 0x28
    d3e4:	e2834007 	add	r4, r3, #7
    d3e8:	e3c44007 	bic	r4, r4, #7
    d3ec:	e894000c 	ldm	r4, {r2, r3}
    d3f0:	e2841008 	add	r1, r4, #8
    d3f4:	e58d2008 	str	r2, [sp, #8]
    d3f8:	e58d300c 	str	r3, [sp, #12]
    d3fc:	e58d1028 	str	r1, [sp, #40]	; 0x28
    d400:	e3520000 	cmp	r2, #0
    d404:	e2d33000 	sbcs	r3, r3, #0
    d408:	ba0004b1 	blt	e6d4 <_vfprintf_r+0x176c>
    d40c:	e59d2014 	ldr	r2, [sp, #20]
    d410:	e3520000 	cmp	r2, #0
    d414:	ba0003a9 	blt	e2c0 <_vfprintf_r+0x1358>
    d418:	e28d4008 	add	r4, sp, #8
    d41c:	e8940018 	ldm	r4, {r3, r4}
    d420:	e1a01003 	mov	r1, r3
    d424:	e1813004 	orr	r3, r1, r4
    d428:	e3530000 	cmp	r3, #0
    d42c:	03520000 	cmpeq	r2, #0
    d430:	e3c55080 	bic	r5, r5, #128	; 0x80
    d434:	1a0003a1 	bne	e2c0 <_vfprintf_r+0x1358>
    d438:	e5dd7057 	ldrb	r7, [sp, #87]	; 0x57
    d43c:	e3a03000 	mov	r3, #0
    d440:	e28d20a8 	add	r2, sp, #168	; 0xa8
    d444:	e58d3014 	str	r3, [sp, #20]
    d448:	e58d202c 	str	r2, [sp, #44]	; 0x2c
    d44c:	e58d3024 	str	r3, [sp, #36]	; 0x24
    d450:	e59d3024 	ldr	r3, [sp, #36]	; 0x24
    d454:	e59d2014 	ldr	r2, [sp, #20]
    d458:	e1530002 	cmp	r3, r2
    d45c:	b1a03002 	movlt	r3, r2
    d460:	e58d3008 	str	r3, [sp, #8]
    d464:	e3a03000 	mov	r3, #0
    d468:	e58d3038 	str	r3, [sp, #56]	; 0x38
    d46c:	e3570000 	cmp	r7, #0
    d470:	0a000002 	beq	d480 <_vfprintf_r+0x518>
    d474:	e59d3008 	ldr	r3, [sp, #8]
    d478:	e2833001 	add	r3, r3, #1
    d47c:	e58d3008 	str	r3, [sp, #8]
    d480:	e2153002 	ands	r3, r5, #2
    d484:	e58d3030 	str	r3, [sp, #48]	; 0x30
    d488:	159d3008 	ldrne	r3, [sp, #8]
    d48c:	12833002 	addne	r3, r3, #2
    d490:	158d3008 	strne	r3, [sp, #8]
    d494:	e2153084 	ands	r3, r5, #132	; 0x84
    d498:	e58d3034 	str	r3, [sp, #52]	; 0x34
    d49c:	1a0001b3 	bne	db70 <_vfprintf_r+0xc08>
    d4a0:	e59d3020 	ldr	r3, [sp, #32]
    d4a4:	e59d2008 	ldr	r2, [sp, #8]
    d4a8:	e0624003 	rsb	r4, r2, r3
    d4ac:	e3540000 	cmp	r4, #0
    d4b0:	da0001ae 	ble	db70 <_vfprintf_r+0xc08>
    d4b4:	e3540010 	cmp	r4, #16
    d4b8:	da00062d 	ble	ed74 <_vfprintf_r+0x1e0c>
    d4bc:	e51f3104 	ldr	r3, [pc, #-260]	; d3c0 <_vfprintf_r+0x458>
    d4c0:	e3a07010 	mov	r7, #16
    d4c4:	e58d3040 	str	r3, [sp, #64]	; 0x40
    d4c8:	e59d107c 	ldr	r1, [sp, #124]	; 0x7c
    d4cc:	e1a03008 	mov	r3, r8
    d4d0:	e59d2078 	ldr	r2, [sp, #120]	; 0x78
    d4d4:	e1a08004 	mov	r8, r4
    d4d8:	e59d4018 	ldr	r4, [sp, #24]
    d4dc:	ea000002 	b	d4ec <_vfprintf_r+0x584>
    d4e0:	e2488010 	sub	r8, r8, #16
    d4e4:	e3580010 	cmp	r8, #16
    d4e8:	da000014 	ble	d540 <_vfprintf_r+0x5d8>
    d4ec:	e2822001 	add	r2, r2, #1
    d4f0:	e51f0138 	ldr	r0, [pc, #-312]	; d3c0 <_vfprintf_r+0x458>
    d4f4:	e3520007 	cmp	r2, #7
    d4f8:	e2811010 	add	r1, r1, #16
    d4fc:	e8830081 	stm	r3, {r0, r7}
    d500:	e58d2078 	str	r2, [sp, #120]	; 0x78
    d504:	e58d107c 	str	r1, [sp, #124]	; 0x7c
    d508:	d2833008 	addle	r3, r3, #8
    d50c:	dafffff3 	ble	d4e0 <_vfprintf_r+0x578>
    d510:	e28d2074 	add	r2, sp, #116	; 0x74
    d514:	e1a0100a 	mov	r1, sl
    d518:	e1a00004 	mov	r0, r4
    d51c:	eb0013df 	bl	124a0 <__sprint_r>
    d520:	e3500000 	cmp	r0, #0
    d524:	1affff6a 	bne	d2d4 <_vfprintf_r+0x36c>
    d528:	e2488010 	sub	r8, r8, #16
    d52c:	e3580010 	cmp	r8, #16
    d530:	e28d30a8 	add	r3, sp, #168	; 0xa8
    d534:	e59d107c 	ldr	r1, [sp, #124]	; 0x7c
    d538:	e59d2078 	ldr	r2, [sp, #120]	; 0x78
    d53c:	caffffea 	bgt	d4ec <_vfprintf_r+0x584>
    d540:	e1a04008 	mov	r4, r8
    d544:	e1a08003 	mov	r8, r3
    d548:	e2822001 	add	r2, r2, #1
    d54c:	e3520007 	cmp	r2, #7
    d550:	e58d2078 	str	r2, [sp, #120]	; 0x78
    d554:	e59d2040 	ldr	r2, [sp, #64]	; 0x40
    d558:	e0843001 	add	r3, r4, r1
    d55c:	e58d307c 	str	r3, [sp, #124]	; 0x7c
    d560:	e8880014 	stm	r8, {r2, r4}
    d564:	ca000179 	bgt	db50 <_vfprintf_r+0xbe8>
    d568:	e2888008 	add	r8, r8, #8
    d56c:	e5dd7057 	ldrb	r7, [sp, #87]	; 0x57
    d570:	ea00017f 	b	db74 <_vfprintf_r+0xc0c>
    d574:	e59d3028 	ldr	r3, [sp, #40]	; 0x28
    d578:	e3520000 	cmp	r2, #0
    d57c:	e2834007 	add	r4, r3, #7
    d580:	15cd0057 	strbne	r0, [sp, #87]	; 0x57
    d584:	e3150008 	tst	r5, #8
    d588:	13c43007 	bicne	r3, r4, #7
    d58c:	03c44007 	biceq	r4, r4, #7
    d590:	1d938b00 	vldrne	d8, [r3]
    d594:	0d948b00 	vldreq	d8, [r4]
    d598:	eeb07bc8 	vabs.f64	d7, d8
    d59c:	eeb47b49 	vcmp.f64	d7, d9
    d5a0:	12832008 	addne	r2, r3, #8
    d5a4:	02843008 	addeq	r3, r4, #8
    d5a8:	158d2028 	strne	r2, [sp, #40]	; 0x28
    d5ac:	058d3028 	streq	r3, [sp, #40]	; 0x28
    d5b0:	eef1fa10 	vmrs	APSR_nzcv, fpscr
    d5b4:	da00045d 	ble	e730 <_vfprintf_r+0x17c8>
    d5b8:	eeb58bc0 	vcmpe.f64	d8, #0.0
    d5bc:	eef1fa10 	vmrs	APSR_nzcv, fpscr
    d5c0:	4a00066f 	bmi	ef84 <_vfprintf_r+0x201c>
    d5c4:	e5dd7057 	ldrb	r7, [sp, #87]	; 0x57
    d5c8:	e3a03003 	mov	r3, #3
    d5cc:	e1a01003 	mov	r1, r3
    d5d0:	e58d3008 	str	r3, [sp, #8]
    d5d4:	e3a03000 	mov	r3, #0
    d5d8:	e1a00003 	mov	r0, r3
    d5dc:	e58d3014 	str	r3, [sp, #20]
    d5e0:	e51f3238 	ldr	r3, [pc, #-568]	; d3b0 <_vfprintf_r+0x448>
    d5e4:	e3560047 	cmp	r6, #71	; 0x47
    d5e8:	e51f223c 	ldr	r2, [pc, #-572]	; d3b4 <_vfprintf_r+0x44c>
    d5ec:	d1a02003 	movle	r2, r3
    d5f0:	e3c55080 	bic	r5, r5, #128	; 0x80
    d5f4:	e58d1024 	str	r1, [sp, #36]	; 0x24
    d5f8:	e58d0038 	str	r0, [sp, #56]	; 0x38
    d5fc:	e58d202c 	str	r2, [sp, #44]	; 0x2c
    d600:	eaffff99 	b	d46c <_vfprintf_r+0x504>
    d604:	e3855008 	orr	r5, r5, #8
    d608:	e5db3000 	ldrb	r3, [fp]
    d60c:	eafffeae 	b	d0cc <_vfprintf_r+0x164>
    d610:	e3a03000 	mov	r3, #0
    d614:	e1a01003 	mov	r1, r3
    d618:	e2463030 	sub	r3, r6, #48	; 0x30
    d61c:	e4db6001 	ldrb	r6, [fp], #1
    d620:	e0811101 	add	r1, r1, r1, lsl #2
    d624:	e0831081 	add	r1, r3, r1, lsl #1
    d628:	e2463030 	sub	r3, r6, #48	; 0x30
    d62c:	e3530009 	cmp	r3, #9
    d630:	9afffff9 	bls	d61c <_vfprintf_r+0x6b4>
    d634:	e58d1020 	str	r1, [sp, #32]
    d638:	eafffea5 	b	d0d4 <_vfprintf_r+0x16c>
    d63c:	e3520000 	cmp	r2, #0
    d640:	e3855010 	orr	r5, r5, #16
    d644:	15cd0057 	strbne	r0, [sp, #87]	; 0x57
    d648:	e2153020 	ands	r3, r5, #32
    d64c:	0a00008e 	beq	d88c <_vfprintf_r+0x924>
    d650:	e3a01000 	mov	r1, #0
    d654:	e59d3028 	ldr	r3, [sp, #40]	; 0x28
    d658:	e59d0014 	ldr	r0, [sp, #20]
    d65c:	e2834007 	add	r4, r3, #7
    d660:	e3c43007 	bic	r3, r4, #7
    d664:	e2832008 	add	r2, r3, #8
    d668:	e1500001 	cmp	r0, r1
    d66c:	e58d2028 	str	r2, [sp, #40]	; 0x28
    d670:	e5cd1057 	strb	r1, [sp, #87]	; 0x57
    d674:	e893000c 	ldm	r3, {r2, r3}
    d678:	ba000004 	blt	d690 <_vfprintf_r+0x728>
    d67c:	e1821003 	orr	r1, r2, r3
    d680:	e3510000 	cmp	r1, #0
    d684:	03500000 	cmpeq	r0, #0
    d688:	e3c55080 	bic	r5, r5, #128	; 0x80
    d68c:	0a000090 	beq	d8d4 <_vfprintf_r+0x96c>
    d690:	e28d00a8 	add	r0, sp, #168	; 0xa8
    d694:	e1a0c1a2 	lsr	ip, r2, #3
    d698:	e18cce83 	orr	ip, ip, r3, lsl #29
    d69c:	e1a0e1a3 	lsr	lr, r3, #3
    d6a0:	e2021007 	and	r1, r2, #7
    d6a4:	e1a0300e 	mov	r3, lr
    d6a8:	e1a0200c 	mov	r2, ip
    d6ac:	e2811030 	add	r1, r1, #48	; 0x30
    d6b0:	e192c003 	orrs	ip, r2, r3
    d6b4:	e5601001 	strb	r1, [r0, #-1]!
    d6b8:	1afffff5 	bne	d694 <_vfprintf_r+0x72c>
    d6bc:	e3510030 	cmp	r1, #48	; 0x30
    d6c0:	03a03000 	moveq	r3, #0
    d6c4:	12053001 	andne	r3, r5, #1
    d6c8:	e3530000 	cmp	r3, #0
    d6cc:	0a0004ca 	beq	e9fc <_vfprintf_r+0x1a94>
    d6d0:	e3a03030 	mov	r3, #48	; 0x30
    d6d4:	e2402001 	sub	r2, r0, #1
    d6d8:	e5403001 	strb	r3, [r0, #-1]
    d6dc:	e28d30a8 	add	r3, sp, #168	; 0xa8
    d6e0:	e0623003 	rsb	r3, r2, r3
    d6e4:	e58d202c 	str	r2, [sp, #44]	; 0x2c
    d6e8:	e58d3024 	str	r3, [sp, #36]	; 0x24
    d6ec:	e3a07000 	mov	r7, #0
    d6f0:	eaffff56 	b	d450 <_vfprintf_r+0x4e8>
    d6f4:	e3520000 	cmp	r2, #0
    d6f8:	e3855010 	orr	r5, r5, #16
    d6fc:	15cd0057 	strbne	r0, [sp, #87]	; 0x57
    d700:	e2153020 	ands	r3, r5, #32
    d704:	0a0000e7 	beq	daa8 <_vfprintf_r+0xb40>
    d708:	e3a02000 	mov	r2, #0
    d70c:	e59d3028 	ldr	r3, [sp, #40]	; 0x28
    d710:	e2834007 	add	r4, r3, #7
    d714:	e3c43007 	bic	r3, r4, #7
    d718:	e59d1014 	ldr	r1, [sp, #20]
    d71c:	e2830008 	add	r0, r3, #8
    d720:	e8930018 	ldm	r3, {r3, r4}
    d724:	e1510002 	cmp	r1, r2
    d728:	e58d0028 	str	r0, [sp, #40]	; 0x28
    d72c:	e58d3008 	str	r3, [sp, #8]
    d730:	e58d400c 	str	r4, [sp, #12]
    d734:	e5cd2057 	strb	r2, [sp, #87]	; 0x57
    d738:	ba00031f 	blt	e3bc <_vfprintf_r+0x1454>
    d73c:	e1a00003 	mov	r0, r3
    d740:	e1803004 	orr	r3, r0, r4
    d744:	e1530002 	cmp	r3, r2
    d748:	01510002 	cmpeq	r1, r2
    d74c:	e3c55080 	bic	r5, r5, #128	; 0x80
    d750:	13a03001 	movne	r3, #1
    d754:	03a03000 	moveq	r3, #0
    d758:	1a000317 	bne	e3bc <_vfprintf_r+0x1454>
    d75c:	e1a07003 	mov	r7, r3
    d760:	eaffff35 	b	d43c <_vfprintf_r+0x4d4>
    d764:	e3a03000 	mov	r3, #0
    d768:	e3a01030 	mov	r1, #48	; 0x30
    d76c:	e3a00078 	mov	r0, #120	; 0x78
    d770:	e59de014 	ldr	lr, [sp, #20]
    d774:	e59dc028 	ldr	ip, [sp, #40]	; 0x28
    d778:	e15e0003 	cmp	lr, r3
    d77c:	e5cd3057 	strb	r3, [sp, #87]	; 0x57
    d780:	e59c2000 	ldr	r2, [ip]
    d784:	e5cd1058 	strb	r1, [sp, #88]	; 0x58
    d788:	e5cd0059 	strb	r0, [sp, #89]	; 0x59
    d78c:	e28c4004 	add	r4, ip, #4
    d790:	e3a03000 	mov	r3, #0
    d794:	ba00052f 	blt	ec58 <_vfprintf_r+0x1cf0>
    d798:	e59dc014 	ldr	ip, [sp, #20]
    d79c:	e1821003 	orr	r1, r2, r3
    d7a0:	e3510000 	cmp	r1, #0
    d7a4:	035c0000 	cmpeq	ip, #0
    d7a8:	03a0c000 	moveq	ip, #0
    d7ac:	e3c51080 	bic	r1, r5, #128	; 0x80
    d7b0:	e58d4028 	str	r4, [sp, #40]	; 0x28
    d7b4:	13a0c001 	movne	ip, #1
    d7b8:	e3815002 	orr	r5, r1, #2
    d7bc:	01a0700c 	moveq	r7, ip
    d7c0:	01a06000 	moveq	r6, r0
    d7c4:	0affff1c 	beq	d43c <_vfprintf_r+0x4d4>
    d7c8:	e1a06000 	mov	r6, r0
    d7cc:	e51fc418 	ldr	ip, [pc, #-1048]	; d3bc <_vfprintf_r+0x454>
    d7d0:	e28d10a8 	add	r1, sp, #168	; 0xa8
    d7d4:	e1a00001 	mov	r0, r1
    d7d8:	e1a01222 	lsr	r1, r2, #4
    d7dc:	e1811e03 	orr	r1, r1, r3, lsl #28
    d7e0:	e1a04223 	lsr	r4, r3, #4
    d7e4:	e202e00f 	and	lr, r2, #15
    d7e8:	e1a03004 	mov	r3, r4
    d7ec:	e1a02001 	mov	r2, r1
    d7f0:	e7dc100e 	ldrb	r1, [ip, lr]
    d7f4:	e192e003 	orrs	lr, r2, r3
    d7f8:	e5601001 	strb	r1, [r0, #-1]!
    d7fc:	1afffff5 	bne	d7d8 <_vfprintf_r+0x870>
    d800:	e28d20a8 	add	r2, sp, #168	; 0xa8
    d804:	e0603002 	rsb	r3, r0, r2
    d808:	e58d002c 	str	r0, [sp, #44]	; 0x2c
    d80c:	e58d3024 	str	r3, [sp, #36]	; 0x24
    d810:	e3a07000 	mov	r7, #0
    d814:	eaffff0d 	b	d450 <_vfprintf_r+0x4e8>
    d818:	e3855020 	orr	r5, r5, #32
    d81c:	e5db3000 	ldrb	r3, [fp]
    d820:	eafffe29 	b	d0cc <_vfprintf_r+0x164>
    d824:	e3855040 	orr	r5, r5, #64	; 0x40
    d828:	e5db3000 	ldrb	r3, [fp]
    d82c:	eafffe26 	b	d0cc <_vfprintf_r+0x164>
    d830:	e5db3000 	ldrb	r3, [fp]
    d834:	e353006c 	cmp	r3, #108	; 0x6c
    d838:	05db3001 	ldrbeq	r3, [fp, #1]
    d83c:	03855020 	orreq	r5, r5, #32
    d840:	028bb001 	addeq	fp, fp, #1
    d844:	13855010 	orrne	r5, r5, #16
    d848:	eafffe1f 	b	d0cc <_vfprintf_r+0x164>
    d84c:	e3520000 	cmp	r2, #0
    d850:	15cd0057 	strbne	r0, [sp, #87]	; 0x57
    d854:	e3150020 	tst	r5, #32
    d858:	0a000440 	beq	e960 <_vfprintf_r+0x19f8>
    d85c:	e59d3028 	ldr	r3, [sp, #40]	; 0x28
    d860:	e59d201c 	ldr	r2, [sp, #28]
    d864:	e5931000 	ldr	r1, [r3]
    d868:	e2833004 	add	r3, r3, #4
    d86c:	e58d3028 	str	r3, [sp, #40]	; 0x28
    d870:	e1a03fc2 	asr	r3, r2, #31
    d874:	e881000c 	stm	r1, {r2, r3}
    d878:	eafffded 	b	d034 <_vfprintf_r+0xcc>
    d87c:	e3520000 	cmp	r2, #0
    d880:	15cd0057 	strbne	r0, [sp, #87]	; 0x57
    d884:	e2153020 	ands	r3, r5, #32
    d888:	1affff70 	bne	d650 <_vfprintf_r+0x6e8>
    d88c:	e2152010 	ands	r2, r5, #16
    d890:	0a000404 	beq	e8a8 <_vfprintf_r+0x1940>
    d894:	e59d0014 	ldr	r0, [sp, #20]
    d898:	e59d1028 	ldr	r1, [sp, #40]	; 0x28
    d89c:	e3500000 	cmp	r0, #0
    d8a0:	e5cd3057 	strb	r3, [sp, #87]	; 0x57
    d8a4:	e5912000 	ldr	r2, [r1]
    d8a8:	e2814004 	add	r4, r1, #4
    d8ac:	e3a03000 	mov	r3, #0
    d8b0:	ba0004b6 	blt	eb90 <_vfprintf_r+0x1c28>
    d8b4:	13a01001 	movne	r1, #1
    d8b8:	03a01000 	moveq	r1, #0
    d8bc:	e1920003 	orrs	r0, r2, r3
    d8c0:	13811001 	orrne	r1, r1, #1
    d8c4:	e3510000 	cmp	r1, #0
    d8c8:	e58d4028 	str	r4, [sp, #40]	; 0x28
    d8cc:	e3c55080 	bic	r5, r5, #128	; 0x80
    d8d0:	1affff6e 	bne	d690 <_vfprintf_r+0x728>
    d8d4:	e2153001 	ands	r3, r5, #1
    d8d8:	1a00026f 	bne	e29c <_vfprintf_r+0x1334>
    d8dc:	e1a07003 	mov	r7, r3
    d8e0:	e28d30a8 	add	r3, sp, #168	; 0xa8
    d8e4:	e58d302c 	str	r3, [sp, #44]	; 0x2c
    d8e8:	e58d7024 	str	r7, [sp, #36]	; 0x24
    d8ec:	eafffed7 	b	d450 <_vfprintf_r+0x4e8>
    d8f0:	e3a03001 	mov	r3, #1
    d8f4:	e3a02000 	mov	r2, #0
    d8f8:	e1a01003 	mov	r1, r3
    d8fc:	e59d0028 	ldr	r0, [sp, #40]	; 0x28
    d900:	e58d3008 	str	r3, [sp, #8]
    d904:	e5903000 	ldr	r3, [r0]
    d908:	e5cd3080 	strb	r3, [sp, #128]	; 0x80
    d90c:	e2803004 	add	r3, r0, #4
    d910:	e58d3028 	str	r3, [sp, #40]	; 0x28
    d914:	e28d3080 	add	r3, sp, #128	; 0x80
    d918:	e5cd2057 	strb	r2, [sp, #87]	; 0x57
    d91c:	e58d1024 	str	r1, [sp, #36]	; 0x24
    d920:	e58d302c 	str	r3, [sp, #44]	; 0x2c
    d924:	e3a07000 	mov	r7, #0
    d928:	e58d7014 	str	r7, [sp, #20]
    d92c:	e58d7038 	str	r7, [sp, #56]	; 0x38
    d930:	eafffed2 	b	d480 <_vfprintf_r+0x518>
    d934:	e3520000 	cmp	r2, #0
    d938:	15cd0057 	strbne	r0, [sp, #87]	; 0x57
    d93c:	e3150020 	tst	r5, #32
    d940:	1afffea6 	bne	d3e0 <_vfprintf_r+0x478>
    d944:	e59d0028 	ldr	r0, [sp, #40]	; 0x28
    d948:	e3150010 	tst	r5, #16
    d94c:	e1a03000 	mov	r3, r0
    d950:	1a000001 	bne	d95c <_vfprintf_r+0x9f4>
    d954:	e3150040 	tst	r5, #64	; 0x40
    d958:	1a00048e 	bne	eb98 <_vfprintf_r+0x1c30>
    d95c:	e5933000 	ldr	r3, [r3]
    d960:	e1a01003 	mov	r1, r3
    d964:	e1a02fc3 	asr	r2, r3, #31
    d968:	e1a03002 	mov	r3, r2
    d96c:	e1a02001 	mov	r2, r1
    d970:	e2801004 	add	r1, r0, #4
    d974:	e58d2008 	str	r2, [sp, #8]
    d978:	e58d300c 	str	r3, [sp, #12]
    d97c:	e58d1028 	str	r1, [sp, #40]	; 0x28
    d980:	eafffe9e 	b	d400 <_vfprintf_r+0x498>
    d984:	e3520000 	cmp	r2, #0
    d988:	15cd0057 	strbne	r0, [sp, #87]	; 0x57
    d98c:	e3150020 	tst	r5, #32
    d990:	e51fc5e0 	ldr	ip, [pc, #-1504]	; d3b8 <_vfprintf_r+0x450>
    d994:	0a000019 	beq	da00 <_vfprintf_r+0xa98>
    d998:	e59d3028 	ldr	r3, [sp, #40]	; 0x28
    d99c:	e2834007 	add	r4, r3, #7
    d9a0:	e3c43007 	bic	r3, r4, #7
    d9a4:	e2832008 	add	r2, r3, #8
    d9a8:	e58d2028 	str	r2, [sp, #40]	; 0x28
    d9ac:	e893000c 	ldm	r3, {r2, r3}
    d9b0:	e2151001 	ands	r1, r5, #1
    d9b4:	0a000272 	beq	e384 <_vfprintf_r+0x141c>
    d9b8:	e1921003 	orrs	r1, r2, r3
    d9bc:	0a000352 	beq	e70c <_vfprintf_r+0x17a4>
    d9c0:	e3a01000 	mov	r1, #0
    d9c4:	e3a00030 	mov	r0, #48	; 0x30
    d9c8:	e59de014 	ldr	lr, [sp, #20]
    d9cc:	e15e0001 	cmp	lr, r1
    d9d0:	e5cd1057 	strb	r1, [sp, #87]	; 0x57
    d9d4:	a3c51080 	bicge	r1, r5, #128	; 0x80
    d9d8:	e5cd6059 	strb	r6, [sp, #89]	; 0x59
    d9dc:	e5cd0058 	strb	r0, [sp, #88]	; 0x58
    d9e0:	b3855002 	orrlt	r5, r5, #2
    d9e4:	a3815002 	orrge	r5, r1, #2
    d9e8:	eaffff78 	b	d7d0 <_vfprintf_r+0x868>
    d9ec:	e3520000 	cmp	r2, #0
    d9f0:	15cd0057 	strbne	r0, [sp, #87]	; 0x57
    d9f4:	e3150020 	tst	r5, #32
    d9f8:	e51fc644 	ldr	ip, [pc, #-1604]	; d3bc <_vfprintf_r+0x454>
    d9fc:	1affffe5 	bne	d998 <_vfprintf_r+0xa30>
    da00:	e3150010 	tst	r5, #16
    da04:	0a0003e7 	beq	e9a8 <_vfprintf_r+0x1a40>
    da08:	e59d3028 	ldr	r3, [sp, #40]	; 0x28
    da0c:	e5932000 	ldr	r2, [r3]
    da10:	e2833004 	add	r3, r3, #4
    da14:	e58d3028 	str	r3, [sp, #40]	; 0x28
    da18:	e3a03000 	mov	r3, #0
    da1c:	eaffffe3 	b	d9b0 <_vfprintf_r+0xa48>
    da20:	e3855001 	orr	r5, r5, #1
    da24:	e5db3000 	ldrb	r3, [fp]
    da28:	eafffda7 	b	d0cc <_vfprintf_r+0x164>
    da2c:	e3a07000 	mov	r7, #0
    da30:	e59d3028 	ldr	r3, [sp, #40]	; 0x28
    da34:	e5932000 	ldr	r2, [r3]
    da38:	e1520007 	cmp	r2, r7
    da3c:	e2834004 	add	r4, r3, #4
    da40:	e58d202c 	str	r2, [sp, #44]	; 0x2c
    da44:	e5cd7057 	strb	r7, [sp, #87]	; 0x57
    da48:	e59d3014 	ldr	r3, [sp, #20]
    da4c:	0a0004e6 	beq	edec <_vfprintf_r+0x1e84>
    da50:	e3530000 	cmp	r3, #0
    da54:	ba0004aa 	blt	ed04 <_vfprintf_r+0x1d9c>
    da58:	e1a02003 	mov	r2, r3
    da5c:	e1a01007 	mov	r1, r7
    da60:	e59d002c 	ldr	r0, [sp, #44]	; 0x2c
    da64:	ebfffa10 	bl	c2ac <memchr>
    da68:	e3500000 	cmp	r0, #0
    da6c:	0a00055c 	beq	efe4 <_vfprintf_r+0x207c>
    da70:	e59d302c 	ldr	r3, [sp, #44]	; 0x2c
    da74:	e58d7014 	str	r7, [sp, #20]
    da78:	e0633000 	rsb	r3, r3, r0
    da7c:	e58d3024 	str	r3, [sp, #36]	; 0x24
    da80:	e1c33fc3 	bic	r3, r3, r3, asr #31
    da84:	e58d7038 	str	r7, [sp, #56]	; 0x38
    da88:	e58d4028 	str	r4, [sp, #40]	; 0x28
    da8c:	e58d3008 	str	r3, [sp, #8]
    da90:	e5dd7057 	ldrb	r7, [sp, #87]	; 0x57
    da94:	eafffe74 	b	d46c <_vfprintf_r+0x504>
    da98:	e3520000 	cmp	r2, #0
    da9c:	15cd0057 	strbne	r0, [sp, #87]	; 0x57
    daa0:	e2153020 	ands	r3, r5, #32
    daa4:	1affff17 	bne	d708 <_vfprintf_r+0x7a0>
    daa8:	e2152010 	ands	r2, r5, #16
    daac:	0a00038f 	beq	e8f0 <_vfprintf_r+0x1988>
    dab0:	e59d1028 	ldr	r1, [sp, #40]	; 0x28
    dab4:	e5912000 	ldr	r2, [r1]
    dab8:	e2814004 	add	r4, r1, #4
    dabc:	e1a00002 	mov	r0, r2
    dac0:	e3a01000 	mov	r1, #0
    dac4:	e59dc014 	ldr	ip, [sp, #20]
    dac8:	e35c0000 	cmp	ip, #0
    dacc:	e5cd3057 	strb	r3, [sp, #87]	; 0x57
    dad0:	e58d0008 	str	r0, [sp, #8]
    dad4:	e58d100c 	str	r1, [sp, #12]
    dad8:	ba00052d 	blt	ef94 <_vfprintf_r+0x202c>
    dadc:	e1822001 	orr	r2, r2, r1
    dae0:	e3520000 	cmp	r2, #0
    dae4:	035c0000 	cmpeq	ip, #0
    dae8:	03a02000 	moveq	r2, #0
    daec:	e58d4028 	str	r4, [sp, #40]	; 0x28
    daf0:	13a02001 	movne	r2, #1
    daf4:	e3c55080 	bic	r5, r5, #128	; 0x80
    daf8:	01a07002 	moveq	r7, r2
    dafc:	0afffe4e 	beq	d43c <_vfprintf_r+0x4d4>
    db00:	e1a07003 	mov	r7, r3
    db04:	ea0001ee 	b	e2c4 <_vfprintf_r+0x135c>
    db08:	e3500000 	cmp	r0, #0
    db0c:	e5db3000 	ldrb	r3, [fp]
    db10:	03a02001 	moveq	r2, #1
    db14:	03a00020 	moveq	r0, #32
    db18:	eafffd6b 	b	d0cc <_vfprintf_r+0x164>
    db1c:	e3520000 	cmp	r2, #0
    db20:	15cd0057 	strbne	r0, [sp, #87]	; 0x57
    db24:	e3560000 	cmp	r6, #0
    db28:	0afffde3 	beq	d2bc <_vfprintf_r+0x354>
    db2c:	e3a03000 	mov	r3, #0
    db30:	e3a02001 	mov	r2, #1
    db34:	e5cd3057 	strb	r3, [sp, #87]	; 0x57
    db38:	e28d3080 	add	r3, sp, #128	; 0x80
    db3c:	e58d2008 	str	r2, [sp, #8]
    db40:	e5cd6080 	strb	r6, [sp, #128]	; 0x80
    db44:	e58d2024 	str	r2, [sp, #36]	; 0x24
    db48:	e58d302c 	str	r3, [sp, #44]	; 0x2c
    db4c:	eaffff74 	b	d924 <_vfprintf_r+0x9bc>
    db50:	e28d2074 	add	r2, sp, #116	; 0x74
    db54:	e1a0100a 	mov	r1, sl
    db58:	e59d0018 	ldr	r0, [sp, #24]
    db5c:	eb00124f 	bl	124a0 <__sprint_r>
    db60:	e3500000 	cmp	r0, #0
    db64:	1afffdda 	bne	d2d4 <_vfprintf_r+0x36c>
    db68:	e5dd7057 	ldrb	r7, [sp, #87]	; 0x57
    db6c:	e28d80a8 	add	r8, sp, #168	; 0xa8
    db70:	e59d307c 	ldr	r3, [sp, #124]	; 0x7c
    db74:	e3570000 	cmp	r7, #0
    db78:	0a00000b 	beq	dbac <_vfprintf_r+0xc44>
    db7c:	e3a01001 	mov	r1, #1
    db80:	e59d2078 	ldr	r2, [sp, #120]	; 0x78
    db84:	e0822001 	add	r2, r2, r1
    db88:	e3520007 	cmp	r2, #7
    db8c:	e0833001 	add	r3, r3, r1
    db90:	e58d2078 	str	r2, [sp, #120]	; 0x78
    db94:	e28d2057 	add	r2, sp, #87	; 0x57
    db98:	e5881004 	str	r1, [r8, #4]
    db9c:	e5882000 	str	r2, [r8]
    dba0:	e58d307c 	str	r3, [sp, #124]	; 0x7c
    dba4:	d2888008 	addle	r8, r8, #8
    dba8:	ca000166 	bgt	e148 <_vfprintf_r+0x11e0>
    dbac:	e59d2030 	ldr	r2, [sp, #48]	; 0x30
    dbb0:	e3520000 	cmp	r2, #0
    dbb4:	0a00000b 	beq	dbe8 <_vfprintf_r+0xc80>
    dbb8:	e3a01002 	mov	r1, #2
    dbbc:	e59d2078 	ldr	r2, [sp, #120]	; 0x78
    dbc0:	e2822001 	add	r2, r2, #1
    dbc4:	e3520007 	cmp	r2, #7
    dbc8:	e0833001 	add	r3, r3, r1
    dbcc:	e58d2078 	str	r2, [sp, #120]	; 0x78
    dbd0:	e28d2058 	add	r2, sp, #88	; 0x58
    dbd4:	e5881004 	str	r1, [r8, #4]
    dbd8:	e5882000 	str	r2, [r8]
    dbdc:	e58d307c 	str	r3, [sp, #124]	; 0x7c
    dbe0:	d2888008 	addle	r8, r8, #8
    dbe4:	ca00014e 	bgt	e124 <_vfprintf_r+0x11bc>
    dbe8:	e59d2034 	ldr	r2, [sp, #52]	; 0x34
    dbec:	e3520080 	cmp	r2, #128	; 0x80
    dbf0:	0a0000cd 	beq	df2c <_vfprintf_r+0xfc4>
    dbf4:	e59d2014 	ldr	r2, [sp, #20]
    dbf8:	e59d1024 	ldr	r1, [sp, #36]	; 0x24
    dbfc:	e0614002 	rsb	r4, r1, r2
    dc00:	e3540000 	cmp	r4, #0
    dc04:	da000034 	ble	dcdc <_vfprintf_r+0xd74>
    dc08:	e3540010 	cmp	r4, #16
    dc0c:	da00036d 	ble	e9c8 <_vfprintf_r+0x1a60>
    dc10:	e51f1850 	ldr	r1, [pc, #-2128]	; d3c8 <_vfprintf_r+0x460>
    dc14:	e3a07010 	mov	r7, #16
    dc18:	e58d1030 	str	r1, [sp, #48]	; 0x30
    dc1c:	e59d2078 	ldr	r2, [sp, #120]	; 0x78
    dc20:	e1a01008 	mov	r1, r8
    dc24:	e1a08004 	mov	r8, r4
    dc28:	e59d4018 	ldr	r4, [sp, #24]
    dc2c:	ea000002 	b	dc3c <_vfprintf_r+0xcd4>
    dc30:	e2488010 	sub	r8, r8, #16
    dc34:	e3580010 	cmp	r8, #16
    dc38:	da000014 	ble	dc90 <_vfprintf_r+0xd28>
    dc3c:	e2822001 	add	r2, r2, #1
    dc40:	e3520007 	cmp	r2, #7
    dc44:	e2833010 	add	r3, r3, #16
    dc48:	e5819000 	str	r9, [r1]
    dc4c:	e5817004 	str	r7, [r1, #4]
    dc50:	e58d2078 	str	r2, [sp, #120]	; 0x78
    dc54:	e58d307c 	str	r3, [sp, #124]	; 0x7c
    dc58:	d2811008 	addle	r1, r1, #8
    dc5c:	dafffff3 	ble	dc30 <_vfprintf_r+0xcc8>
    dc60:	e28d2074 	add	r2, sp, #116	; 0x74
    dc64:	e1a0100a 	mov	r1, sl
    dc68:	e1a00004 	mov	r0, r4
    dc6c:	eb00120b 	bl	124a0 <__sprint_r>
    dc70:	e3500000 	cmp	r0, #0
    dc74:	1afffd96 	bne	d2d4 <_vfprintf_r+0x36c>
    dc78:	e2488010 	sub	r8, r8, #16
    dc7c:	e28d2078 	add	r2, sp, #120	; 0x78
    dc80:	e3580010 	cmp	r8, #16
    dc84:	e28d10a8 	add	r1, sp, #168	; 0xa8
    dc88:	e892000c 	ldm	r2, {r2, r3}
    dc8c:	caffffea 	bgt	dc3c <_vfprintf_r+0xcd4>
    dc90:	e1a04008 	mov	r4, r8
    dc94:	e1a08001 	mov	r8, r1
    dc98:	e2822001 	add	r2, r2, #1
    dc9c:	e3520007 	cmp	r2, #7
    dca0:	e58d2078 	str	r2, [sp, #120]	; 0x78
    dca4:	e59d2030 	ldr	r2, [sp, #48]	; 0x30
    dca8:	e0833004 	add	r3, r3, r4
    dcac:	e8880014 	stm	r8, {r2, r4}
    dcb0:	e58d307c 	str	r3, [sp, #124]	; 0x7c
    dcb4:	d2888008 	addle	r8, r8, #8
    dcb8:	da000007 	ble	dcdc <_vfprintf_r+0xd74>
    dcbc:	e28d2074 	add	r2, sp, #116	; 0x74
    dcc0:	e1a0100a 	mov	r1, sl
    dcc4:	e59d0018 	ldr	r0, [sp, #24]
    dcc8:	eb0011f4 	bl	124a0 <__sprint_r>
    dccc:	e3500000 	cmp	r0, #0
    dcd0:	1afffd7f 	bne	d2d4 <_vfprintf_r+0x36c>
    dcd4:	e59d307c 	ldr	r3, [sp, #124]	; 0x7c
    dcd8:	e28d80a8 	add	r8, sp, #168	; 0xa8
    dcdc:	e3150c01 	tst	r5, #256	; 0x100
    dce0:	1a00004d 	bne	de1c <_vfprintf_r+0xeb4>
    dce4:	e59d2078 	ldr	r2, [sp, #120]	; 0x78
    dce8:	e59d1024 	ldr	r1, [sp, #36]	; 0x24
    dcec:	e2822001 	add	r2, r2, #1
    dcf0:	e59d002c 	ldr	r0, [sp, #44]	; 0x2c
    dcf4:	e0833001 	add	r3, r3, r1
    dcf8:	e3520007 	cmp	r2, #7
    dcfc:	e58d307c 	str	r3, [sp, #124]	; 0x7c
    dd00:	e8880003 	stm	r8, {r0, r1}
    dd04:	e58d2078 	str	r2, [sp, #120]	; 0x78
    dd08:	ca000122 	bgt	e198 <_vfprintf_r+0x1230>
    dd0c:	e2888008 	add	r8, r8, #8
    dd10:	e3150004 	tst	r5, #4
    dd14:	0a000033 	beq	dde8 <_vfprintf_r+0xe80>
    dd18:	e59d2020 	ldr	r2, [sp, #32]
    dd1c:	e59d1008 	ldr	r1, [sp, #8]
    dd20:	e0614002 	rsb	r4, r1, r2
    dd24:	e3540000 	cmp	r4, #0
    dd28:	da00002e 	ble	dde8 <_vfprintf_r+0xe80>
    dd2c:	e3540010 	cmp	r4, #16
    dd30:	da000429 	ble	eddc <_vfprintf_r+0x1e74>
    dd34:	e51f197c 	ldr	r1, [pc, #-2428]	; d3c0 <_vfprintf_r+0x458>
    dd38:	e3a06010 	mov	r6, #16
    dd3c:	e59d2078 	ldr	r2, [sp, #120]	; 0x78
    dd40:	e58d1040 	str	r1, [sp, #64]	; 0x40
    dd44:	e59d5018 	ldr	r5, [sp, #24]
    dd48:	ea000002 	b	dd58 <_vfprintf_r+0xdf0>
    dd4c:	e2444010 	sub	r4, r4, #16
    dd50:	e3540010 	cmp	r4, #16
    dd54:	da000014 	ble	ddac <_vfprintf_r+0xe44>
    dd58:	e2822001 	add	r2, r2, #1
    dd5c:	e51f19a4 	ldr	r1, [pc, #-2468]	; d3c0 <_vfprintf_r+0x458>
    dd60:	e3520007 	cmp	r2, #7
    dd64:	e2833010 	add	r3, r3, #16
    dd68:	e8880042 	stm	r8, {r1, r6}
    dd6c:	e58d2078 	str	r2, [sp, #120]	; 0x78
    dd70:	e58d307c 	str	r3, [sp, #124]	; 0x7c
    dd74:	d2888008 	addle	r8, r8, #8
    dd78:	dafffff3 	ble	dd4c <_vfprintf_r+0xde4>
    dd7c:	e28d2074 	add	r2, sp, #116	; 0x74
    dd80:	e1a0100a 	mov	r1, sl
    dd84:	e1a00005 	mov	r0, r5
    dd88:	eb0011c4 	bl	124a0 <__sprint_r>
    dd8c:	e3500000 	cmp	r0, #0
    dd90:	1afffd4f 	bne	d2d4 <_vfprintf_r+0x36c>
    dd94:	e2444010 	sub	r4, r4, #16
    dd98:	e28d2078 	add	r2, sp, #120	; 0x78
    dd9c:	e3540010 	cmp	r4, #16
    dda0:	e28d80a8 	add	r8, sp, #168	; 0xa8
    dda4:	e892000c 	ldm	r2, {r2, r3}
    dda8:	caffffea 	bgt	dd58 <_vfprintf_r+0xdf0>
    ddac:	e2822001 	add	r2, r2, #1
    ddb0:	e3520007 	cmp	r2, #7
    ddb4:	e58d2078 	str	r2, [sp, #120]	; 0x78
    ddb8:	e59d2040 	ldr	r2, [sp, #64]	; 0x40
    ddbc:	e0833004 	add	r3, r3, r4
    ddc0:	e58d307c 	str	r3, [sp, #124]	; 0x7c
    ddc4:	e8880014 	stm	r8, {r2, r4}
    ddc8:	da000006 	ble	dde8 <_vfprintf_r+0xe80>
    ddcc:	e28d2074 	add	r2, sp, #116	; 0x74
    ddd0:	e1a0100a 	mov	r1, sl
    ddd4:	e59d0018 	ldr	r0, [sp, #24]
    ddd8:	eb0011b0 	bl	124a0 <__sprint_r>
    dddc:	e3500000 	cmp	r0, #0
    dde0:	1afffd3b 	bne	d2d4 <_vfprintf_r+0x36c>
    dde4:	e59d307c 	ldr	r3, [sp, #124]	; 0x7c
    dde8:	e59d201c 	ldr	r2, [sp, #28]
    ddec:	e59d1020 	ldr	r1, [sp, #32]
    ddf0:	e59d0008 	ldr	r0, [sp, #8]
    ddf4:	e1510000 	cmp	r1, r0
    ddf8:	a0822001 	addge	r2, r2, r1
    ddfc:	b0822000 	addlt	r2, r2, r0
    de00:	e3530000 	cmp	r3, #0
    de04:	e58d201c 	str	r2, [sp, #28]
    de08:	1a0000be 	bne	e108 <_vfprintf_r+0x11a0>
    de0c:	e3a03000 	mov	r3, #0
    de10:	e28d80a8 	add	r8, sp, #168	; 0xa8
    de14:	e58d3078 	str	r3, [sp, #120]	; 0x78
    de18:	eafffc85 	b	d034 <_vfprintf_r+0xcc>
    de1c:	e3560065 	cmp	r6, #101	; 0x65
    de20:	da00007c 	ble	e018 <_vfprintf_r+0x10b0>
    de24:	eeb58b40 	vcmp.f64	d8, #0.0
    de28:	eef1fa10 	vmrs	APSR_nzcv, fpscr
    de2c:	1a0000e2 	bne	e1bc <_vfprintf_r+0x1254>
    de30:	e3a01001 	mov	r1, #1
    de34:	e59d2078 	ldr	r2, [sp, #120]	; 0x78
    de38:	e51f0a7c 	ldr	r0, [pc, #-2684]	; d3c4 <_vfprintf_r+0x45c>
    de3c:	e0822001 	add	r2, r2, r1
    de40:	e0833001 	add	r3, r3, r1
    de44:	e3520007 	cmp	r2, #7
    de48:	e5880000 	str	r0, [r8]
    de4c:	e5881004 	str	r1, [r8, #4]
    de50:	e58d307c 	str	r3, [sp, #124]	; 0x7c
    de54:	e58d2078 	str	r2, [sp, #120]	; 0x78
    de58:	d2888008 	addle	r8, r8, #8
    de5c:	ca0002dd 	bgt	e9d8 <_vfprintf_r+0x1a70>
    de60:	e59d205c 	ldr	r2, [sp, #92]	; 0x5c
    de64:	e59d103c 	ldr	r1, [sp, #60]	; 0x3c
    de68:	e1510002 	cmp	r1, r2
    de6c:	ca000001 	bgt	de78 <_vfprintf_r+0xf10>
    de70:	e3150001 	tst	r5, #1
    de74:	0affffa5 	beq	dd10 <_vfprintf_r+0xda8>
    de78:	e59d2078 	ldr	r2, [sp, #120]	; 0x78
    de7c:	e59d1044 	ldr	r1, [sp, #68]	; 0x44
    de80:	e2822001 	add	r2, r2, #1
    de84:	e59d0048 	ldr	r0, [sp, #72]	; 0x48
    de88:	e0833001 	add	r3, r3, r1
    de8c:	e3520007 	cmp	r2, #7
    de90:	e8880003 	stm	r8, {r0, r1}
    de94:	e58d307c 	str	r3, [sp, #124]	; 0x7c
    de98:	e58d2078 	str	r2, [sp, #120]	; 0x78
    de9c:	d2888008 	addle	r8, r8, #8
    dea0:	ca000371 	bgt	ec6c <_vfprintf_r+0x1d04>
    dea4:	e59d203c 	ldr	r2, [sp, #60]	; 0x3c
    dea8:	e2424001 	sub	r4, r2, #1
    deac:	e3540000 	cmp	r4, #0
    deb0:	daffff96 	ble	dd10 <_vfprintf_r+0xda8>
    deb4:	e3540010 	cmp	r4, #16
    deb8:	da0000ab 	ble	e16c <_vfprintf_r+0x1204>
    debc:	e51f1afc 	ldr	r1, [pc, #-2812]	; d3c8 <_vfprintf_r+0x460>
    dec0:	e3a06010 	mov	r6, #16
    dec4:	e59d2078 	ldr	r2, [sp, #120]	; 0x78
    dec8:	e58d1030 	str	r1, [sp, #48]	; 0x30
    decc:	e59d7018 	ldr	r7, [sp, #24]
    ded0:	ea000002 	b	dee0 <_vfprintf_r+0xf78>
    ded4:	e2444010 	sub	r4, r4, #16
    ded8:	e3540010 	cmp	r4, #16
    dedc:	da0000a5 	ble	e178 <_vfprintf_r+0x1210>
    dee0:	e2822001 	add	r2, r2, #1
    dee4:	e3520007 	cmp	r2, #7
    dee8:	e2833010 	add	r3, r3, #16
    deec:	e5889000 	str	r9, [r8]
    def0:	e5886004 	str	r6, [r8, #4]
    def4:	e58d2078 	str	r2, [sp, #120]	; 0x78
    def8:	e58d307c 	str	r3, [sp, #124]	; 0x7c
    defc:	d2888008 	addle	r8, r8, #8
    df00:	dafffff3 	ble	ded4 <_vfprintf_r+0xf6c>
    df04:	e28d2074 	add	r2, sp, #116	; 0x74
    df08:	e1a0100a 	mov	r1, sl
    df0c:	e1a00007 	mov	r0, r7
    df10:	eb001162 	bl	124a0 <__sprint_r>
    df14:	e3500000 	cmp	r0, #0
    df18:	1afffced 	bne	d2d4 <_vfprintf_r+0x36c>
    df1c:	e28d2078 	add	r2, sp, #120	; 0x78
    df20:	e28d80a8 	add	r8, sp, #168	; 0xa8
    df24:	e892000c 	ldm	r2, {r2, r3}
    df28:	eaffffe9 	b	ded4 <_vfprintf_r+0xf6c>
    df2c:	e59d2020 	ldr	r2, [sp, #32]
    df30:	e59d1008 	ldr	r1, [sp, #8]
    df34:	e0614002 	rsb	r4, r1, r2
    df38:	e3540000 	cmp	r4, #0
    df3c:	daffff2c 	ble	dbf4 <_vfprintf_r+0xc8c>
    df40:	e3540010 	cmp	r4, #16
    df44:	da000414 	ble	ef9c <_vfprintf_r+0x2034>
    df48:	e51f1b88 	ldr	r1, [pc, #-2952]	; d3c8 <_vfprintf_r+0x460>
    df4c:	e3a07010 	mov	r7, #16
    df50:	e58d1030 	str	r1, [sp, #48]	; 0x30
    df54:	e59d2078 	ldr	r2, [sp, #120]	; 0x78
    df58:	e1a01008 	mov	r1, r8
    df5c:	e1a08004 	mov	r8, r4
    df60:	e59d4018 	ldr	r4, [sp, #24]
    df64:	ea000002 	b	df74 <_vfprintf_r+0x100c>
    df68:	e2488010 	sub	r8, r8, #16
    df6c:	e3580010 	cmp	r8, #16
    df70:	da000014 	ble	dfc8 <_vfprintf_r+0x1060>
    df74:	e2822001 	add	r2, r2, #1
    df78:	e3520007 	cmp	r2, #7
    df7c:	e2833010 	add	r3, r3, #16
    df80:	e5819000 	str	r9, [r1]
    df84:	e5817004 	str	r7, [r1, #4]
    df88:	e58d2078 	str	r2, [sp, #120]	; 0x78
    df8c:	e58d307c 	str	r3, [sp, #124]	; 0x7c
    df90:	d2811008 	addle	r1, r1, #8
    df94:	dafffff3 	ble	df68 <_vfprintf_r+0x1000>
    df98:	e28d2074 	add	r2, sp, #116	; 0x74
    df9c:	e1a0100a 	mov	r1, sl
    dfa0:	e1a00004 	mov	r0, r4
    dfa4:	eb00113d 	bl	124a0 <__sprint_r>
    dfa8:	e3500000 	cmp	r0, #0
    dfac:	1afffcc8 	bne	d2d4 <_vfprintf_r+0x36c>
    dfb0:	e2488010 	sub	r8, r8, #16
    dfb4:	e28d2078 	add	r2, sp, #120	; 0x78
    dfb8:	e3580010 	cmp	r8, #16
    dfbc:	e28d10a8 	add	r1, sp, #168	; 0xa8
    dfc0:	e892000c 	ldm	r2, {r2, r3}
    dfc4:	caffffea 	bgt	df74 <_vfprintf_r+0x100c>
    dfc8:	e1a04008 	mov	r4, r8
    dfcc:	e1a08001 	mov	r8, r1
    dfd0:	e2822001 	add	r2, r2, #1
    dfd4:	e3520007 	cmp	r2, #7
    dfd8:	e58d2078 	str	r2, [sp, #120]	; 0x78
    dfdc:	e59d2030 	ldr	r2, [sp, #48]	; 0x30
    dfe0:	e0833004 	add	r3, r3, r4
    dfe4:	e8880014 	stm	r8, {r2, r4}
    dfe8:	e58d307c 	str	r3, [sp, #124]	; 0x7c
    dfec:	d2888008 	addle	r8, r8, #8
    dff0:	dafffeff 	ble	dbf4 <_vfprintf_r+0xc8c>
    dff4:	e28d2074 	add	r2, sp, #116	; 0x74
    dff8:	e1a0100a 	mov	r1, sl
    dffc:	e59d0018 	ldr	r0, [sp, #24]
    e000:	eb001126 	bl	124a0 <__sprint_r>
    e004:	e3500000 	cmp	r0, #0
    e008:	1afffcb1 	bne	d2d4 <_vfprintf_r+0x36c>
    e00c:	e28d80a8 	add	r8, sp, #168	; 0xa8
    e010:	e59d307c 	ldr	r3, [sp, #124]	; 0x7c
    e014:	eafffef6 	b	dbf4 <_vfprintf_r+0xc8c>
    e018:	e59d203c 	ldr	r2, [sp, #60]	; 0x3c
    e01c:	e3520001 	cmp	r2, #1
    e020:	da000150 	ble	e568 <_vfprintf_r+0x1600>
    e024:	e3a01001 	mov	r1, #1
    e028:	e59d2078 	ldr	r2, [sp, #120]	; 0x78
    e02c:	e59d002c 	ldr	r0, [sp, #44]	; 0x2c
    e030:	e0822001 	add	r2, r2, r1
    e034:	e0833001 	add	r3, r3, r1
    e038:	e3520007 	cmp	r2, #7
    e03c:	e5880000 	str	r0, [r8]
    e040:	e5881004 	str	r1, [r8, #4]
    e044:	e58d307c 	str	r3, [sp, #124]	; 0x7c
    e048:	e58d2078 	str	r2, [sp, #120]	; 0x78
    e04c:	d2888008 	addle	r8, r8, #8
    e050:	ca00015b 	bgt	e5c4 <_vfprintf_r+0x165c>
    e054:	e59d1044 	ldr	r1, [sp, #68]	; 0x44
    e058:	e2822001 	add	r2, r2, #1
    e05c:	e59d0048 	ldr	r0, [sp, #72]	; 0x48
    e060:	e3520007 	cmp	r2, #7
    e064:	e0813003 	add	r3, r1, r3
    e068:	e8880003 	stm	r8, {r0, r1}
    e06c:	e58d2078 	str	r2, [sp, #120]	; 0x78
    e070:	e58d307c 	str	r3, [sp, #124]	; 0x7c
    e074:	d2888008 	addle	r8, r8, #8
    e078:	ca00016d 	bgt	e634 <_vfprintf_r+0x16cc>
    e07c:	eeb58b40 	vcmp.f64	d8, #0.0
    e080:	eef1fa10 	vmrs	APSR_nzcv, fpscr
    e084:	0a00009b 	beq	e2f8 <_vfprintf_r+0x1390>
    e088:	e59d103c 	ldr	r1, [sp, #60]	; 0x3c
    e08c:	e59d002c 	ldr	r0, [sp, #44]	; 0x2c
    e090:	e2822001 	add	r2, r2, #1
    e094:	e2411001 	sub	r1, r1, #1
    e098:	e2800001 	add	r0, r0, #1
    e09c:	e0833001 	add	r3, r3, r1
    e0a0:	e3520007 	cmp	r2, #7
    e0a4:	e58d2078 	str	r2, [sp, #120]	; 0x78
    e0a8:	e5880000 	str	r0, [r8]
    e0ac:	e58d307c 	str	r3, [sp, #124]	; 0x7c
    e0b0:	e5881004 	str	r1, [r8, #4]
    e0b4:	ca000154 	bgt	e60c <_vfprintf_r+0x16a4>
    e0b8:	e2888008 	add	r8, r8, #8
    e0bc:	e59d004c 	ldr	r0, [sp, #76]	; 0x4c
    e0c0:	e2822001 	add	r2, r2, #1
    e0c4:	e3520007 	cmp	r2, #7
    e0c8:	e58d2078 	str	r2, [sp, #120]	; 0x78
    e0cc:	e1a02000 	mov	r2, r0
    e0d0:	e0803003 	add	r3, r0, r3
    e0d4:	e28d1064 	add	r1, sp, #100	; 0x64
    e0d8:	e58d307c 	str	r3, [sp, #124]	; 0x7c
    e0dc:	e8880006 	stm	r8, {r1, r2}
    e0e0:	daffff09 	ble	dd0c <_vfprintf_r+0xda4>
    e0e4:	e28d2074 	add	r2, sp, #116	; 0x74
    e0e8:	e1a0100a 	mov	r1, sl
    e0ec:	e59d0018 	ldr	r0, [sp, #24]
    e0f0:	eb0010ea 	bl	124a0 <__sprint_r>
    e0f4:	e3500000 	cmp	r0, #0
    e0f8:	1afffc75 	bne	d2d4 <_vfprintf_r+0x36c>
    e0fc:	e28d80a8 	add	r8, sp, #168	; 0xa8
    e100:	e59d307c 	ldr	r3, [sp, #124]	; 0x7c
    e104:	eaffff01 	b	dd10 <_vfprintf_r+0xda8>
    e108:	e28d2074 	add	r2, sp, #116	; 0x74
    e10c:	e1a0100a 	mov	r1, sl
    e110:	e59d0018 	ldr	r0, [sp, #24]
    e114:	eb0010e1 	bl	124a0 <__sprint_r>
    e118:	e3500000 	cmp	r0, #0
    e11c:	0affff3a 	beq	de0c <_vfprintf_r+0xea4>
    e120:	eafffc6b 	b	d2d4 <_vfprintf_r+0x36c>
    e124:	e28d2074 	add	r2, sp, #116	; 0x74
    e128:	e1a0100a 	mov	r1, sl
    e12c:	e59d0018 	ldr	r0, [sp, #24]
    e130:	eb0010da 	bl	124a0 <__sprint_r>
    e134:	e3500000 	cmp	r0, #0
    e138:	1afffc65 	bne	d2d4 <_vfprintf_r+0x36c>
    e13c:	e28d80a8 	add	r8, sp, #168	; 0xa8
    e140:	e59d307c 	ldr	r3, [sp, #124]	; 0x7c
    e144:	eafffea7 	b	dbe8 <_vfprintf_r+0xc80>
    e148:	e28d2074 	add	r2, sp, #116	; 0x74
    e14c:	e1a0100a 	mov	r1, sl
    e150:	e59d0018 	ldr	r0, [sp, #24]
    e154:	eb0010d1 	bl	124a0 <__sprint_r>
    e158:	e3500000 	cmp	r0, #0
    e15c:	1afffc5c 	bne	d2d4 <_vfprintf_r+0x36c>
    e160:	e28d80a8 	add	r8, sp, #168	; 0xa8
    e164:	e59d307c 	ldr	r3, [sp, #124]	; 0x7c
    e168:	eafffe8f 	b	dbac <_vfprintf_r+0xc44>
    e16c:	e51f1dac 	ldr	r1, [pc, #-3500]	; d3c8 <_vfprintf_r+0x460>
    e170:	e59d2078 	ldr	r2, [sp, #120]	; 0x78
    e174:	e58d1030 	str	r1, [sp, #48]	; 0x30
    e178:	e2822001 	add	r2, r2, #1
    e17c:	e58d2078 	str	r2, [sp, #120]	; 0x78
    e180:	e3520007 	cmp	r2, #7
    e184:	e59d2030 	ldr	r2, [sp, #48]	; 0x30
    e188:	e0833004 	add	r3, r3, r4
    e18c:	e58d307c 	str	r3, [sp, #124]	; 0x7c
    e190:	e8880014 	stm	r8, {r2, r4}
    e194:	dafffedc 	ble	dd0c <_vfprintf_r+0xda4>
    e198:	e28d2074 	add	r2, sp, #116	; 0x74
    e19c:	e1a0100a 	mov	r1, sl
    e1a0:	e59d0018 	ldr	r0, [sp, #24]
    e1a4:	eb0010bd 	bl	124a0 <__sprint_r>
    e1a8:	e3500000 	cmp	r0, #0
    e1ac:	1afffc48 	bne	d2d4 <_vfprintf_r+0x36c>
    e1b0:	e59d307c 	ldr	r3, [sp, #124]	; 0x7c
    e1b4:	e28d80a8 	add	r8, sp, #168	; 0xa8
    e1b8:	eafffed4 	b	dd10 <_vfprintf_r+0xda8>
    e1bc:	e59d405c 	ldr	r4, [sp, #92]	; 0x5c
    e1c0:	e3540000 	cmp	r4, #0
    e1c4:	da000212 	ble	ea14 <_vfprintf_r+0x1aac>
    e1c8:	e28d1038 	add	r1, sp, #56	; 0x38
    e1cc:	e8910006 	ldm	r1, {r1, r2}
    e1d0:	e1520001 	cmp	r2, r1
    e1d4:	b1a04002 	movlt	r4, r2
    e1d8:	a1a04001 	movge	r4, r1
    e1dc:	e3540000 	cmp	r4, #0
    e1e0:	da000009 	ble	e20c <_vfprintf_r+0x12a4>
    e1e4:	e59d2078 	ldr	r2, [sp, #120]	; 0x78
    e1e8:	e59d102c 	ldr	r1, [sp, #44]	; 0x2c
    e1ec:	e2822001 	add	r2, r2, #1
    e1f0:	e0833004 	add	r3, r3, r4
    e1f4:	e3520007 	cmp	r2, #7
    e1f8:	e8880012 	stm	r8, {r1, r4}
    e1fc:	e58d307c 	str	r3, [sp, #124]	; 0x7c
    e200:	e58d2078 	str	r2, [sp, #120]	; 0x78
    e204:	d2888008 	addle	r8, r8, #8
    e208:	ca0002de 	bgt	ed88 <_vfprintf_r+0x1e20>
    e20c:	e59d2038 	ldr	r2, [sp, #56]	; 0x38
    e210:	e3540000 	cmp	r4, #0
    e214:	a0642002 	rsbge	r2, r4, r2
    e218:	e3520000 	cmp	r2, #0
    e21c:	e1a04002 	mov	r4, r2
    e220:	da00007b 	ble	e414 <_vfprintf_r+0x14ac>
    e224:	e3520010 	cmp	r2, #16
    e228:	da000065 	ble	e3c4 <_vfprintf_r+0x145c>
    e22c:	e51f1e6c 	ldr	r1, [pc, #-3692]	; d3c8 <_vfprintf_r+0x460>
    e230:	e3a06010 	mov	r6, #16
    e234:	e59d2078 	ldr	r2, [sp, #120]	; 0x78
    e238:	e58d1030 	str	r1, [sp, #48]	; 0x30
    e23c:	e59d7018 	ldr	r7, [sp, #24]
    e240:	ea000002 	b	e250 <_vfprintf_r+0x12e8>
    e244:	e2444010 	sub	r4, r4, #16
    e248:	e3540010 	cmp	r4, #16
    e24c:	da00005f 	ble	e3d0 <_vfprintf_r+0x1468>
    e250:	e2822001 	add	r2, r2, #1
    e254:	e3520007 	cmp	r2, #7
    e258:	e2833010 	add	r3, r3, #16
    e25c:	e5889000 	str	r9, [r8]
    e260:	e5886004 	str	r6, [r8, #4]
    e264:	e58d2078 	str	r2, [sp, #120]	; 0x78
    e268:	e58d307c 	str	r3, [sp, #124]	; 0x7c
    e26c:	d2888008 	addle	r8, r8, #8
    e270:	dafffff3 	ble	e244 <_vfprintf_r+0x12dc>
    e274:	e28d2074 	add	r2, sp, #116	; 0x74
    e278:	e1a0100a 	mov	r1, sl
    e27c:	e1a00007 	mov	r0, r7
    e280:	eb001086 	bl	124a0 <__sprint_r>
    e284:	e3500000 	cmp	r0, #0
    e288:	1afffc11 	bne	d2d4 <_vfprintf_r+0x36c>
    e28c:	e28d2078 	add	r2, sp, #120	; 0x78
    e290:	e28d80a8 	add	r8, sp, #168	; 0xa8
    e294:	e892000c 	ldm	r2, {r2, r3}
    e298:	eaffffe9 	b	e244 <_vfprintf_r+0x12dc>
    e29c:	e3a03030 	mov	r3, #48	; 0x30
    e2a0:	e28d20e8 	add	r2, sp, #232	; 0xe8
    e2a4:	e5623041 	strb	r3, [r2, #-65]!	; 0xffffffbf
    e2a8:	e28d30a8 	add	r3, sp, #168	; 0xa8
    e2ac:	e0623003 	rsb	r3, r2, r3
    e2b0:	e3a07000 	mov	r7, #0
    e2b4:	e58d202c 	str	r2, [sp, #44]	; 0x2c
    e2b8:	e58d3024 	str	r3, [sp, #36]	; 0x24
    e2bc:	eafffc63 	b	d450 <_vfprintf_r+0x4e8>
    e2c0:	e5dd7057 	ldrb	r7, [sp, #87]	; 0x57
    e2c4:	e28d2008 	add	r2, sp, #8
    e2c8:	e8920006 	ldm	r2, {r1, r2}
    e2cc:	e3520000 	cmp	r2, #0
    e2d0:	03510009 	cmpeq	r1, #9
    e2d4:	8a0000e0 	bhi	e65c <_vfprintf_r+0x16f4>
    e2d8:	e28d30e8 	add	r3, sp, #232	; 0xe8
    e2dc:	e2812030 	add	r2, r1, #48	; 0x30
    e2e0:	e5632041 	strb	r2, [r3, #-65]!	; 0xffffffbf
    e2e4:	e28d20a8 	add	r2, sp, #168	; 0xa8
    e2e8:	e0632002 	rsb	r2, r3, r2
    e2ec:	e58d2024 	str	r2, [sp, #36]	; 0x24
    e2f0:	e58d302c 	str	r3, [sp, #44]	; 0x2c
    e2f4:	eafffc55 	b	d450 <_vfprintf_r+0x4e8>
    e2f8:	e59d103c 	ldr	r1, [sp, #60]	; 0x3c
    e2fc:	e2414001 	sub	r4, r1, #1
    e300:	e3540000 	cmp	r4, #0
    e304:	daffff6c 	ble	e0bc <_vfprintf_r+0x1154>
    e308:	e3540010 	cmp	r4, #16
    e30c:	d51f1f4c 	ldrle	r1, [pc, #-3916]	; d3c8 <_vfprintf_r+0x460>
    e310:	d58d1030 	strle	r1, [sp, #48]	; 0x30
    e314:	da0000b4 	ble	e5ec <_vfprintf_r+0x1684>
    e318:	e51f1f58 	ldr	r1, [pc, #-3928]	; d3c8 <_vfprintf_r+0x460>
    e31c:	e3a06010 	mov	r6, #16
    e320:	e58d1030 	str	r1, [sp, #48]	; 0x30
    e324:	e59d7018 	ldr	r7, [sp, #24]
    e328:	ea000002 	b	e338 <_vfprintf_r+0x13d0>
    e32c:	e2444010 	sub	r4, r4, #16
    e330:	e3540010 	cmp	r4, #16
    e334:	da0000ac 	ble	e5ec <_vfprintf_r+0x1684>
    e338:	e2822001 	add	r2, r2, #1
    e33c:	e3520007 	cmp	r2, #7
    e340:	e2833010 	add	r3, r3, #16
    e344:	e5889000 	str	r9, [r8]
    e348:	e5886004 	str	r6, [r8, #4]
    e34c:	e58d2078 	str	r2, [sp, #120]	; 0x78
    e350:	e58d307c 	str	r3, [sp, #124]	; 0x7c
    e354:	d2888008 	addle	r8, r8, #8
    e358:	dafffff3 	ble	e32c <_vfprintf_r+0x13c4>
    e35c:	e28d2074 	add	r2, sp, #116	; 0x74
    e360:	e1a0100a 	mov	r1, sl
    e364:	e1a00007 	mov	r0, r7
    e368:	eb00104c 	bl	124a0 <__sprint_r>
    e36c:	e3500000 	cmp	r0, #0
    e370:	1afffbd7 	bne	d2d4 <_vfprintf_r+0x36c>
    e374:	e28d2078 	add	r2, sp, #120	; 0x78
    e378:	e28d80a8 	add	r8, sp, #168	; 0xa8
    e37c:	e892000c 	ldm	r2, {r2, r3}
    e380:	eaffffe9 	b	e32c <_vfprintf_r+0x13c4>
    e384:	e59d0014 	ldr	r0, [sp, #20]
    e388:	e3500000 	cmp	r0, #0
    e38c:	e5cd1057 	strb	r1, [sp, #87]	; 0x57
    e390:	bafffd0e 	blt	d7d0 <_vfprintf_r+0x868>
    e394:	13a01001 	movne	r1, #1
    e398:	03a01000 	moveq	r1, #0
    e39c:	e1920003 	orrs	r0, r2, r3
    e3a0:	13811001 	orrne	r1, r1, #1
    e3a4:	e3510000 	cmp	r1, #0
    e3a8:	e3c55080 	bic	r5, r5, #128	; 0x80
    e3ac:	01a07001 	moveq	r7, r1
    e3b0:	0afffc21 	beq	d43c <_vfprintf_r+0x4d4>
    e3b4:	eafffd05 	b	d7d0 <_vfprintf_r+0x868>
    e3b8:	e58d0028 	str	r0, [sp, #40]	; 0x28
    e3bc:	e1a07002 	mov	r7, r2
    e3c0:	eaffffbf 	b	e2c4 <_vfprintf_r+0x135c>
    e3c4:	e59f1da8 	ldr	r1, [pc, #3496]	; f174 <_vfprintf_r+0x220c>
    e3c8:	e59d2078 	ldr	r2, [sp, #120]	; 0x78
    e3cc:	e58d1030 	str	r1, [sp, #48]	; 0x30
    e3d0:	e2822001 	add	r2, r2, #1
    e3d4:	e3520007 	cmp	r2, #7
    e3d8:	e58d2078 	str	r2, [sp, #120]	; 0x78
    e3dc:	e59d2030 	ldr	r2, [sp, #48]	; 0x30
    e3e0:	e0833004 	add	r3, r3, r4
    e3e4:	e8880014 	stm	r8, {r2, r4}
    e3e8:	e58d307c 	str	r3, [sp, #124]	; 0x7c
    e3ec:	d2888008 	addle	r8, r8, #8
    e3f0:	da000007 	ble	e414 <_vfprintf_r+0x14ac>
    e3f4:	e28d2074 	add	r2, sp, #116	; 0x74
    e3f8:	e1a0100a 	mov	r1, sl
    e3fc:	e59d0018 	ldr	r0, [sp, #24]
    e400:	eb001026 	bl	124a0 <__sprint_r>
    e404:	e3500000 	cmp	r0, #0
    e408:	1afffbb1 	bne	d2d4 <_vfprintf_r+0x36c>
    e40c:	e59d307c 	ldr	r3, [sp, #124]	; 0x7c
    e410:	e28d80a8 	add	r8, sp, #168	; 0xa8
    e414:	e59d103c 	ldr	r1, [sp, #60]	; 0x3c
    e418:	e59d205c 	ldr	r2, [sp, #92]	; 0x5c
    e41c:	e59d0038 	ldr	r0, [sp, #56]	; 0x38
    e420:	e1510002 	cmp	r1, r2
    e424:	e59d102c 	ldr	r1, [sp, #44]	; 0x2c
    e428:	e0816000 	add	r6, r1, r0
    e42c:	ca000037 	bgt	e510 <_vfprintf_r+0x15a8>
    e430:	e3150001 	tst	r5, #1
    e434:	1a000035 	bne	e510 <_vfprintf_r+0x15a8>
    e438:	e59d103c 	ldr	r1, [sp, #60]	; 0x3c
    e43c:	e59d002c 	ldr	r0, [sp, #44]	; 0x2c
    e440:	e0804001 	add	r4, r0, r1
    e444:	e0664004 	rsb	r4, r6, r4
    e448:	e0622001 	rsb	r2, r2, r1
    e44c:	e1540002 	cmp	r4, r2
    e450:	a1a04002 	movge	r4, r2
    e454:	e3540000 	cmp	r4, #0
    e458:	da000009 	ble	e484 <_vfprintf_r+0x151c>
    e45c:	e59d1078 	ldr	r1, [sp, #120]	; 0x78
    e460:	e2811001 	add	r1, r1, #1
    e464:	e0833004 	add	r3, r3, r4
    e468:	e3510007 	cmp	r1, #7
    e46c:	e5886000 	str	r6, [r8]
    e470:	e5884004 	str	r4, [r8, #4]
    e474:	e58d307c 	str	r3, [sp, #124]	; 0x7c
    e478:	e58d1078 	str	r1, [sp, #120]	; 0x78
    e47c:	d2888008 	addle	r8, r8, #8
    e480:	ca000249 	bgt	edac <_vfprintf_r+0x1e44>
    e484:	e3540000 	cmp	r4, #0
    e488:	b1a04002 	movlt	r4, r2
    e48c:	a0644002 	rsbge	r4, r4, r2
    e490:	e3540000 	cmp	r4, #0
    e494:	dafffe1d 	ble	dd10 <_vfprintf_r+0xda8>
    e498:	e3540010 	cmp	r4, #16
    e49c:	daffff32 	ble	e16c <_vfprintf_r+0x1204>
    e4a0:	e59f1ccc 	ldr	r1, [pc, #3276]	; f174 <_vfprintf_r+0x220c>
    e4a4:	e3a06010 	mov	r6, #16
    e4a8:	e59d2078 	ldr	r2, [sp, #120]	; 0x78
    e4ac:	e58d1030 	str	r1, [sp, #48]	; 0x30
    e4b0:	e59d7018 	ldr	r7, [sp, #24]
    e4b4:	ea000002 	b	e4c4 <_vfprintf_r+0x155c>
    e4b8:	e2444010 	sub	r4, r4, #16
    e4bc:	e3540010 	cmp	r4, #16
    e4c0:	daffff2c 	ble	e178 <_vfprintf_r+0x1210>
    e4c4:	e2822001 	add	r2, r2, #1
    e4c8:	e3520007 	cmp	r2, #7
    e4cc:	e2833010 	add	r3, r3, #16
    e4d0:	e5889000 	str	r9, [r8]
    e4d4:	e5886004 	str	r6, [r8, #4]
    e4d8:	e58d2078 	str	r2, [sp, #120]	; 0x78
    e4dc:	e58d307c 	str	r3, [sp, #124]	; 0x7c
    e4e0:	d2888008 	addle	r8, r8, #8
    e4e4:	dafffff3 	ble	e4b8 <_vfprintf_r+0x1550>
    e4e8:	e28d2074 	add	r2, sp, #116	; 0x74
    e4ec:	e1a0100a 	mov	r1, sl
    e4f0:	e1a00007 	mov	r0, r7
    e4f4:	eb000fe9 	bl	124a0 <__sprint_r>
    e4f8:	e3500000 	cmp	r0, #0
    e4fc:	1afffb74 	bne	d2d4 <_vfprintf_r+0x36c>
    e500:	e28d2078 	add	r2, sp, #120	; 0x78
    e504:	e28d80a8 	add	r8, sp, #168	; 0xa8
    e508:	e892000c 	ldm	r2, {r2, r3}
    e50c:	eaffffe9 	b	e4b8 <_vfprintf_r+0x1550>
    e510:	e59d1078 	ldr	r1, [sp, #120]	; 0x78
    e514:	e59d0044 	ldr	r0, [sp, #68]	; 0x44
    e518:	e2811001 	add	r1, r1, #1
    e51c:	e59dc048 	ldr	ip, [sp, #72]	; 0x48
    e520:	e0833000 	add	r3, r3, r0
    e524:	e3510007 	cmp	r1, #7
    e528:	e588c000 	str	ip, [r8]
    e52c:	e5880004 	str	r0, [r8, #4]
    e530:	e58d307c 	str	r3, [sp, #124]	; 0x7c
    e534:	e58d1078 	str	r1, [sp, #120]	; 0x78
    e538:	d2888008 	addle	r8, r8, #8
    e53c:	daffffbd 	ble	e438 <_vfprintf_r+0x14d0>
    e540:	e28d2074 	add	r2, sp, #116	; 0x74
    e544:	e1a0100a 	mov	r1, sl
    e548:	e59d0018 	ldr	r0, [sp, #24]
    e54c:	eb000fd3 	bl	124a0 <__sprint_r>
    e550:	e3500000 	cmp	r0, #0
    e554:	1afffb5e 	bne	d2d4 <_vfprintf_r+0x36c>
    e558:	e28d80a8 	add	r8, sp, #168	; 0xa8
    e55c:	e59d205c 	ldr	r2, [sp, #92]	; 0x5c
    e560:	e59d307c 	ldr	r3, [sp, #124]	; 0x7c
    e564:	eaffffb3 	b	e438 <_vfprintf_r+0x14d0>
    e568:	e3150001 	tst	r5, #1
    e56c:	1afffeac 	bne	e024 <_vfprintf_r+0x10bc>
    e570:	e3a01001 	mov	r1, #1
    e574:	e59d2078 	ldr	r2, [sp, #120]	; 0x78
    e578:	e59d002c 	ldr	r0, [sp, #44]	; 0x2c
    e57c:	e0822001 	add	r2, r2, r1
    e580:	e0833001 	add	r3, r3, r1
    e584:	e3520007 	cmp	r2, #7
    e588:	e58d307c 	str	r3, [sp, #124]	; 0x7c
    e58c:	e5880000 	str	r0, [r8]
    e590:	e58d2078 	str	r2, [sp, #120]	; 0x78
    e594:	e5881004 	str	r1, [r8, #4]
    e598:	dafffec6 	ble	e0b8 <_vfprintf_r+0x1150>
    e59c:	e28d2074 	add	r2, sp, #116	; 0x74
    e5a0:	e1a0100a 	mov	r1, sl
    e5a4:	e59d0018 	ldr	r0, [sp, #24]
    e5a8:	eb000fbc 	bl	124a0 <__sprint_r>
    e5ac:	e3500000 	cmp	r0, #0
    e5b0:	1afffb47 	bne	d2d4 <_vfprintf_r+0x36c>
    e5b4:	e28d2078 	add	r2, sp, #120	; 0x78
    e5b8:	e28d80a8 	add	r8, sp, #168	; 0xa8
    e5bc:	e892000c 	ldm	r2, {r2, r3}
    e5c0:	eafffebd 	b	e0bc <_vfprintf_r+0x1154>
    e5c4:	e28d2074 	add	r2, sp, #116	; 0x74
    e5c8:	e1a0100a 	mov	r1, sl
    e5cc:	e59d0018 	ldr	r0, [sp, #24]
    e5d0:	eb000fb2 	bl	124a0 <__sprint_r>
    e5d4:	e3500000 	cmp	r0, #0
    e5d8:	1afffb3d 	bne	d2d4 <_vfprintf_r+0x36c>
    e5dc:	e28d2078 	add	r2, sp, #120	; 0x78
    e5e0:	e28d80a8 	add	r8, sp, #168	; 0xa8
    e5e4:	e892000c 	ldm	r2, {r2, r3}
    e5e8:	eafffe99 	b	e054 <_vfprintf_r+0x10ec>
    e5ec:	e2822001 	add	r2, r2, #1
    e5f0:	e59d1030 	ldr	r1, [sp, #48]	; 0x30
    e5f4:	e0833004 	add	r3, r3, r4
    e5f8:	e3520007 	cmp	r2, #7
    e5fc:	e58d2078 	str	r2, [sp, #120]	; 0x78
    e600:	e58d307c 	str	r3, [sp, #124]	; 0x7c
    e604:	e8880012 	stm	r8, {r1, r4}
    e608:	dafffeaa 	ble	e0b8 <_vfprintf_r+0x1150>
    e60c:	e28d2074 	add	r2, sp, #116	; 0x74
    e610:	e1a0100a 	mov	r1, sl
    e614:	e59d0018 	ldr	r0, [sp, #24]
    e618:	eb000fa0 	bl	124a0 <__sprint_r>
    e61c:	e3500000 	cmp	r0, #0
    e620:	1afffb2b 	bne	d2d4 <_vfprintf_r+0x36c>
    e624:	e28d2078 	add	r2, sp, #120	; 0x78
    e628:	e892000c 	ldm	r2, {r2, r3}
    e62c:	e28d80a8 	add	r8, sp, #168	; 0xa8
    e630:	eafffea1 	b	e0bc <_vfprintf_r+0x1154>
    e634:	e28d2074 	add	r2, sp, #116	; 0x74
    e638:	e1a0100a 	mov	r1, sl
    e63c:	e59d0018 	ldr	r0, [sp, #24]
    e640:	eb000f96 	bl	124a0 <__sprint_r>
    e644:	e3500000 	cmp	r0, #0
    e648:	1afffb21 	bne	d2d4 <_vfprintf_r+0x36c>
    e64c:	e28d2078 	add	r2, sp, #120	; 0x78
    e650:	e28d80a8 	add	r8, sp, #168	; 0xa8
    e654:	e892000c 	ldm	r2, {r2, r3}
    e658:	eafffe87 	b	e07c <_vfprintf_r+0x1114>
    e65c:	e28d30a8 	add	r3, sp, #168	; 0xa8
    e660:	e58d6024 	str	r6, [sp, #36]	; 0x24
    e664:	e1a06003 	mov	r6, r3
    e668:	e58d5030 	str	r5, [sp, #48]	; 0x30
    e66c:	e28d5008 	add	r5, sp, #8
    e670:	e8950030 	ldm	r5, {r4, r5}
    e674:	e1a00004 	mov	r0, r4
    e678:	e1a01005 	mov	r1, r5
    e67c:	e3a0200a 	mov	r2, #10
    e680:	e3a03000 	mov	r3, #0
    e684:	eb001eb7 	bl	16168 <__aeabi_uldivmod>
    e688:	e2822030 	add	r2, r2, #48	; 0x30
    e68c:	e5662001 	strb	r2, [r6, #-1]!
    e690:	e1a00004 	mov	r0, r4
    e694:	e1a01005 	mov	r1, r5
    e698:	e3a03000 	mov	r3, #0
    e69c:	e3a0200a 	mov	r2, #10
    e6a0:	eb001eb0 	bl	16168 <__aeabi_uldivmod>
    e6a4:	e1a04000 	mov	r4, r0
    e6a8:	e1a05001 	mov	r5, r1
    e6ac:	e1943005 	orrs	r3, r4, r5
    e6b0:	1affffef 	bne	e674 <_vfprintf_r+0x170c>
    e6b4:	e1a03006 	mov	r3, r6
    e6b8:	e28d20a8 	add	r2, sp, #168	; 0xa8
    e6bc:	e0633002 	rsb	r3, r3, r2
    e6c0:	e58d602c 	str	r6, [sp, #44]	; 0x2c
    e6c4:	e59d5030 	ldr	r5, [sp, #48]	; 0x30
    e6c8:	e59d6024 	ldr	r6, [sp, #36]	; 0x24
    e6cc:	e58d3024 	str	r3, [sp, #36]	; 0x24
    e6d0:	eafffb5e 	b	d450 <_vfprintf_r+0x4e8>
    e6d4:	e3a0302d 	mov	r3, #45	; 0x2d
    e6d8:	e28d2008 	add	r2, sp, #8
    e6dc:	e8920006 	ldm	r2, {r1, r2}
    e6e0:	e2711000 	rsbs	r1, r1, #0
    e6e4:	e2e22000 	rsc	r2, r2, #0
    e6e8:	e58d1008 	str	r1, [sp, #8]
    e6ec:	e58d200c 	str	r2, [sp, #12]
    e6f0:	e59d2014 	ldr	r2, [sp, #20]
    e6f4:	e3520000 	cmp	r2, #0
    e6f8:	e5cd3057 	strb	r3, [sp, #87]	; 0x57
    e6fc:	bafffcff 	blt	db00 <_vfprintf_r+0xb98>
    e700:	e3c55080 	bic	r5, r5, #128	; 0x80
    e704:	e1a07003 	mov	r7, r3
    e708:	eafffeed 	b	e2c4 <_vfprintf_r+0x135c>
    e70c:	e3a01000 	mov	r1, #0
    e710:	e59d0014 	ldr	r0, [sp, #20]
    e714:	e1500001 	cmp	r0, r1
    e718:	e5cd1057 	strb	r1, [sp, #87]	; 0x57
    e71c:	bafffc2b 	blt	d7d0 <_vfprintf_r+0x868>
    e720:	e3c55080 	bic	r5, r5, #128	; 0x80
    e724:	01a07000 	moveq	r7, r0
    e728:	0afffb43 	beq	d43c <_vfprintf_r+0x4d4>
    e72c:	eafffc27 	b	d7d0 <_vfprintf_r+0x868>
    e730:	eeb48b48 	vcmp.f64	d8, d8
    e734:	eef1fa10 	vmrs	APSR_nzcv, fpscr
    e738:	6a000245 	bvs	f054 <_vfprintf_r+0x20ec>
    e73c:	e59d3014 	ldr	r3, [sp, #20]
    e740:	e3730001 	cmn	r3, #1
    e744:	e3c63020 	bic	r3, r6, #32
    e748:	e58d3008 	str	r3, [sp, #8]
    e74c:	03a03006 	moveq	r3, #6
    e750:	058d3014 	streq	r3, [sp, #20]
    e754:	0a000003 	beq	e768 <_vfprintf_r+0x1800>
    e758:	e59d2014 	ldr	r2, [sp, #20]
    e75c:	e3520000 	cmp	r2, #0
    e760:	03530047 	cmpeq	r3, #71	; 0x47
    e764:	0a00010d 	beq	eba0 <_vfprintf_r+0x1c38>
    e768:	ee183a90 	vmov	r3, s17
    e76c:	e3530000 	cmp	r3, #0
    e770:	e3853c01 	orr	r3, r5, #256	; 0x100
    e774:	e58d3030 	str	r3, [sp, #48]	; 0x30
    e778:	ba0001a8 	blt	ee20 <_vfprintf_r+0x1eb8>
    e77c:	e59d3008 	ldr	r3, [sp, #8]
    e780:	e3530046 	cmp	r3, #70	; 0x46
    e784:	0a00024a 	beq	f0b4 <_vfprintf_r+0x214c>
    e788:	eeb0ab48 	vmov.f64	d10, d8
    e78c:	e3a07000 	mov	r7, #0
    e790:	e59d3008 	ldr	r3, [sp, #8]
    e794:	e3530045 	cmp	r3, #69	; 0x45
    e798:	1a00010b 	bne	ebcc <_vfprintf_r+0x1c64>
    e79c:	e59d3014 	ldr	r3, [sp, #20]
    e7a0:	e28d106c 	add	r1, sp, #108	; 0x6c
    e7a4:	e2834001 	add	r4, r3, #1
    e7a8:	e28d3060 	add	r3, sp, #96	; 0x60
    e7ac:	e58d1004 	str	r1, [sp, #4]
    e7b0:	e58d3000 	str	r3, [sp]
    e7b4:	e1a02004 	mov	r2, r4
    e7b8:	e28d305c 	add	r3, sp, #92	; 0x5c
    e7bc:	e3a01002 	mov	r1, #2
    e7c0:	eeb00b4a 	vmov.f64	d0, d10
    e7c4:	e59d0018 	ldr	r0, [sp, #24]
    e7c8:	eb000394 	bl	f620 <_dtoa_r>
    e7cc:	e58d002c 	str	r0, [sp, #44]	; 0x2c
    e7d0:	e59d302c 	ldr	r3, [sp, #44]	; 0x2c
    e7d4:	e0834004 	add	r4, r3, r4
    e7d8:	eeb5ab40 	vcmp.f64	d10, #0.0
    e7dc:	eef1fa10 	vmrs	APSR_nzcv, fpscr
    e7e0:	01a03004 	moveq	r3, r4
    e7e4:	0a000009 	beq	e810 <_vfprintf_r+0x18a8>
    e7e8:	e59d306c 	ldr	r3, [sp, #108]	; 0x6c
    e7ec:	e1540003 	cmp	r4, r3
    e7f0:	9a000006 	bls	e810 <_vfprintf_r+0x18a8>
    e7f4:	e3a01030 	mov	r1, #48	; 0x30
    e7f8:	e2832001 	add	r2, r3, #1
    e7fc:	e58d206c 	str	r2, [sp, #108]	; 0x6c
    e800:	e5c31000 	strb	r1, [r3]
    e804:	e59d306c 	ldr	r3, [sp, #108]	; 0x6c
    e808:	e1540003 	cmp	r4, r3
    e80c:	8afffff9 	bhi	e7f8 <_vfprintf_r+0x1890>
    e810:	e59d2008 	ldr	r2, [sp, #8]
    e814:	e3520047 	cmp	r2, #71	; 0x47
    e818:	e59d202c 	ldr	r2, [sp, #44]	; 0x2c
    e81c:	e0623003 	rsb	r3, r2, r3
    e820:	e58d303c 	str	r3, [sp, #60]	; 0x3c
    e824:	e59d305c 	ldr	r3, [sp, #92]	; 0x5c
    e828:	1a000141 	bne	ed34 <_vfprintf_r+0x1dcc>
    e82c:	e3730003 	cmn	r3, #3
    e830:	a3a02000 	movge	r2, #0
    e834:	b3a02001 	movlt	r2, #1
    e838:	e59d1014 	ldr	r1, [sp, #20]
    e83c:	e1530001 	cmp	r3, r1
    e840:	c3822001 	orrgt	r2, r2, #1
    e844:	e3520000 	cmp	r2, #0
    e848:	12466002 	subne	r6, r6, #2
    e84c:	1a000194 	bne	eea4 <_vfprintf_r+0x1f3c>
    e850:	e58d3038 	str	r3, [sp, #56]	; 0x38
    e854:	e59d203c 	ldr	r2, [sp, #60]	; 0x3c
    e858:	e59d3038 	ldr	r3, [sp, #56]	; 0x38
    e85c:	e1520003 	cmp	r2, r3
    e860:	ca0001d1 	bgt	efac <_vfprintf_r+0x2044>
    e864:	e3150001 	tst	r5, #1
    e868:	01a02003 	moveq	r2, r3
    e86c:	e3a06067 	mov	r6, #103	; 0x67
    e870:	159d3038 	ldrne	r3, [sp, #56]	; 0x38
    e874:	159d2044 	ldrne	r2, [sp, #68]	; 0x44
    e878:	058d2024 	streq	r2, [sp, #36]	; 0x24
    e87c:	10833002 	addne	r3, r3, r2
    e880:	158d3024 	strne	r3, [sp, #36]	; 0x24
    e884:	01c33fc3 	biceq	r3, r3, r3, asr #31
    e888:	11c33fc3 	bicne	r3, r3, r3, asr #31
    e88c:	e3570000 	cmp	r7, #0
    e890:	1a000120 	bne	ed18 <_vfprintf_r+0x1db0>
    e894:	e58d7014 	str	r7, [sp, #20]
    e898:	e58d3008 	str	r3, [sp, #8]
    e89c:	e59d5030 	ldr	r5, [sp, #48]	; 0x30
    e8a0:	e5dd7057 	ldrb	r7, [sp, #87]	; 0x57
    e8a4:	eafffaf0 	b	d46c <_vfprintf_r+0x504>
    e8a8:	e2153040 	ands	r3, r5, #64	; 0x40
    e8ac:	1a0000ae 	bne	eb6c <_vfprintf_r+0x1c04>
    e8b0:	e59d0014 	ldr	r0, [sp, #20]
    e8b4:	e59d1028 	ldr	r1, [sp, #40]	; 0x28
    e8b8:	e3500000 	cmp	r0, #0
    e8bc:	e5cd3057 	strb	r3, [sp, #87]	; 0x57
    e8c0:	e5912000 	ldr	r2, [r1]
    e8c4:	e2814004 	add	r4, r1, #4
    e8c8:	e3a03000 	mov	r3, #0
    e8cc:	ba0000af 	blt	eb90 <_vfprintf_r+0x1c28>
    e8d0:	e59d0014 	ldr	r0, [sp, #20]
    e8d4:	e1821003 	orr	r1, r2, r3
    e8d8:	e3510000 	cmp	r1, #0
    e8dc:	03500000 	cmpeq	r0, #0
    e8e0:	e58d4028 	str	r4, [sp, #40]	; 0x28
    e8e4:	e3c55080 	bic	r5, r5, #128	; 0x80
    e8e8:	0afffbf9 	beq	d8d4 <_vfprintf_r+0x96c>
    e8ec:	eafffb67 	b	d690 <_vfprintf_r+0x728>
    e8f0:	e215c040 	ands	ip, r5, #64	; 0x40
    e8f4:	1a000088 	bne	eb1c <_vfprintf_r+0x1bb4>
    e8f8:	e59d2028 	ldr	r2, [sp, #40]	; 0x28
    e8fc:	e59d1014 	ldr	r1, [sp, #20]
    e900:	e5923000 	ldr	r3, [r2]
    e904:	e3510000 	cmp	r1, #0
    e908:	e2824004 	add	r4, r2, #4
    e90c:	e1a01003 	mov	r1, r3
    e910:	e3a02000 	mov	r2, #0
    e914:	e5cdc057 	strb	ip, [sp, #87]	; 0x57
    e918:	e58d1008 	str	r1, [sp, #8]
    e91c:	e58d200c 	str	r2, [sp, #12]
    e920:	b58d4028 	strlt	r4, [sp, #40]	; 0x28
    e924:	b1a0700c 	movlt	r7, ip
    e928:	bafffe65 	blt	e2c4 <_vfprintf_r+0x135c>
    e92c:	e28d2008 	add	r2, sp, #8
    e930:	e8920006 	ldm	r2, {r1, r2}
    e934:	e1a00001 	mov	r0, r1
    e938:	13a03001 	movne	r3, #1
    e93c:	03a03000 	moveq	r3, #0
    e940:	e1902002 	orrs	r2, r0, r2
    e944:	13833001 	orrne	r3, r3, #1
    e948:	e3530000 	cmp	r3, #0
    e94c:	e58d4028 	str	r4, [sp, #40]	; 0x28
    e950:	e3c55080 	bic	r5, r5, #128	; 0x80
    e954:	0afffb80 	beq	d75c <_vfprintf_r+0x7f4>
    e958:	e1a0700c 	mov	r7, ip
    e95c:	eafffe58 	b	e2c4 <_vfprintf_r+0x135c>
    e960:	e3150010 	tst	r5, #16
    e964:	1a000008 	bne	e98c <_vfprintf_r+0x1a24>
    e968:	e3150040 	tst	r5, #64	; 0x40
    e96c:	0a000006 	beq	e98c <_vfprintf_r+0x1a24>
    e970:	e59d2028 	ldr	r2, [sp, #40]	; 0x28
    e974:	e5923000 	ldr	r3, [r2]
    e978:	e2822004 	add	r2, r2, #4
    e97c:	e58d2028 	str	r2, [sp, #40]	; 0x28
    e980:	e1dd21bc 	ldrh	r2, [sp, #28]
    e984:	e1c320b0 	strh	r2, [r3]
    e988:	eafff9a9 	b	d034 <_vfprintf_r+0xcc>
    e98c:	e59d2028 	ldr	r2, [sp, #40]	; 0x28
    e990:	e5923000 	ldr	r3, [r2]
    e994:	e2822004 	add	r2, r2, #4
    e998:	e58d2028 	str	r2, [sp, #40]	; 0x28
    e99c:	e59d201c 	ldr	r2, [sp, #28]
    e9a0:	e5832000 	str	r2, [r3]
    e9a4:	eafff9a2 	b	d034 <_vfprintf_r+0xcc>
    e9a8:	e3150040 	tst	r5, #64	; 0x40
    e9ac:	0a000054 	beq	eb04 <_vfprintf_r+0x1b9c>
    e9b0:	e59d3028 	ldr	r3, [sp, #40]	; 0x28
    e9b4:	e1d320b0 	ldrh	r2, [r3]
    e9b8:	e2833004 	add	r3, r3, #4
    e9bc:	e58d3028 	str	r3, [sp, #40]	; 0x28
    e9c0:	e3a03000 	mov	r3, #0
    e9c4:	eafffbf9 	b	d9b0 <_vfprintf_r+0xa48>
    e9c8:	e59f17a4 	ldr	r1, [pc, #1956]	; f174 <_vfprintf_r+0x220c>
    e9cc:	e59d2078 	ldr	r2, [sp, #120]	; 0x78
    e9d0:	e58d1030 	str	r1, [sp, #48]	; 0x30
    e9d4:	eafffcaf 	b	dc98 <_vfprintf_r+0xd30>
    e9d8:	e28d2074 	add	r2, sp, #116	; 0x74
    e9dc:	e1a0100a 	mov	r1, sl
    e9e0:	e59d0018 	ldr	r0, [sp, #24]
    e9e4:	eb000ead 	bl	124a0 <__sprint_r>
    e9e8:	e3500000 	cmp	r0, #0
    e9ec:	1afffa38 	bne	d2d4 <_vfprintf_r+0x36c>
    e9f0:	e28d80a8 	add	r8, sp, #168	; 0xa8
    e9f4:	e59d307c 	ldr	r3, [sp, #124]	; 0x7c
    e9f8:	eafffd18 	b	de60 <_vfprintf_r+0xef8>
    e9fc:	e1a07003 	mov	r7, r3
    ea00:	e28d30a8 	add	r3, sp, #168	; 0xa8
    ea04:	e0603003 	rsb	r3, r0, r3
    ea08:	e58d3024 	str	r3, [sp, #36]	; 0x24
    ea0c:	e58d002c 	str	r0, [sp, #44]	; 0x2c
    ea10:	eafffa8e 	b	d450 <_vfprintf_r+0x4e8>
    ea14:	e3a01001 	mov	r1, #1
    ea18:	e59d2078 	ldr	r2, [sp, #120]	; 0x78
    ea1c:	e59f0754 	ldr	r0, [pc, #1876]	; f178 <_vfprintf_r+0x2210>
    ea20:	e0822001 	add	r2, r2, r1
    ea24:	e0833001 	add	r3, r3, r1
    ea28:	e3520007 	cmp	r2, #7
    ea2c:	e5880000 	str	r0, [r8]
    ea30:	e5881004 	str	r1, [r8, #4]
    ea34:	e58d307c 	str	r3, [sp, #124]	; 0x7c
    ea38:	e58d2078 	str	r2, [sp, #120]	; 0x78
    ea3c:	d2888008 	addle	r8, r8, #8
    ea40:	ca00007a 	bgt	ec30 <_vfprintf_r+0x1cc8>
    ea44:	e59d203c 	ldr	r2, [sp, #60]	; 0x3c
    ea48:	e1922004 	orrs	r2, r2, r4
    ea4c:	0a000074 	beq	ec24 <_vfprintf_r+0x1cbc>
    ea50:	e59d2078 	ldr	r2, [sp, #120]	; 0x78
    ea54:	e59d1044 	ldr	r1, [sp, #68]	; 0x44
    ea58:	e2822001 	add	r2, r2, #1
    ea5c:	e59d0048 	ldr	r0, [sp, #72]	; 0x48
    ea60:	e0813003 	add	r3, r1, r3
    ea64:	e3520007 	cmp	r2, #7
    ea68:	e8880003 	stm	r8, {r0, r1}
    ea6c:	e58d307c 	str	r3, [sp, #124]	; 0x7c
    ea70:	e58d2078 	str	r2, [sp, #120]	; 0x78
    ea74:	d2888008 	addle	r8, r8, #8
    ea78:	ca000164 	bgt	f010 <_vfprintf_r+0x20a8>
    ea7c:	e2644000 	rsb	r4, r4, #0
    ea80:	e3540000 	cmp	r4, #0
    ea84:	da000093 	ble	ecd8 <_vfprintf_r+0x1d70>
    ea88:	e3540010 	cmp	r4, #16
    ea8c:	d59f16e0 	ldrle	r1, [pc, #1760]	; f174 <_vfprintf_r+0x220c>
    ea90:	d58d1030 	strle	r1, [sp, #48]	; 0x30
    ea94:	da00007d 	ble	ec90 <_vfprintf_r+0x1d28>
    ea98:	e59f16d4 	ldr	r1, [pc, #1748]	; f174 <_vfprintf_r+0x220c>
    ea9c:	e3a06010 	mov	r6, #16
    eaa0:	e58d1030 	str	r1, [sp, #48]	; 0x30
    eaa4:	e59d7018 	ldr	r7, [sp, #24]
    eaa8:	ea000002 	b	eab8 <_vfprintf_r+0x1b50>
    eaac:	e2444010 	sub	r4, r4, #16
    eab0:	e3540010 	cmp	r4, #16
    eab4:	da000075 	ble	ec90 <_vfprintf_r+0x1d28>
    eab8:	e2822001 	add	r2, r2, #1
    eabc:	e3520007 	cmp	r2, #7
    eac0:	e2833010 	add	r3, r3, #16
    eac4:	e5889000 	str	r9, [r8]
    eac8:	e5886004 	str	r6, [r8, #4]
    eacc:	e58d2078 	str	r2, [sp, #120]	; 0x78
    ead0:	e58d307c 	str	r3, [sp, #124]	; 0x7c
    ead4:	d2888008 	addle	r8, r8, #8
    ead8:	dafffff3 	ble	eaac <_vfprintf_r+0x1b44>
    eadc:	e28d2074 	add	r2, sp, #116	; 0x74
    eae0:	e1a0100a 	mov	r1, sl
    eae4:	e1a00007 	mov	r0, r7
    eae8:	eb000e6c 	bl	124a0 <__sprint_r>
    eaec:	e3500000 	cmp	r0, #0
    eaf0:	1afff9f7 	bne	d2d4 <_vfprintf_r+0x36c>
    eaf4:	e28d2078 	add	r2, sp, #120	; 0x78
    eaf8:	e28d80a8 	add	r8, sp, #168	; 0xa8
    eafc:	e892000c 	ldm	r2, {r2, r3}
    eb00:	eaffffe9 	b	eaac <_vfprintf_r+0x1b44>
    eb04:	e59d1028 	ldr	r1, [sp, #40]	; 0x28
    eb08:	e5912000 	ldr	r2, [r1]
    eb0c:	e2811004 	add	r1, r1, #4
    eb10:	e3a03000 	mov	r3, #0
    eb14:	e58d1028 	str	r1, [sp, #40]	; 0x28
    eb18:	eafffba4 	b	d9b0 <_vfprintf_r+0xa48>
    eb1c:	e59d3028 	ldr	r3, [sp, #40]	; 0x28
    eb20:	e59d0014 	ldr	r0, [sp, #20]
    eb24:	e1d310b0 	ldrh	r1, [r3]
    eb28:	e3500000 	cmp	r0, #0
    eb2c:	e3a04000 	mov	r4, #0
    eb30:	e2830004 	add	r0, r3, #4
    eb34:	e1a03001 	mov	r3, r1
    eb38:	e5cd2057 	strb	r2, [sp, #87]	; 0x57
    eb3c:	e58d3008 	str	r3, [sp, #8]
    eb40:	e58d400c 	str	r4, [sp, #12]
    eb44:	bafffe1b 	blt	e3b8 <_vfprintf_r+0x1450>
    eb48:	13a03001 	movne	r3, #1
    eb4c:	03a03000 	moveq	r3, #0
    eb50:	e3510000 	cmp	r1, #0
    eb54:	13833001 	orrne	r3, r3, #1
    eb58:	e3530000 	cmp	r3, #0
    eb5c:	e58d0028 	str	r0, [sp, #40]	; 0x28
    eb60:	e3c55080 	bic	r5, r5, #128	; 0x80
    eb64:	1afffe14 	bne	e3bc <_vfprintf_r+0x1454>
    eb68:	eafffafb 	b	d75c <_vfprintf_r+0x7f4>
    eb6c:	e59d3028 	ldr	r3, [sp, #40]	; 0x28
    eb70:	e59d0014 	ldr	r0, [sp, #20]
    eb74:	e1d310b0 	ldrh	r1, [r3]
    eb78:	e3500000 	cmp	r0, #0
    eb7c:	e5cd2057 	strb	r2, [sp, #87]	; 0x57
    eb80:	e2834004 	add	r4, r3, #4
    eb84:	e1a02001 	mov	r2, r1
    eb88:	e3a03000 	mov	r3, #0
    eb8c:	aaffff51 	bge	e8d8 <_vfprintf_r+0x1970>
    eb90:	e58d4028 	str	r4, [sp, #40]	; 0x28
    eb94:	eafffabd 	b	d690 <_vfprintf_r+0x728>
    eb98:	e1d030f0 	ldrsh	r3, [r0]
    eb9c:	eafffb6f 	b	d960 <_vfprintf_r+0x9f8>
    eba0:	ee183a90 	vmov	r3, s17
    eba4:	e3530000 	cmp	r3, #0
    eba8:	e3853c01 	orr	r3, r5, #256	; 0x100
    ebac:	e58d3030 	str	r3, [sp, #48]	; 0x30
    ebb0:	ba000096 	blt	ee10 <_vfprintf_r+0x1ea8>
    ebb4:	e3a03047 	mov	r3, #71	; 0x47
    ebb8:	e58d3008 	str	r3, [sp, #8]
    ebbc:	e3a03001 	mov	r3, #1
    ebc0:	eeb0ab48 	vmov.f64	d10, d8
    ebc4:	e3a07000 	mov	r7, #0
    ebc8:	e58d3014 	str	r3, [sp, #20]
    ebcc:	e28d206c 	add	r2, sp, #108	; 0x6c
    ebd0:	e28d3060 	add	r3, sp, #96	; 0x60
    ebd4:	e58d2004 	str	r2, [sp, #4]
    ebd8:	e58d3000 	str	r3, [sp]
    ebdc:	e59d2014 	ldr	r2, [sp, #20]
    ebe0:	e28d305c 	add	r3, sp, #92	; 0x5c
    ebe4:	e3a01002 	mov	r1, #2
    ebe8:	eeb00b4a 	vmov.f64	d0, d10
    ebec:	e59d0018 	ldr	r0, [sp, #24]
    ebf0:	eb00028a 	bl	f620 <_dtoa_r>
    ebf4:	e59d3008 	ldr	r3, [sp, #8]
    ebf8:	e3530047 	cmp	r3, #71	; 0x47
    ebfc:	e58d002c 	str	r0, [sp, #44]	; 0x2c
    ec00:	159d4014 	ldrne	r4, [sp, #20]
    ec04:	1afffef1 	bne	e7d0 <_vfprintf_r+0x1868>
    ec08:	e3150001 	tst	r5, #1
    ec0c:	059d306c 	ldreq	r3, [sp, #108]	; 0x6c
    ec10:	0afffefe 	beq	e810 <_vfprintf_r+0x18a8>
    ec14:	e59d302c 	ldr	r3, [sp, #44]	; 0x2c
    ec18:	e59d2014 	ldr	r2, [sp, #20]
    ec1c:	e0834002 	add	r4, r3, r2
    ec20:	eafffeec 	b	e7d8 <_vfprintf_r+0x1870>
    ec24:	e3150001 	tst	r5, #1
    ec28:	0afffc38 	beq	dd10 <_vfprintf_r+0xda8>
    ec2c:	eaffff87 	b	ea50 <_vfprintf_r+0x1ae8>
    ec30:	e28d2074 	add	r2, sp, #116	; 0x74
    ec34:	e1a0100a 	mov	r1, sl
    ec38:	e59d0018 	ldr	r0, [sp, #24]
    ec3c:	eb000e17 	bl	124a0 <__sprint_r>
    ec40:	e3500000 	cmp	r0, #0
    ec44:	1afff9a2 	bne	d2d4 <_vfprintf_r+0x36c>
    ec48:	e28d80a8 	add	r8, sp, #168	; 0xa8
    ec4c:	e59d405c 	ldr	r4, [sp, #92]	; 0x5c
    ec50:	e59d307c 	ldr	r3, [sp, #124]	; 0x7c
    ec54:	eaffff7a 	b	ea44 <_vfprintf_r+0x1adc>
    ec58:	e3855002 	orr	r5, r5, #2
    ec5c:	e58d4028 	str	r4, [sp, #40]	; 0x28
    ec60:	e1a06000 	mov	r6, r0
    ec64:	e59fc510 	ldr	ip, [pc, #1296]	; f17c <_vfprintf_r+0x2214>
    ec68:	eafffad8 	b	d7d0 <_vfprintf_r+0x868>
    ec6c:	e28d2074 	add	r2, sp, #116	; 0x74
    ec70:	e1a0100a 	mov	r1, sl
    ec74:	e59d0018 	ldr	r0, [sp, #24]
    ec78:	eb000e08 	bl	124a0 <__sprint_r>
    ec7c:	e3500000 	cmp	r0, #0
    ec80:	1afff993 	bne	d2d4 <_vfprintf_r+0x36c>
    ec84:	e28d80a8 	add	r8, sp, #168	; 0xa8
    ec88:	e59d307c 	ldr	r3, [sp, #124]	; 0x7c
    ec8c:	eafffc84 	b	dea4 <_vfprintf_r+0xf3c>
    ec90:	e2822001 	add	r2, r2, #1
    ec94:	e59d1030 	ldr	r1, [sp, #48]	; 0x30
    ec98:	e3520007 	cmp	r2, #7
    ec9c:	e0833004 	add	r3, r3, r4
    eca0:	e8880012 	stm	r8, {r1, r4}
    eca4:	e58d2078 	str	r2, [sp, #120]	; 0x78
    eca8:	e58d307c 	str	r3, [sp, #124]	; 0x7c
    ecac:	d2888008 	addle	r8, r8, #8
    ecb0:	da000008 	ble	ecd8 <_vfprintf_r+0x1d70>
    ecb4:	e28d2074 	add	r2, sp, #116	; 0x74
    ecb8:	e1a0100a 	mov	r1, sl
    ecbc:	e59d0018 	ldr	r0, [sp, #24]
    ecc0:	eb000df6 	bl	124a0 <__sprint_r>
    ecc4:	e3500000 	cmp	r0, #0
    ecc8:	1afff981 	bne	d2d4 <_vfprintf_r+0x36c>
    eccc:	e28d2078 	add	r2, sp, #120	; 0x78
    ecd0:	e892000c 	ldm	r2, {r2, r3}
    ecd4:	e28d80a8 	add	r8, sp, #168	; 0xa8
    ecd8:	e2822001 	add	r2, r2, #1
    ecdc:	e59d103c 	ldr	r1, [sp, #60]	; 0x3c
    ece0:	e3520007 	cmp	r2, #7
    ece4:	e58d2078 	str	r2, [sp, #120]	; 0x78
    ece8:	e59d202c 	ldr	r2, [sp, #44]	; 0x2c
    ecec:	e0813003 	add	r3, r1, r3
    ecf0:	e58d307c 	str	r3, [sp, #124]	; 0x7c
    ecf4:	e5882000 	str	r2, [r8]
    ecf8:	e5881004 	str	r1, [r8, #4]
    ecfc:	dafffc02 	ble	dd0c <_vfprintf_r+0xda4>
    ed00:	eafffd24 	b	e198 <_vfprintf_r+0x1230>
    ed04:	e59d002c 	ldr	r0, [sp, #44]	; 0x2c
    ed08:	e58d7014 	str	r7, [sp, #20]
    ed0c:	ebfff87d 	bl	cf08 <strlen>
    ed10:	e1a03000 	mov	r3, r0
    ed14:	eafffb58 	b	da7c <_vfprintf_r+0xb14>
    ed18:	e3a0202d 	mov	r2, #45	; 0x2d
    ed1c:	e5cd2057 	strb	r2, [sp, #87]	; 0x57
    ed20:	e1a07002 	mov	r7, r2
    ed24:	e3a02000 	mov	r2, #0
    ed28:	e59d5030 	ldr	r5, [sp, #48]	; 0x30
    ed2c:	e58d2014 	str	r2, [sp, #20]
    ed30:	eafff9d0 	b	d478 <_vfprintf_r+0x510>
    ed34:	e3560065 	cmp	r6, #101	; 0x65
    ed38:	da000059 	ble	eea4 <_vfprintf_r+0x1f3c>
    ed3c:	e3560066 	cmp	r6, #102	; 0x66
    ed40:	e58d3038 	str	r3, [sp, #56]	; 0x38
    ed44:	1afffec2 	bne	e854 <_vfprintf_r+0x18ec>
    ed48:	e3530000 	cmp	r3, #0
    ed4c:	da0000e6 	ble	f0ec <_vfprintf_r+0x2184>
    ed50:	e59d2014 	ldr	r2, [sp, #20]
    ed54:	e3520000 	cmp	r2, #0
    ed58:	1a0000cd 	bne	f094 <_vfprintf_r+0x212c>
    ed5c:	e3150001 	tst	r5, #1
    ed60:	1a0000cb 	bne	f094 <_vfprintf_r+0x212c>
    ed64:	e1a02003 	mov	r2, r3
    ed68:	e1c33fc3 	bic	r3, r3, r3, asr #31
    ed6c:	e58d2024 	str	r2, [sp, #36]	; 0x24
    ed70:	eafffec5 	b	e88c <_vfprintf_r+0x1924>
    ed74:	e59f3404 	ldr	r3, [pc, #1028]	; f180 <_vfprintf_r+0x2218>
    ed78:	e59d107c 	ldr	r1, [sp, #124]	; 0x7c
    ed7c:	e59d2078 	ldr	r2, [sp, #120]	; 0x78
    ed80:	e58d3040 	str	r3, [sp, #64]	; 0x40
    ed84:	eafff9ef 	b	d548 <_vfprintf_r+0x5e0>
    ed88:	e28d2074 	add	r2, sp, #116	; 0x74
    ed8c:	e1a0100a 	mov	r1, sl
    ed90:	e59d0018 	ldr	r0, [sp, #24]
    ed94:	eb000dc1 	bl	124a0 <__sprint_r>
    ed98:	e3500000 	cmp	r0, #0
    ed9c:	1afff94c 	bne	d2d4 <_vfprintf_r+0x36c>
    eda0:	e28d80a8 	add	r8, sp, #168	; 0xa8
    eda4:	e59d307c 	ldr	r3, [sp, #124]	; 0x7c
    eda8:	eafffd17 	b	e20c <_vfprintf_r+0x12a4>
    edac:	e28d2074 	add	r2, sp, #116	; 0x74
    edb0:	e1a0100a 	mov	r1, sl
    edb4:	e59d0018 	ldr	r0, [sp, #24]
    edb8:	eb000db8 	bl	124a0 <__sprint_r>
    edbc:	e3500000 	cmp	r0, #0
    edc0:	1afff943 	bne	d2d4 <_vfprintf_r+0x36c>
    edc4:	e59d205c 	ldr	r2, [sp, #92]	; 0x5c
    edc8:	e59d103c 	ldr	r1, [sp, #60]	; 0x3c
    edcc:	e59d307c 	ldr	r3, [sp, #124]	; 0x7c
    edd0:	e0622001 	rsb	r2, r2, r1
    edd4:	e28d80a8 	add	r8, sp, #168	; 0xa8
    edd8:	eafffda9 	b	e484 <_vfprintf_r+0x151c>
    eddc:	e59f139c 	ldr	r1, [pc, #924]	; f180 <_vfprintf_r+0x2218>
    ede0:	e59d2078 	ldr	r2, [sp, #120]	; 0x78
    ede4:	e58d1040 	str	r1, [sp, #64]	; 0x40
    ede8:	eafffbef 	b	ddac <_vfprintf_r+0xe44>
    edec:	e3530006 	cmp	r3, #6
    edf0:	23a03006 	movcs	r3, #6
    edf4:	e58d3024 	str	r3, [sp, #36]	; 0x24
    edf8:	e1c33fc3 	bic	r3, r3, r3, asr #31
    edfc:	e58d3008 	str	r3, [sp, #8]
    ee00:	e59f337c 	ldr	r3, [pc, #892]	; f184 <_vfprintf_r+0x221c>
    ee04:	e58d4028 	str	r4, [sp, #40]	; 0x28
    ee08:	e58d302c 	str	r3, [sp, #44]	; 0x2c
    ee0c:	eafffac4 	b	d924 <_vfprintf_r+0x9bc>
    ee10:	e3a03047 	mov	r3, #71	; 0x47
    ee14:	e58d3008 	str	r3, [sp, #8]
    ee18:	e3a03001 	mov	r3, #1
    ee1c:	e58d3014 	str	r3, [sp, #20]
    ee20:	e59d3008 	ldr	r3, [sp, #8]
    ee24:	e3530046 	cmp	r3, #70	; 0x46
    ee28:	eeb1ab48 	vneg.f64	d10, d8
    ee2c:	1a0000cc 	bne	f164 <_vfprintf_r+0x21fc>
    ee30:	e28d206c 	add	r2, sp, #108	; 0x6c
    ee34:	e28d3060 	add	r3, sp, #96	; 0x60
    ee38:	e58d2004 	str	r2, [sp, #4]
    ee3c:	e58d3000 	str	r3, [sp]
    ee40:	e59d2014 	ldr	r2, [sp, #20]
    ee44:	e28d305c 	add	r3, sp, #92	; 0x5c
    ee48:	e3a01003 	mov	r1, #3
    ee4c:	eeb00b4a 	vmov.f64	d0, d10
    ee50:	e59d0018 	ldr	r0, [sp, #24]
    ee54:	eb0001f1 	bl	f620 <_dtoa_r>
    ee58:	e3a0702d 	mov	r7, #45	; 0x2d
    ee5c:	e58d002c 	str	r0, [sp, #44]	; 0x2c
    ee60:	eeb5ab40 	vcmp.f64	d10, #0.0
    ee64:	eef1fa10 	vmrs	APSR_nzcv, fpscr
    ee68:	13a03001 	movne	r3, #1
    ee6c:	03a03000 	moveq	r3, #0
    ee70:	e59d202c 	ldr	r2, [sp, #44]	; 0x2c
    ee74:	e5d22000 	ldrb	r2, [r2]
    ee78:	e3520030 	cmp	r2, #48	; 0x30
    ee7c:	13a03000 	movne	r3, #0
    ee80:	02033001 	andeq	r3, r3, #1
    ee84:	e3530000 	cmp	r3, #0
    ee88:	0a00005e 	beq	f008 <_vfprintf_r+0x20a0>
    ee8c:	e59d3014 	ldr	r3, [sp, #20]
    ee90:	e2633001 	rsb	r3, r3, #1
    ee94:	e58d305c 	str	r3, [sp, #92]	; 0x5c
    ee98:	e59d2014 	ldr	r2, [sp, #20]
    ee9c:	e0834002 	add	r4, r3, r2
    eea0:	eafffe4a 	b	e7d0 <_vfprintf_r+0x1868>
    eea4:	e2433001 	sub	r3, r3, #1
    eea8:	e3530000 	cmp	r3, #0
    eeac:	b3a0202d 	movlt	r2, #45	; 0x2d
    eeb0:	a3a0202b 	movge	r2, #43	; 0x2b
    eeb4:	e58d305c 	str	r3, [sp, #92]	; 0x5c
    eeb8:	b2633000 	rsblt	r3, r3, #0
    eebc:	e3530009 	cmp	r3, #9
    eec0:	e5cd6064 	strb	r6, [sp, #100]	; 0x64
    eec4:	e5cd2065 	strb	r2, [sp, #101]	; 0x65
    eec8:	da00005b 	ble	f03c <_vfprintf_r+0x20d4>
    eecc:	e28dc073 	add	ip, sp, #115	; 0x73
    eed0:	e1a0000c 	mov	r0, ip
    eed4:	e59f12ac 	ldr	r1, [pc, #684]	; f188 <_vfprintf_r+0x2220>
    eed8:	e0c12193 	smull	r2, r1, r3, r1
    eedc:	e1a02fc3 	asr	r2, r3, #31
    eee0:	e0621141 	rsb	r1, r2, r1, asr #2
    eee4:	e0812101 	add	r2, r1, r1, lsl #2
    eee8:	e0432082 	sub	r2, r3, r2, lsl #1
    eeec:	e2822030 	add	r2, r2, #48	; 0x30
    eef0:	e3510009 	cmp	r1, #9
    eef4:	e1a03001 	mov	r3, r1
    eef8:	e5602001 	strb	r2, [r0, #-1]!
    eefc:	cafffff4 	bgt	eed4 <_vfprintf_r+0x1f6c>
    ef00:	e1a01000 	mov	r1, r0
    ef04:	e2833030 	add	r3, r3, #48	; 0x30
    ef08:	e20320ff 	and	r2, r3, #255	; 0xff
    ef0c:	e5612001 	strb	r2, [r1, #-1]!
    ef10:	e15c0001 	cmp	ip, r1
    ef14:	9a000094 	bls	f16c <_vfprintf_r+0x2204>
    ef18:	e28d1066 	add	r1, sp, #102	; 0x66
    ef1c:	e1a03000 	mov	r3, r0
    ef20:	ea000000 	b	ef28 <_vfprintf_r+0x1fc0>
    ef24:	e4d32001 	ldrb	r2, [r3], #1
    ef28:	e153000c 	cmp	r3, ip
    ef2c:	e4c12001 	strb	r2, [r1], #1
    ef30:	1afffffb 	bne	ef24 <_vfprintf_r+0x1fbc>
    ef34:	e2833001 	add	r3, r3, #1
    ef38:	e0600003 	rsb	r0, r0, r3
    ef3c:	e28d3066 	add	r3, sp, #102	; 0x66
    ef40:	e0830000 	add	r0, r3, r0
    ef44:	e59d203c 	ldr	r2, [sp, #60]	; 0x3c
    ef48:	e28d3064 	add	r3, sp, #100	; 0x64
    ef4c:	e0633000 	rsb	r3, r3, r0
    ef50:	e58d304c 	str	r3, [sp, #76]	; 0x4c
    ef54:	e3520001 	cmp	r2, #1
    ef58:	e0823003 	add	r3, r2, r3
    ef5c:	e58d3024 	str	r3, [sp, #36]	; 0x24
    ef60:	da00006f 	ble	f124 <_vfprintf_r+0x21bc>
    ef64:	e59d3024 	ldr	r3, [sp, #36]	; 0x24
    ef68:	e59d2044 	ldr	r2, [sp, #68]	; 0x44
    ef6c:	e0833002 	add	r3, r3, r2
    ef70:	e3a02000 	mov	r2, #0
    ef74:	e58d3024 	str	r3, [sp, #36]	; 0x24
    ef78:	e58d2038 	str	r2, [sp, #56]	; 0x38
    ef7c:	e1c33fc3 	bic	r3, r3, r3, asr #31
    ef80:	eafffe41 	b	e88c <_vfprintf_r+0x1924>
    ef84:	e3a0302d 	mov	r3, #45	; 0x2d
    ef88:	e1a07003 	mov	r7, r3
    ef8c:	e5cd3057 	strb	r3, [sp, #87]	; 0x57
    ef90:	eafff98c 	b	d5c8 <_vfprintf_r+0x660>
    ef94:	e58d4028 	str	r4, [sp, #40]	; 0x28
    ef98:	eafffad8 	b	db00 <_vfprintf_r+0xb98>
    ef9c:	e59f11d0 	ldr	r1, [pc, #464]	; f174 <_vfprintf_r+0x220c>
    efa0:	e59d2078 	ldr	r2, [sp, #120]	; 0x78
    efa4:	e58d1030 	str	r1, [sp, #48]	; 0x30
    efa8:	eafffc08 	b	dfd0 <_vfprintf_r+0x1068>
    efac:	e59d3038 	ldr	r3, [sp, #56]	; 0x38
    efb0:	e59d2044 	ldr	r2, [sp, #68]	; 0x44
    efb4:	e3530000 	cmp	r3, #0
    efb8:	e59d303c 	ldr	r3, [sp, #60]	; 0x3c
    efbc:	e0833002 	add	r3, r3, r2
    efc0:	e58d3024 	str	r3, [sp, #36]	; 0x24
    efc4:	d59d3038 	ldrle	r3, [sp, #56]	; 0x38
    efc8:	d59d2024 	ldrle	r2, [sp, #36]	; 0x24
    efcc:	d2633001 	rsble	r3, r3, #1
    efd0:	d0823003 	addle	r3, r2, r3
    efd4:	d58d3024 	strle	r3, [sp, #36]	; 0x24
    efd8:	e3a06067 	mov	r6, #103	; 0x67
    efdc:	e1c33fc3 	bic	r3, r3, r3, asr #31
    efe0:	eafffe29 	b	e88c <_vfprintf_r+0x1924>
    efe4:	e59d3014 	ldr	r3, [sp, #20]
    efe8:	e1c32fc3 	bic	r2, r3, r3, asr #31
    efec:	e58d2008 	str	r2, [sp, #8]
    eff0:	e58d3024 	str	r3, [sp, #36]	; 0x24
    eff4:	e58d0014 	str	r0, [sp, #20]
    eff8:	e58d4028 	str	r4, [sp, #40]	; 0x28
    effc:	e58d0038 	str	r0, [sp, #56]	; 0x38
    f000:	e5dd7057 	ldrb	r7, [sp, #87]	; 0x57
    f004:	eafff918 	b	d46c <_vfprintf_r+0x504>
    f008:	e59d305c 	ldr	r3, [sp, #92]	; 0x5c
    f00c:	eaffffa1 	b	ee98 <_vfprintf_r+0x1f30>
    f010:	e28d2074 	add	r2, sp, #116	; 0x74
    f014:	e1a0100a 	mov	r1, sl
    f018:	e59d0018 	ldr	r0, [sp, #24]
    f01c:	eb000d1f 	bl	124a0 <__sprint_r>
    f020:	e3500000 	cmp	r0, #0
    f024:	1afff8aa 	bne	d2d4 <_vfprintf_r+0x36c>
    f028:	e28d2078 	add	r2, sp, #120	; 0x78
    f02c:	e28d80a8 	add	r8, sp, #168	; 0xa8
    f030:	e59d405c 	ldr	r4, [sp, #92]	; 0x5c
    f034:	e892000c 	ldm	r2, {r2, r3}
    f038:	eafffe8f 	b	ea7c <_vfprintf_r+0x1b14>
    f03c:	e3a02030 	mov	r2, #48	; 0x30
    f040:	e0833002 	add	r3, r3, r2
    f044:	e5cd3067 	strb	r3, [sp, #103]	; 0x67
    f048:	e5cd2066 	strb	r2, [sp, #102]	; 0x66
    f04c:	e28d0068 	add	r0, sp, #104	; 0x68
    f050:	eaffffbb 	b	ef44 <_vfprintf_r+0x1fdc>
    f054:	e3a03003 	mov	r3, #3
    f058:	e1a01003 	mov	r1, r3
    f05c:	e58d3008 	str	r3, [sp, #8]
    f060:	e3a03000 	mov	r3, #0
    f064:	e1a00003 	mov	r0, r3
    f068:	e58d3014 	str	r3, [sp, #20]
    f06c:	e59f3118 	ldr	r3, [pc, #280]	; f18c <_vfprintf_r+0x2224>
    f070:	e3560047 	cmp	r6, #71	; 0x47
    f074:	e59f2114 	ldr	r2, [pc, #276]	; f190 <_vfprintf_r+0x2228>
    f078:	d1a02003 	movle	r2, r3
    f07c:	e3c55080 	bic	r5, r5, #128	; 0x80
    f080:	e58d1024 	str	r1, [sp, #36]	; 0x24
    f084:	e58d0038 	str	r0, [sp, #56]	; 0x38
    f088:	e58d202c 	str	r2, [sp, #44]	; 0x2c
    f08c:	e5dd7057 	ldrb	r7, [sp, #87]	; 0x57
    f090:	eafff8f5 	b	d46c <_vfprintf_r+0x504>
    f094:	e59d2044 	ldr	r2, [sp, #68]	; 0x44
    f098:	e59d3038 	ldr	r3, [sp, #56]	; 0x38
    f09c:	e0833002 	add	r3, r3, r2
    f0a0:	e59d2014 	ldr	r2, [sp, #20]
    f0a4:	e0833002 	add	r3, r3, r2
    f0a8:	e58d3024 	str	r3, [sp, #36]	; 0x24
    f0ac:	e1c33fc3 	bic	r3, r3, r3, asr #31
    f0b0:	eafffdf5 	b	e88c <_vfprintf_r+0x1924>
    f0b4:	e28d206c 	add	r2, sp, #108	; 0x6c
    f0b8:	e28d3060 	add	r3, sp, #96	; 0x60
    f0bc:	e58d2004 	str	r2, [sp, #4]
    f0c0:	e58d3000 	str	r3, [sp]
    f0c4:	e59d2014 	ldr	r2, [sp, #20]
    f0c8:	e28d305c 	add	r3, sp, #92	; 0x5c
    f0cc:	e3a01003 	mov	r1, #3
    f0d0:	eeb00b48 	vmov.f64	d0, d8
    f0d4:	e59d0018 	ldr	r0, [sp, #24]
    f0d8:	eb000150 	bl	f620 <_dtoa_r>
    f0dc:	eeb0ab48 	vmov.f64	d10, d8
    f0e0:	e58d002c 	str	r0, [sp, #44]	; 0x2c
    f0e4:	e3a07000 	mov	r7, #0
    f0e8:	eaffff5c 	b	ee60 <_vfprintf_r+0x1ef8>
    f0ec:	e59d3014 	ldr	r3, [sp, #20]
    f0f0:	e3530000 	cmp	r3, #0
    f0f4:	1a000003 	bne	f108 <_vfprintf_r+0x21a0>
    f0f8:	e3150001 	tst	r5, #1
    f0fc:	03a03001 	moveq	r3, #1
    f100:	058d3024 	streq	r3, [sp, #36]	; 0x24
    f104:	0afffde0 	beq	e88c <_vfprintf_r+0x1924>
    f108:	e59d3044 	ldr	r3, [sp, #68]	; 0x44
    f10c:	e59d2014 	ldr	r2, [sp, #20]
    f110:	e2833001 	add	r3, r3, #1
    f114:	e0833002 	add	r3, r3, r2
    f118:	e58d3024 	str	r3, [sp, #36]	; 0x24
    f11c:	e1c33fc3 	bic	r3, r3, r3, asr #31
    f120:	eafffdd9 	b	e88c <_vfprintf_r+0x1924>
    f124:	e2153001 	ands	r3, r5, #1
    f128:	1affff8d 	bne	ef64 <_vfprintf_r+0x1ffc>
    f12c:	e58d3038 	str	r3, [sp, #56]	; 0x38
    f130:	e59d3024 	ldr	r3, [sp, #36]	; 0x24
    f134:	e1c33fc3 	bic	r3, r3, r3, asr #31
    f138:	eafffdd3 	b	e88c <_vfprintf_r+0x1924>
    f13c:	e59d3028 	ldr	r3, [sp, #40]	; 0x28
    f140:	e593c000 	ldr	ip, [r3]
    f144:	e58dc014 	str	ip, [sp, #20]
    f148:	e35c0000 	cmp	ip, #0
    f14c:	e283c004 	add	ip, r3, #4
    f150:	e58dc028 	str	ip, [sp, #40]	; 0x28
    f154:	e5db3001 	ldrb	r3, [fp, #1]
    f158:	e1a0b001 	mov	fp, r1
    f15c:	aafff7da 	bge	d0cc <_vfprintf_r+0x164>
    f160:	eafff7d7 	b	d0c4 <_vfprintf_r+0x15c>
    f164:	e3a0702d 	mov	r7, #45	; 0x2d
    f168:	eafffd88 	b	e790 <_vfprintf_r+0x1828>
    f16c:	e28d0066 	add	r0, sp, #102	; 0x66
    f170:	eaffff73 	b	ef44 <_vfprintf_r+0x1fdc>
    f174:	000166e4 	andeq	r6, r1, r4, ror #13
    f178:	000166ac 	andeq	r6, r1, ip, lsr #13
    f17c:	00016690 	muleq	r1, r0, r6
    f180:	000166f4 	strdeq	r6, [r1], -r4
    f184:	000166a4 	andeq	r6, r1, r4, lsr #13
    f188:	66666667 	strbtvs	r6, [r6], -r7, ror #12
    f18c:	00016674 	andeq	r6, r1, r4, ror r6
    f190:	00016678 	andeq	r6, r1, r8, ror r6

0000f194 <vfprintf>:
    f194:	e59fc010 	ldr	ip, [pc, #16]	; f1ac <vfprintf+0x18>
    f198:	e1a03002 	mov	r3, r2
    f19c:	e1a02001 	mov	r2, r1
    f1a0:	e1a01000 	mov	r1, r0
    f1a4:	e59c0000 	ldr	r0, [ip]
    f1a8:	eafff76e 	b	cf68 <_vfprintf_r>
    f1ac:	00016fb8 			; <UNDEFINED> instruction: 0x00016fb8

0000f1b0 <__sbprintf>:
    f1b0:	e92d40f0 	push	{r4, r5, r6, r7, lr}
    f1b4:	e1a04001 	mov	r4, r1
    f1b8:	e3a0cb01 	mov	ip, #1024	; 0x400
    f1bc:	e3a0e000 	mov	lr, #0
    f1c0:	e5946064 	ldr	r6, [r4, #100]	; 0x64
    f1c4:	e24dde46 	sub	sp, sp, #1120	; 0x460
    f1c8:	e24dd00c 	sub	sp, sp, #12
    f1cc:	e1d110bc 	ldrh	r1, [r1, #12]
    f1d0:	e58d6064 	str	r6, [sp, #100]	; 0x64
    f1d4:	e594601c 	ldr	r6, [r4, #28]
    f1d8:	e1d470be 	ldrh	r7, [r4, #14]
    f1dc:	e3c11002 	bic	r1, r1, #2
    f1e0:	e58d601c 	str	r6, [sp, #28]
    f1e4:	e5946024 	ldr	r6, [r4, #36]	; 0x24
    f1e8:	e1cd10bc 	strh	r1, [sp, #12]
    f1ec:	e58dc008 	str	ip, [sp, #8]
    f1f0:	e58dc014 	str	ip, [sp, #20]
    f1f4:	e1a0100d 	mov	r1, sp
    f1f8:	e28dc068 	add	ip, sp, #104	; 0x68
    f1fc:	e1cd70be 	strh	r7, [sp, #14]
    f200:	e58d6024 	str	r6, [sp, #36]	; 0x24
    f204:	e58de018 	str	lr, [sp, #24]
    f208:	e58dc000 	str	ip, [sp]
    f20c:	e58dc010 	str	ip, [sp, #16]
    f210:	e1a07000 	mov	r7, r0
    f214:	ebfff753 	bl	cf68 <_vfprintf_r>
    f218:	e2506000 	subs	r6, r0, #0
    f21c:	ba000004 	blt	f234 <__sbprintf+0x84>
    f220:	e1a0100d 	mov	r1, sp
    f224:	e1a00007 	mov	r0, r7
    f228:	ebffedc3 	bl	a93c <_fflush_r>
    f22c:	e3500000 	cmp	r0, #0
    f230:	13e06000 	mvnne	r6, #0
    f234:	e1a00006 	mov	r0, r6
    f238:	e1dd30bc 	ldrh	r3, [sp, #12]
    f23c:	e3130040 	tst	r3, #64	; 0x40
    f240:	11d430bc 	ldrhne	r3, [r4, #12]
    f244:	13833040 	orrne	r3, r3, #64	; 0x40
    f248:	11c430bc 	strhne	r3, [r4, #12]
    f24c:	e28dde46 	add	sp, sp, #1120	; 0x460
    f250:	e28dd00c 	add	sp, sp, #12
    f254:	e8bd40f0 	pop	{r4, r5, r6, r7, lr}
    f258:	e12fff1e 	bx	lr

0000f25c <_write_r>:
    f25c:	e92d4070 	push	{r4, r5, r6, lr}
    f260:	e1a0e001 	mov	lr, r1
    f264:	e3a0c000 	mov	ip, #0
    f268:	e59f4030 	ldr	r4, [pc, #48]	; f2a0 <_write_r+0x44>
    f26c:	e1a01002 	mov	r1, r2
    f270:	e1a05000 	mov	r5, r0
    f274:	e1a02003 	mov	r2, r3
    f278:	e1a0000e 	mov	r0, lr
    f27c:	e584c000 	str	ip, [r4]
    f280:	ebffe78c 	bl	90b8 <_write>
    f284:	e3700001 	cmn	r0, #1
    f288:	1a000002 	bne	f298 <_write_r+0x3c>
    f28c:	e5943000 	ldr	r3, [r4]
    f290:	e3530000 	cmp	r3, #0
    f294:	15853000 	strne	r3, [r5]
    f298:	e8bd4070 	pop	{r4, r5, r6, lr}
    f29c:	e12fff1e 	bx	lr
    f2a0:	0001f834 	andeq	pc, r1, r4, lsr r8	; <UNPREDICTABLE>

0000f2a4 <__swsetup_r>:
    f2a4:	e59f3158 	ldr	r3, [pc, #344]	; f404 <__swsetup_r+0x160>
    f2a8:	e5933000 	ldr	r3, [r3]
    f2ac:	e3530000 	cmp	r3, #0
    f2b0:	e92d4070 	push	{r4, r5, r6, lr}
    f2b4:	e1a05000 	mov	r5, r0
    f2b8:	e1a04001 	mov	r4, r1
    f2bc:	0a000002 	beq	f2cc <__swsetup_r+0x28>
    f2c0:	e5932038 	ldr	r2, [r3, #56]	; 0x38
    f2c4:	e3520000 	cmp	r2, #0
    f2c8:	0a000034 	beq	f3a0 <__swsetup_r+0xfc>
    f2cc:	e1d420fc 	ldrsh	r2, [r4, #12]
    f2d0:	e1a03802 	lsl	r3, r2, #16
    f2d4:	e3130702 	tst	r3, #524288	; 0x80000
    f2d8:	e1a03823 	lsr	r3, r3, #16
    f2dc:	0a00000c 	beq	f314 <__swsetup_r+0x70>
    f2e0:	e5940010 	ldr	r0, [r4, #16]
    f2e4:	e3500000 	cmp	r0, #0
    f2e8:	0a000014 	beq	f340 <__swsetup_r+0x9c>
    f2ec:	e2132001 	ands	r2, r3, #1
    f2f0:	1a00001b 	bne	f364 <__swsetup_r+0xc0>
    f2f4:	e3130002 	tst	r3, #2
    f2f8:	05942014 	ldreq	r2, [r4, #20]
    f2fc:	e3500000 	cmp	r0, #0
    f300:	e5842008 	str	r2, [r4, #8]
    f304:	13a00000 	movne	r0, #0
    f308:	0a00001d 	beq	f384 <__swsetup_r+0xe0>
    f30c:	e8bd4070 	pop	{r4, r5, r6, lr}
    f310:	e12fff1e 	bx	lr
    f314:	e3130010 	tst	r3, #16
    f318:	0a000033 	beq	f3ec <__swsetup_r+0x148>
    f31c:	e3130004 	tst	r3, #4
    f320:	1a000021 	bne	f3ac <__swsetup_r+0x108>
    f324:	e5940010 	ldr	r0, [r4, #16]
    f328:	e3822008 	orr	r2, r2, #8
    f32c:	e1c420bc 	strh	r2, [r4, #12]
    f330:	e3500000 	cmp	r0, #0
    f334:	e1a02802 	lsl	r2, r2, #16
    f338:	e1a03822 	lsr	r3, r2, #16
    f33c:	1affffea 	bne	f2ec <__swsetup_r+0x48>
    f340:	e2032d0a 	and	r2, r3, #640	; 0x280
    f344:	e3520c02 	cmp	r2, #512	; 0x200
    f348:	0affffe7 	beq	f2ec <__swsetup_r+0x48>
    f34c:	e1a00005 	mov	r0, r5
    f350:	e1a01004 	mov	r1, r4
    f354:	ebfff1b0 	bl	ba1c <__smakebuf_r>
    f358:	e1d430bc 	ldrh	r3, [r4, #12]
    f35c:	e5940010 	ldr	r0, [r4, #16]
    f360:	eaffffe1 	b	f2ec <__swsetup_r+0x48>
    f364:	e3a02000 	mov	r2, #0
    f368:	e5943014 	ldr	r3, [r4, #20]
    f36c:	e3500000 	cmp	r0, #0
    f370:	e2633000 	rsb	r3, r3, #0
    f374:	e5843018 	str	r3, [r4, #24]
    f378:	e5842008 	str	r2, [r4, #8]
    f37c:	13a00000 	movne	r0, #0
    f380:	1affffe1 	bne	f30c <__swsetup_r+0x68>
    f384:	e1d430fc 	ldrsh	r3, [r4, #12]
    f388:	e3130080 	tst	r3, #128	; 0x80
    f38c:	13833040 	orrne	r3, r3, #64	; 0x40
    f390:	11c430bc 	strhne	r3, [r4, #12]
    f394:	13e00000 	mvnne	r0, #0
    f398:	e8bd4070 	pop	{r4, r5, r6, lr}
    f39c:	e12fff1e 	bx	lr
    f3a0:	e1a00003 	mov	r0, r3
    f3a4:	ebffee92 	bl	adf4 <__sinit>
    f3a8:	eaffffc7 	b	f2cc <__swsetup_r+0x28>
    f3ac:	e5941030 	ldr	r1, [r4, #48]	; 0x30
    f3b0:	e3510000 	cmp	r1, #0
    f3b4:	0a000007 	beq	f3d8 <__swsetup_r+0x134>
    f3b8:	e2843040 	add	r3, r4, #64	; 0x40
    f3bc:	e1510003 	cmp	r1, r3
    f3c0:	0a000002 	beq	f3d0 <__swsetup_r+0x12c>
    f3c4:	e1a00005 	mov	r0, r5
    f3c8:	ebffef27 	bl	b06c <_free_r>
    f3cc:	e1d420fc 	ldrsh	r2, [r4, #12]
    f3d0:	e3a03000 	mov	r3, #0
    f3d4:	e5843030 	str	r3, [r4, #48]	; 0x30
    f3d8:	e3a03000 	mov	r3, #0
    f3dc:	e5940010 	ldr	r0, [r4, #16]
    f3e0:	e3c22024 	bic	r2, r2, #36	; 0x24
    f3e4:	e8840009 	stm	r4, {r0, r3}
    f3e8:	eaffffce 	b	f328 <__swsetup_r+0x84>
    f3ec:	e3a03009 	mov	r3, #9
    f3f0:	e3822040 	orr	r2, r2, #64	; 0x40
    f3f4:	e5853000 	str	r3, [r5]
    f3f8:	e3e00000 	mvn	r0, #0
    f3fc:	e1c420bc 	strh	r2, [r4, #12]
    f400:	eaffffc1 	b	f30c <__swsetup_r+0x68>
    f404:	00016fb8 			; <UNDEFINED> instruction: 0x00016fb8

0000f408 <_close_r>:
    f408:	e3a03000 	mov	r3, #0
    f40c:	e92d4070 	push	{r4, r5, r6, lr}
    f410:	e59f4028 	ldr	r4, [pc, #40]	; f440 <_close_r+0x38>
    f414:	e1a05000 	mov	r5, r0
    f418:	e1a00001 	mov	r0, r1
    f41c:	e5843000 	str	r3, [r4]
    f420:	ebffe733 	bl	90f4 <_close>
    f424:	e3700001 	cmn	r0, #1
    f428:	1a000002 	bne	f438 <_close_r+0x30>
    f42c:	e5943000 	ldr	r3, [r4]
    f430:	e3530000 	cmp	r3, #0
    f434:	15853000 	strne	r3, [r5]
    f438:	e8bd4070 	pop	{r4, r5, r6, lr}
    f43c:	e12fff1e 	bx	lr
    f440:	0001f834 	andeq	pc, r1, r4, lsr r8	; <UNPREDICTABLE>

0000f444 <quorem>:
    f444:	e92d4ff0 	push	{r4, r5, r6, r7, r8, r9, sl, fp, lr}
    f448:	e5903010 	ldr	r3, [r0, #16]
    f44c:	e5915010 	ldr	r5, [r1, #16]
    f450:	e1550003 	cmp	r5, r3
    f454:	e24dd00c 	sub	sp, sp, #12
    f458:	c3a00000 	movgt	r0, #0
    f45c:	ca00006b 	bgt	f610 <quorem+0x1cc>
    f460:	e2455001 	sub	r5, r5, #1
    f464:	e2814014 	add	r4, r1, #20
    f468:	e58d1000 	str	r1, [sp]
    f46c:	e7941105 	ldr	r1, [r4, r5, lsl #2]
    f470:	e2809014 	add	r9, r0, #20
    f474:	e1a07000 	mov	r7, r0
    f478:	e2811001 	add	r1, r1, #1
    f47c:	e7990105 	ldr	r0, [r9, r5, lsl #2]
    f480:	eb001af3 	bl	16054 <__aeabi_uidiv>
    f484:	e1a0a105 	lsl	sl, r5, #2
    f488:	e089300a 	add	r3, r9, sl
    f48c:	e2506000 	subs	r6, r0, #0
    f490:	e084800a 	add	r8, r4, sl
    f494:	e58d3004 	str	r3, [sp, #4]
    f498:	0a00002f 	beq	f55c <quorem+0x118>
    f49c:	e3a03000 	mov	r3, #0
    f4a0:	e1a0b004 	mov	fp, r4
    f4a4:	e1a0e009 	mov	lr, r9
    f4a8:	e1a02003 	mov	r2, r3
    f4ac:	e49b0004 	ldr	r0, [fp], #4
    f4b0:	e1a01800 	lsl	r1, r0, #16
    f4b4:	e1a01821 	lsr	r1, r1, #16
    f4b8:	e0213196 	mla	r1, r6, r1, r3
    f4bc:	e1a00820 	lsr	r0, r0, #16
    f4c0:	e1a03821 	lsr	r3, r1, #16
    f4c4:	e0233096 	mla	r3, r6, r0, r3
    f4c8:	e59e0000 	ldr	r0, [lr]
    f4cc:	e1a01801 	lsl	r1, r1, #16
    f4d0:	e0422821 	sub	r2, r2, r1, lsr #16
    f4d4:	e1a0c800 	lsl	ip, r0, #16
    f4d8:	e1a01803 	lsl	r1, r3, #16
    f4dc:	e082282c 	add	r2, r2, ip, lsr #16
    f4e0:	e1a01821 	lsr	r1, r1, #16
    f4e4:	e0611820 	rsb	r1, r1, r0, lsr #16
    f4e8:	e1a00802 	lsl	r0, r2, #16
    f4ec:	e0812842 	add	r2, r1, r2, asr #16
    f4f0:	e1a01820 	lsr	r1, r0, #16
    f4f4:	e1811802 	orr	r1, r1, r2, lsl #16
    f4f8:	e158000b 	cmp	r8, fp
    f4fc:	e48e1004 	str	r1, [lr], #4
    f500:	e1a02842 	asr	r2, r2, #16
    f504:	e1a03823 	lsr	r3, r3, #16
    f508:	2affffe7 	bcs	f4ac <quorem+0x68>
    f50c:	e799300a 	ldr	r3, [r9, sl]
    f510:	e3530000 	cmp	r3, #0
    f514:	1a000010 	bne	f55c <quorem+0x118>
    f518:	e59d2004 	ldr	r2, [sp, #4]
    f51c:	e2423004 	sub	r3, r2, #4
    f520:	e1590003 	cmp	r9, r3
    f524:	2a00000b 	bcs	f558 <quorem+0x114>
    f528:	e5123004 	ldr	r3, [r2, #-4]
    f52c:	e3530000 	cmp	r3, #0
    f530:	1a000008 	bne	f558 <quorem+0x114>
    f534:	e2423008 	sub	r3, r2, #8
    f538:	ea000003 	b	f54c <quorem+0x108>
    f53c:	e5932000 	ldr	r2, [r3]
    f540:	e3520000 	cmp	r2, #0
    f544:	e2433004 	sub	r3, r3, #4
    f548:	1a000002 	bne	f558 <quorem+0x114>
    f54c:	e1590003 	cmp	r9, r3
    f550:	e2455001 	sub	r5, r5, #1
    f554:	3afffff8 	bcc	f53c <quorem+0xf8>
    f558:	e5875010 	str	r5, [r7, #16]
    f55c:	e59d1000 	ldr	r1, [sp]
    f560:	e1a00007 	mov	r0, r7
    f564:	eb0008a4 	bl	117fc <__mcmp>
    f568:	e3500000 	cmp	r0, #0
    f56c:	ba000026 	blt	f60c <quorem+0x1c8>
    f570:	e1a0c009 	mov	ip, r9
    f574:	e3a03000 	mov	r3, #0
    f578:	e2866001 	add	r6, r6, #1
    f57c:	e4942004 	ldr	r2, [r4], #4
    f580:	e59c0000 	ldr	r0, [ip]
    f584:	e1a01802 	lsl	r1, r2, #16
    f588:	e0433821 	sub	r3, r3, r1, lsr #16
    f58c:	e1a01800 	lsl	r1, r0, #16
    f590:	e0831821 	add	r1, r3, r1, lsr #16
    f594:	e1a02822 	lsr	r2, r2, #16
    f598:	e0622820 	rsb	r2, r2, r0, lsr #16
    f59c:	e1a00801 	lsl	r0, r1, #16
    f5a0:	e0823841 	add	r3, r2, r1, asr #16
    f5a4:	e1a02820 	lsr	r2, r0, #16
    f5a8:	e1822803 	orr	r2, r2, r3, lsl #16
    f5ac:	e1580004 	cmp	r8, r4
    f5b0:	e48c2004 	str	r2, [ip], #4
    f5b4:	e1a03843 	asr	r3, r3, #16
    f5b8:	2affffef 	bcs	f57c <quorem+0x138>
    f5bc:	e7993105 	ldr	r3, [r9, r5, lsl #2]
    f5c0:	e3530000 	cmp	r3, #0
    f5c4:	e0893105 	add	r3, r9, r5, lsl #2
    f5c8:	1a00000f 	bne	f60c <quorem+0x1c8>
    f5cc:	e2432004 	sub	r2, r3, #4
    f5d0:	e1590002 	cmp	r9, r2
    f5d4:	2a00000b 	bcs	f608 <quorem+0x1c4>
    f5d8:	e5132004 	ldr	r2, [r3, #-4]
    f5dc:	e3520000 	cmp	r2, #0
    f5e0:	1a000008 	bne	f608 <quorem+0x1c4>
    f5e4:	e2433008 	sub	r3, r3, #8
    f5e8:	ea000003 	b	f5fc <quorem+0x1b8>
    f5ec:	e5932000 	ldr	r2, [r3]
    f5f0:	e3520000 	cmp	r2, #0
    f5f4:	e2433004 	sub	r3, r3, #4
    f5f8:	1a000002 	bne	f608 <quorem+0x1c4>
    f5fc:	e1590003 	cmp	r9, r3
    f600:	e2455001 	sub	r5, r5, #1
    f604:	3afffff8 	bcc	f5ec <quorem+0x1a8>
    f608:	e5875010 	str	r5, [r7, #16]
    f60c:	e1a00006 	mov	r0, r6
    f610:	e28dd00c 	add	sp, sp, #12
    f614:	e8bd4ff0 	pop	{r4, r5, r6, r7, r8, r9, sl, fp, lr}
    f618:	e12fff1e 	bx	lr
    f61c:	00000000 	andeq	r0, r0, r0

0000f620 <_dtoa_r>:
    f620:	e92d4ff0 	push	{r4, r5, r6, r7, r8, r9, sl, fp, lr}
    f624:	e590c040 	ldr	ip, [r0, #64]	; 0x40
    f628:	e24dd04c 	sub	sp, sp, #76	; 0x4c
    f62c:	e35c0000 	cmp	ip, #0
    f630:	e1a04000 	mov	r4, r0
    f634:	ec5bab10 	vmov	sl, fp, d0
    f638:	e58d1004 	str	r1, [sp, #4]
    f63c:	e1a06002 	mov	r6, r2
    f640:	e58d3010 	str	r3, [sp, #16]
    f644:	e59d5070 	ldr	r5, [sp, #112]	; 0x70
    f648:	0a000007 	beq	f66c <_dtoa_r+0x4c>
    f64c:	e3a03001 	mov	r3, #1
    f650:	e5902044 	ldr	r2, [r0, #68]	; 0x44
    f654:	e1a03213 	lsl	r3, r3, r2
    f658:	e98c000c 	stmib	ip, {r2, r3}
    f65c:	e1a0100c 	mov	r1, ip
    f660:	eb0006ae 	bl	11120 <_Bfree>
    f664:	e3a03000 	mov	r3, #0
    f668:	e5843040 	str	r3, [r4, #64]	; 0x40
    f66c:	e35b0000 	cmp	fp, #0
    f670:	b3a03001 	movlt	r3, #1
    f674:	a3a03000 	movge	r3, #0
    f678:	b5853000 	strlt	r3, [r5]
    f67c:	a5853000 	strge	r3, [r5]
    f680:	e59f33e0 	ldr	r3, [pc, #992]	; fa68 <_dtoa_r+0x448>
    f684:	e1a0700b 	mov	r7, fp
    f688:	e1a02003 	mov	r2, r3
    f68c:	b3cb7102 	biclt	r7, fp, #-2147483648	; 0x80000000
    f690:	e0033007 	and	r3, r3, r7
    f694:	b1a0b007 	movlt	fp, r7
    f698:	e1530002 	cmp	r3, r2
    f69c:	0a000012 	beq	f6ec <_dtoa_r+0xcc>
    f6a0:	ec4bab17 	vmov	d7, sl, fp
    f6a4:	eeb57b40 	vcmp.f64	d7, #0.0
    f6a8:	eef1fa10 	vmrs	APSR_nzcv, fpscr
    f6ac:	e58da008 	str	sl, [sp, #8]
    f6b0:	e58db00c 	str	fp, [sp, #12]
    f6b4:	1a00001f 	bne	f738 <_dtoa_r+0x118>
    f6b8:	e3a03001 	mov	r3, #1
    f6bc:	e59d2074 	ldr	r2, [sp, #116]	; 0x74
    f6c0:	e3520000 	cmp	r2, #0
    f6c4:	e59d2010 	ldr	r2, [sp, #16]
    f6c8:	e5823000 	str	r3, [r2]
    f6cc:	0a000089 	beq	f8f8 <_dtoa_r+0x2d8>
    f6d0:	e59f8394 	ldr	r8, [pc, #916]	; fa6c <_dtoa_r+0x44c>
    f6d4:	e59d3074 	ldr	r3, [sp, #116]	; 0x74
    f6d8:	e5838000 	str	r8, [r3]
    f6dc:	e2480001 	sub	r0, r8, #1
    f6e0:	e28dd04c 	add	sp, sp, #76	; 0x4c
    f6e4:	e8bd4ff0 	pop	{r4, r5, r6, r7, r8, r9, sl, fp, lr}
    f6e8:	e12fff1e 	bx	lr
    f6ec:	e59f337c 	ldr	r3, [pc, #892]	; fa70 <_dtoa_r+0x450>
    f6f0:	e59d2010 	ldr	r2, [sp, #16]
    f6f4:	e35a0000 	cmp	sl, #0
    f6f8:	e5823000 	str	r3, [r2]
    f6fc:	0a000069 	beq	f8a8 <_dtoa_r+0x288>
    f700:	e59f836c 	ldr	r8, [pc, #876]	; fa74 <_dtoa_r+0x454>
    f704:	e59d3074 	ldr	r3, [sp, #116]	; 0x74
    f708:	e3530000 	cmp	r3, #0
    f70c:	0a0002ce 	beq	1024c <_dtoa_r+0xc2c>
    f710:	e1a00008 	mov	r0, r8
    f714:	e5d83003 	ldrb	r3, [r8, #3]
    f718:	e59d2074 	ldr	r2, [sp, #116]	; 0x74
    f71c:	e3530000 	cmp	r3, #0
    f720:	12883008 	addne	r3, r8, #8
    f724:	02883003 	addeq	r3, r8, #3
    f728:	e5823000 	str	r3, [r2]
    f72c:	e28dd04c 	add	sp, sp, #76	; 0x4c
    f730:	e8bd4ff0 	pop	{r4, r5, r6, r7, r8, r9, sl, fp, lr}
    f734:	e12fff1e 	bx	lr
    f738:	e28d2040 	add	r2, sp, #64	; 0x40
    f73c:	e28d1044 	add	r1, sp, #68	; 0x44
    f740:	ed9d0b02 	vldr	d0, [sp, #8]
    f744:	e1a00004 	mov	r0, r4
    f748:	eb000905 	bl	11b64 <__d2b>
    f74c:	e1b09a27 	lsrs	r9, r7, #20
    f750:	e1a08000 	mov	r8, r0
    f754:	1a00005b 	bne	f8c8 <_dtoa_r+0x2a8>
    f758:	e28d1040 	add	r1, sp, #64	; 0x40
    f75c:	e8910202 	ldm	r1, {r1, r9}
    f760:	e0819009 	add	r9, r1, r9
    f764:	e2893e43 	add	r3, r9, #1072	; 0x430
    f768:	e2833002 	add	r3, r3, #2
    f76c:	e3530020 	cmp	r3, #32
    f770:	c2633040 	rsbgt	r3, r3, #64	; 0x40
    f774:	c2892e41 	addgt	r2, r9, #1040	; 0x410
    f778:	c1a07317 	lslgt	r7, r7, r3
    f77c:	c1a03002 	movgt	r3, r2
    f780:	d2633020 	rsble	r3, r3, #32
    f784:	c2833002 	addgt	r3, r3, #2
    f788:	c187333a 	orrgt	r3, r7, sl, lsr r3
    f78c:	d1a0331a 	lslle	r3, sl, r3
    f790:	ee073a90 	vmov	s15, r3
    f794:	eeb87b67 	vcvt.f64.u32	d7, s15
    f798:	e3a00001 	mov	r0, #1
    f79c:	ec532b17 	vmov	r2, r3, d7
    f7a0:	e58d0038 	str	r0, [sp, #56]	; 0x38
    f7a4:	e2499001 	sub	r9, r9, #1
    f7a8:	e243361f 	sub	r3, r3, #32505856	; 0x1f00000
    f7ac:	ec432b17 	vmov	d7, r2, r3
    f7b0:	ed9f6ba2 	vldr	d6, [pc, #648]	; fa40 <_dtoa_r+0x420>
    f7b4:	ed9f5ba3 	vldr	d5, [pc, #652]	; fa48 <_dtoa_r+0x428>
    f7b8:	ee376b46 	vsub.f64	d6, d7, d6
    f7bc:	ed9f7ba3 	vldr	d7, [pc, #652]	; fa50 <_dtoa_r+0x430>
    f7c0:	ee067b05 	vmla.f64	d7, d6, d5
    f7c4:	ee069a90 	vmov	s13, r9
    f7c8:	ed9f5ba2 	vldr	d5, [pc, #648]	; fa58 <_dtoa_r+0x438>
    f7cc:	eeb86be6 	vcvt.f64.s32	d6, s13
    f7d0:	ee067b05 	vmla.f64	d7, d6, d5
    f7d4:	eeb57bc0 	vcmpe.f64	d7, #0.0
    f7d8:	eefd6bc7 	vcvt.s32.f64	s13, d7
    f7dc:	eef1fa10 	vmrs	APSR_nzcv, fpscr
    f7e0:	ee167a90 	vmov	r7, s13
    f7e4:	4a000152 	bmi	fd34 <_dtoa_r+0x714>
    f7e8:	e3570016 	cmp	r7, #22
    f7ec:	83a03001 	movhi	r3, #1
    f7f0:	858d302c 	strhi	r3, [sp, #44]	; 0x2c
    f7f4:	8a000008 	bhi	f81c <_dtoa_r+0x1fc>
    f7f8:	e59f3280 	ldr	r3, [pc, #640]	; fa80 <_dtoa_r+0x460>
    f7fc:	e0833187 	add	r3, r3, r7, lsl #3
    f800:	ed937b00 	vldr	d7, [r3]
    f804:	ec4bab16 	vmov	d6, sl, fp
    f808:	eeb47bc6 	vcmpe.f64	d7, d6
    f80c:	e3a03000 	mov	r3, #0
    f810:	eef1fa10 	vmrs	APSR_nzcv, fpscr
    f814:	e58d302c 	str	r3, [sp, #44]	; 0x2c
    f818:	c2477001 	subgt	r7, r7, #1
    f81c:	e0699001 	rsb	r9, r9, r1
    f820:	e2599001 	subs	r9, r9, #1
    f824:	53a03000 	movpl	r3, #0
    f828:	42693000 	rsbmi	r3, r9, #0
    f82c:	458d3018 	strmi	r3, [sp, #24]
    f830:	558d3018 	strpl	r3, [sp, #24]
    f834:	43a09000 	movmi	r9, #0
    f838:	e3570000 	cmp	r7, #0
    f83c:	b3a03000 	movlt	r3, #0
    f840:	a3a03000 	movge	r3, #0
    f844:	b58d3030 	strlt	r3, [sp, #48]	; 0x30
    f848:	b59d3018 	ldrlt	r3, [sp, #24]
    f84c:	b0673003 	rsblt	r3, r7, r3
    f850:	b58d3018 	strlt	r3, [sp, #24]
    f854:	b2673000 	rsblt	r3, r7, #0
    f858:	e58d3014 	str	r3, [sp, #20]
    f85c:	e59d3004 	ldr	r3, [sp, #4]
    f860:	a0899007 	addge	r9, r9, r7
    f864:	a58d7030 	strge	r7, [sp, #48]	; 0x30
    f868:	e3530009 	cmp	r3, #9
    f86c:	8a000023 	bhi	f900 <_dtoa_r+0x2e0>
    f870:	e3530005 	cmp	r3, #5
    f874:	d3a05001 	movle	r5, #1
    f878:	c3a05000 	movgt	r5, #0
    f87c:	c2433004 	subgt	r3, r3, #4
    f880:	c58d3004 	strgt	r3, [sp, #4]
    f884:	e59d3004 	ldr	r3, [sp, #4]
    f888:	e2433002 	sub	r3, r3, #2
    f88c:	e3530003 	cmp	r3, #3
    f890:	979ff103 	ldrls	pc, [pc, r3, lsl #2]
    f894:	ea00012b 	b	fd48 <_dtoa_r+0x728>
    f898:	00010038 	andeq	r0, r1, r8, lsr r0
    f89c:	0000fe28 	andeq	pc, r0, r8, lsr #28
    f8a0:	00010064 	andeq	r0, r1, r4, rrx
    f8a4:	000102a8 	andeq	r0, r1, r8, lsr #5
    f8a8:	e3c774ff 	bic	r7, r7, #-16777216	; 0xff000000
    f8ac:	e59f31c0 	ldr	r3, [pc, #448]	; fa74 <_dtoa_r+0x454>
    f8b0:	e59f01c0 	ldr	r0, [pc, #448]	; fa78 <_dtoa_r+0x458>
    f8b4:	e3c7760f 	bic	r7, r7, #15728640	; 0xf00000
    f8b8:	e3570000 	cmp	r7, #0
    f8bc:	11a08003 	movne	r8, r3
    f8c0:	01a08000 	moveq	r8, r0
    f8c4:	eaffff8e 	b	f704 <_dtoa_r+0xe4>
    f8c8:	e3a00000 	mov	r0, #0
    f8cc:	e28d3008 	add	r3, sp, #8
    f8d0:	e893000c 	ldm	r3, {r2, r3}
    f8d4:	e3c314ff 	bic	r1, r3, #-16777216	; 0xff000000
    f8d8:	e3c1160f 	bic	r1, r1, #15728640	; 0xf00000
    f8dc:	e38115ff 	orr	r1, r1, #1069547520	; 0x3fc00000
    f8e0:	e2499fff 	sub	r9, r9, #1020	; 0x3fc
    f8e4:	e3813603 	orr	r3, r1, #3145728	; 0x300000
    f8e8:	e2499003 	sub	r9, r9, #3
    f8ec:	e59d1040 	ldr	r1, [sp, #64]	; 0x40
    f8f0:	e58d0038 	str	r0, [sp, #56]	; 0x38
    f8f4:	eaffffac 	b	f7ac <_dtoa_r+0x18c>
    f8f8:	e59f017c 	ldr	r0, [pc, #380]	; fa7c <_dtoa_r+0x45c>
    f8fc:	eaffff77 	b	f6e0 <_dtoa_r+0xc0>
    f900:	e3a01000 	mov	r1, #0
    f904:	e1a00004 	mov	r0, r4
    f908:	e5841044 	str	r1, [r4, #68]	; 0x44
    f90c:	e1a06001 	mov	r6, r1
    f910:	e58d1004 	str	r1, [sp, #4]
    f914:	eb0005dd 	bl	11090 <_Balloc>
    f918:	e3e03000 	mvn	r3, #0
    f91c:	e58d3034 	str	r3, [sp, #52]	; 0x34
    f920:	e58d3008 	str	r3, [sp, #8]
    f924:	e3a03001 	mov	r3, #1
    f928:	e1a05000 	mov	r5, r0
    f92c:	e5840040 	str	r0, [r4, #64]	; 0x40
    f930:	e58d3028 	str	r3, [sp, #40]	; 0x28
    f934:	e59d3044 	ldr	r3, [sp, #68]	; 0x44
    f938:	e1e02003 	mvn	r2, r3
    f93c:	e357000e 	cmp	r7, #14
    f940:	e1a02fa2 	lsr	r2, r2, #31
    f944:	c3a02000 	movgt	r2, #0
    f948:	e3520000 	cmp	r2, #0
    f94c:	0a00004d 	beq	fa88 <_dtoa_r+0x468>
    f950:	e59d1008 	ldr	r1, [sp, #8]
    f954:	e3510000 	cmp	r1, #0
    f958:	c3a02000 	movgt	r2, #0
    f95c:	d3a02001 	movle	r2, #1
    f960:	e59f3118 	ldr	r3, [pc, #280]	; fa80 <_dtoa_r+0x460>
    f964:	e0122fa6 	ands	r2, r2, r6, lsr #31
    f968:	e0833187 	add	r3, r3, r7, lsl #3
    f96c:	ed935b00 	vldr	d5, [r3]
    f970:	1a0001be 	bne	10070 <_dtoa_r+0xa50>
    f974:	ec4bab17 	vmov	d7, sl, fp
    f978:	ee876b05 	vdiv.f64	d6, d7, d5
    f97c:	eebd6bc6 	vcvt.s32.f64	s12, d6
    f980:	ee163a10 	vmov	r3, s12
    f984:	eeb84bc6 	vcvt.f64.s32	d4, s12
    f988:	e2833030 	add	r3, r3, #48	; 0x30
    f98c:	e3510001 	cmp	r1, #1
    f990:	e5c53000 	strb	r3, [r5]
    f994:	ee047b45 	vmls.f64	d7, d4, d5
    f998:	e2853001 	add	r3, r5, #1
    f99c:	0a000014 	beq	f9f4 <_dtoa_r+0x3d4>
    f9a0:	ed9f3b2e 	vldr	d3, [pc, #184]	; fa60 <_dtoa_r+0x440>
    f9a4:	ee277b03 	vmul.f64	d7, d7, d3
    f9a8:	eeb57b40 	vcmp.f64	d7, #0.0
    f9ac:	eef1fa10 	vmrs	APSR_nzcv, fpscr
    f9b0:	159d1008 	ldrne	r1, [sp, #8]
    f9b4:	1a000004 	bne	f9cc <_dtoa_r+0x3ac>
    f9b8:	ea00031d 	b	10634 <_dtoa_r+0x1014>
    f9bc:	ee277b03 	vmul.f64	d7, d7, d3
    f9c0:	eeb57b40 	vcmp.f64	d7, #0.0
    f9c4:	eef1fa10 	vmrs	APSR_nzcv, fpscr
    f9c8:	0a000319 	beq	10634 <_dtoa_r+0x1014>
    f9cc:	ee876b05 	vdiv.f64	d6, d7, d5
    f9d0:	eebd6bc6 	vcvt.s32.f64	s12, d6
    f9d4:	ee162a10 	vmov	r2, s12
    f9d8:	eeb84bc6 	vcvt.f64.s32	d4, s12
    f9dc:	e2822030 	add	r2, r2, #48	; 0x30
    f9e0:	e4c32001 	strb	r2, [r3], #1
    f9e4:	e0652003 	rsb	r2, r5, r3
    f9e8:	e1510002 	cmp	r1, r2
    f9ec:	ee047b45 	vmls.f64	d7, d4, d5
    f9f0:	1afffff1 	bne	f9bc <_dtoa_r+0x39c>
    f9f4:	ee377b07 	vadd.f64	d7, d7, d7
    f9f8:	eeb45bc7 	vcmpe.f64	d5, d7
    f9fc:	eef1fa10 	vmrs	APSR_nzcv, fpscr
    fa00:	5a000389 	bpl	1082c <_dtoa_r+0x120c>
    fa04:	e58d501c 	str	r5, [sp, #28]
    fa08:	e1a05003 	mov	r5, r3
    fa0c:	e5532001 	ldrb	r2, [r3, #-1]
    fa10:	e2453001 	sub	r3, r5, #1
    fa14:	e59d101c 	ldr	r1, [sp, #28]
    fa18:	ea000002 	b	fa28 <_dtoa_r+0x408>
    fa1c:	e1530001 	cmp	r3, r1
    fa20:	0a000317 	beq	10684 <_dtoa_r+0x1064>
    fa24:	e5732001 	ldrb	r2, [r3, #-1]!
    fa28:	e3520039 	cmp	r2, #57	; 0x39
    fa2c:	e2835001 	add	r5, r3, #1
    fa30:	0afffff9 	beq	fa1c <_dtoa_r+0x3fc>
    fa34:	e2822001 	add	r2, r2, #1
    fa38:	e5c32000 	strb	r2, [r3]
    fa3c:	ea0000ac 	b	fcf4 <_dtoa_r+0x6d4>
    fa40:	00000000 	andeq	r0, r0, r0
    fa44:	3ff80000 	svccc	0x00f80000
    fa48:	636f4361 	cmnvs	pc, #-2080374783	; 0x84000001
    fa4c:	3fd287a7 	svccc	0x00d287a7
    fa50:	8b60c8b3 	blhi	1841d24 <errno+0x18224f0>
    fa54:	3fc68a28 	svccc	0x00c68a28
    fa58:	509f79fb 			; <UNDEFINED> instruction: 0x509f79fb
    fa5c:	3fd34413 	svccc	0x00d34413
    fa60:	00000000 	andeq	r0, r0, r0
    fa64:	40240000 	eormi	r0, r4, r0
    fa68:	7ff00000 	svcvc	0x00f00000	; IMB
    fa6c:	000166ad 	andeq	r6, r1, sp, lsr #13
    fa70:	0000270f 	andeq	r2, r0, pc, lsl #14
    fa74:	000166bc 			; <UNDEFINED> instruction: 0x000166bc
    fa78:	000166b0 			; <UNDEFINED> instruction: 0x000166b0
    fa7c:	000166ac 	andeq	r6, r1, ip, lsr #13
    fa80:	00016708 	andeq	r6, r1, r8, lsl #14
    fa84:	000167d0 	ldrdeq	r6, [r1], -r0
    fa88:	e59d2028 	ldr	r2, [sp, #40]	; 0x28
    fa8c:	e3520000 	cmp	r2, #0
    fa90:	1a0000c1 	bne	fd9c <_dtoa_r+0x77c>
    fa94:	e59d3014 	ldr	r3, [sp, #20]
    fa98:	e58d3038 	str	r3, [sp, #56]	; 0x38
    fa9c:	e59d3018 	ldr	r3, [sp, #24]
    faa0:	e58d301c 	str	r3, [sp, #28]
    faa4:	e59d3028 	ldr	r3, [sp, #40]	; 0x28
    faa8:	e58d3020 	str	r3, [sp, #32]
    faac:	e59d201c 	ldr	r2, [sp, #28]
    fab0:	e3520000 	cmp	r2, #0
    fab4:	c3590000 	cmpgt	r9, #0
    fab8:	e1a03002 	mov	r3, r2
    fabc:	da000007 	ble	fae0 <_dtoa_r+0x4c0>
    fac0:	e1520009 	cmp	r2, r9
    fac4:	a1a03009 	movge	r3, r9
    fac8:	e59d1018 	ldr	r1, [sp, #24]
    facc:	e0632002 	rsb	r2, r3, r2
    fad0:	e0631001 	rsb	r1, r3, r1
    fad4:	e58d1018 	str	r1, [sp, #24]
    fad8:	e58d201c 	str	r2, [sp, #28]
    fadc:	e0639009 	rsb	r9, r3, r9
    fae0:	e59d3014 	ldr	r3, [sp, #20]
    fae4:	e3530000 	cmp	r3, #0
    fae8:	da000018 	ble	fb50 <_dtoa_r+0x530>
    faec:	e59d2028 	ldr	r2, [sp, #40]	; 0x28
    faf0:	e3520000 	cmp	r2, #0
    faf4:	0a0001ca 	beq	10224 <_dtoa_r+0xc04>
    faf8:	e59d2038 	ldr	r2, [sp, #56]	; 0x38
    fafc:	e3520000 	cmp	r2, #0
    fb00:	0a0001c7 	beq	10224 <_dtoa_r+0xc04>
    fb04:	e59d1020 	ldr	r1, [sp, #32]
    fb08:	e1a00004 	mov	r0, r4
    fb0c:	eb0006bc 	bl	11604 <__pow5mult>
    fb10:	e1a02008 	mov	r2, r8
    fb14:	e1a01000 	mov	r1, r0
    fb18:	e58d0020 	str	r0, [sp, #32]
    fb1c:	e1a00004 	mov	r0, r4
    fb20:	eb00063b 	bl	11414 <__multiply>
    fb24:	e1a01008 	mov	r1, r8
    fb28:	e58d003c 	str	r0, [sp, #60]	; 0x3c
    fb2c:	e1a00004 	mov	r0, r4
    fb30:	eb00057a 	bl	11120 <_Bfree>
    fb34:	e59d3014 	ldr	r3, [sp, #20]
    fb38:	e59d2038 	ldr	r2, [sp, #56]	; 0x38
    fb3c:	e0533002 	subs	r3, r3, r2
    fb40:	e58d3014 	str	r3, [sp, #20]
    fb44:	e59d303c 	ldr	r3, [sp, #60]	; 0x3c
    fb48:	e1a08003 	mov	r8, r3
    fb4c:	1a0001b4 	bne	10224 <_dtoa_r+0xc04>
    fb50:	e3a01001 	mov	r1, #1
    fb54:	e1a00004 	mov	r0, r4
    fb58:	eb000624 	bl	113f0 <__i2b>
    fb5c:	e59d3030 	ldr	r3, [sp, #48]	; 0x30
    fb60:	e3530000 	cmp	r3, #0
    fb64:	e58d0014 	str	r0, [sp, #20]
    fb68:	0a0001a6 	beq	10208 <_dtoa_r+0xbe8>
    fb6c:	e1a01000 	mov	r1, r0
    fb70:	e1a02003 	mov	r2, r3
    fb74:	e1a00004 	mov	r0, r4
    fb78:	eb0006a1 	bl	11604 <__pow5mult>
    fb7c:	e59d3004 	ldr	r3, [sp, #4]
    fb80:	e3530001 	cmp	r3, #1
    fb84:	e58d0014 	str	r0, [sp, #20]
    fb88:	ca000200 	bgt	10390 <_dtoa_r+0xd70>
    fb8c:	e35a0000 	cmp	sl, #0
    fb90:	1a0001fe 	bne	10390 <_dtoa_r+0xd70>
    fb94:	e3cb34ff 	bic	r3, fp, #-16777216	; 0xff000000
    fb98:	e3c3360f 	bic	r3, r3, #15728640	; 0xf00000
    fb9c:	e3530000 	cmp	r3, #0
    fba0:	13a03000 	movne	r3, #0
    fba4:	158d3038 	strne	r3, [sp, #56]	; 0x38
    fba8:	1a000009 	bne	fbd4 <_dtoa_r+0x5b4>
    fbac:	e3cb3102 	bic	r3, fp, #-2147483648	; 0x80000000
    fbb0:	e1a03a23 	lsr	r3, r3, #20
    fbb4:	e1a03a03 	lsl	r3, r3, #20
    fbb8:	e3530000 	cmp	r3, #0
    fbbc:	159d3018 	ldrne	r3, [sp, #24]
    fbc0:	12833001 	addne	r3, r3, #1
    fbc4:	158d3018 	strne	r3, [sp, #24]
    fbc8:	13a03001 	movne	r3, #1
    fbcc:	e58d3038 	str	r3, [sp, #56]	; 0x38
    fbd0:	12899001 	addne	r9, r9, #1
    fbd4:	e59d3030 	ldr	r3, [sp, #48]	; 0x30
    fbd8:	e3530000 	cmp	r3, #0
    fbdc:	03a00001 	moveq	r0, #1
    fbe0:	1a0001ec 	bne	10398 <_dtoa_r+0xd78>
    fbe4:	e0800009 	add	r0, r0, r9
    fbe8:	e210001f 	ands	r0, r0, #31
    fbec:	0a000143 	beq	10100 <_dtoa_r+0xae0>
    fbf0:	e2603020 	rsb	r3, r0, #32
    fbf4:	e3530004 	cmp	r3, #4
    fbf8:	da000337 	ble	108dc <_dtoa_r+0x12bc>
    fbfc:	e260001c 	rsb	r0, r0, #28
    fc00:	e59d3018 	ldr	r3, [sp, #24]
    fc04:	e0833000 	add	r3, r3, r0
    fc08:	e58d3018 	str	r3, [sp, #24]
    fc0c:	e59d301c 	ldr	r3, [sp, #28]
    fc10:	e0833000 	add	r3, r3, r0
    fc14:	e58d301c 	str	r3, [sp, #28]
    fc18:	e0899000 	add	r9, r9, r0
    fc1c:	e59d3018 	ldr	r3, [sp, #24]
    fc20:	e3530000 	cmp	r3, #0
    fc24:	da000004 	ble	fc3c <_dtoa_r+0x61c>
    fc28:	e1a01008 	mov	r1, r8
    fc2c:	e1a02003 	mov	r2, r3
    fc30:	e1a00004 	mov	r0, r4
    fc34:	eb0006b3 	bl	11708 <__lshift>
    fc38:	e1a08000 	mov	r8, r0
    fc3c:	e3590000 	cmp	r9, #0
    fc40:	da000004 	ble	fc58 <_dtoa_r+0x638>
    fc44:	e1a02009 	mov	r2, r9
    fc48:	e59d1014 	ldr	r1, [sp, #20]
    fc4c:	e1a00004 	mov	r0, r4
    fc50:	eb0006ac 	bl	11708 <__lshift>
    fc54:	e58d0014 	str	r0, [sp, #20]
    fc58:	e59d302c 	ldr	r3, [sp, #44]	; 0x2c
    fc5c:	e3530000 	cmp	r3, #0
    fc60:	1a0001d3 	bne	103b4 <_dtoa_r+0xd94>
    fc64:	e99d000c 	ldmib	sp, {r2, r3}
    fc68:	e3530000 	cmp	r3, #0
    fc6c:	d3a03001 	movle	r3, #1
    fc70:	c3a03000 	movgt	r3, #0
    fc74:	e3520002 	cmp	r2, #2
    fc78:	d3a03000 	movle	r3, #0
    fc7c:	e3530000 	cmp	r3, #0
    fc80:	0a000120 	beq	10108 <_dtoa_r+0xae8>
    fc84:	e59d3008 	ldr	r3, [sp, #8]
    fc88:	e3530000 	cmp	r3, #0
    fc8c:	1a000118 	bne	100f4 <_dtoa_r+0xad4>
    fc90:	e59d1014 	ldr	r1, [sp, #20]
    fc94:	e3a02005 	mov	r2, #5
    fc98:	e1a00004 	mov	r0, r4
    fc9c:	eb000526 	bl	1113c <__multadd>
    fca0:	e1a01000 	mov	r1, r0
    fca4:	e58d0014 	str	r0, [sp, #20]
    fca8:	e1a00008 	mov	r0, r8
    fcac:	eb0006d2 	bl	117fc <__mcmp>
    fcb0:	e3500000 	cmp	r0, #0
    fcb4:	c58d501c 	strgt	r5, [sp, #28]
    fcb8:	da00010d 	ble	100f4 <_dtoa_r+0xad4>
    fcbc:	e3a03031 	mov	r3, #49	; 0x31
    fcc0:	e59d201c 	ldr	r2, [sp, #28]
    fcc4:	e5c23000 	strb	r3, [r2]
    fcc8:	e2877001 	add	r7, r7, #1
    fccc:	e2825001 	add	r5, r2, #1
    fcd0:	e59d1014 	ldr	r1, [sp, #20]
    fcd4:	e1a00004 	mov	r0, r4
    fcd8:	eb000510 	bl	11120 <_Bfree>
    fcdc:	e59d3020 	ldr	r3, [sp, #32]
    fce0:	e3530000 	cmp	r3, #0
    fce4:	0a000002 	beq	fcf4 <_dtoa_r+0x6d4>
    fce8:	e59d1020 	ldr	r1, [sp, #32]
    fcec:	e1a00004 	mov	r0, r4
    fcf0:	eb00050a 	bl	11120 <_Bfree>
    fcf4:	e1a01008 	mov	r1, r8
    fcf8:	e1a00004 	mov	r0, r4
    fcfc:	eb000507 	bl	11120 <_Bfree>
    fd00:	e3a02000 	mov	r2, #0
    fd04:	e59d1074 	ldr	r1, [sp, #116]	; 0x74
    fd08:	e5c52000 	strb	r2, [r5]
    fd0c:	e1510002 	cmp	r1, r2
    fd10:	e59d2010 	ldr	r2, [sp, #16]
    fd14:	e2873001 	add	r3, r7, #1
    fd18:	e5823000 	str	r3, [r2]
    fd1c:	0a000236 	beq	105fc <_dtoa_r+0xfdc>
    fd20:	e59d001c 	ldr	r0, [sp, #28]
    fd24:	e5815000 	str	r5, [r1]
    fd28:	e28dd04c 	add	sp, sp, #76	; 0x4c
    fd2c:	e8bd4ff0 	pop	{r4, r5, r6, r7, r8, r9, sl, fp, lr}
    fd30:	e12fff1e 	bx	lr
    fd34:	eeb86be6 	vcvt.f64.s32	d6, s13
    fd38:	eeb47b46 	vcmp.f64	d7, d6
    fd3c:	eef1fa10 	vmrs	APSR_nzcv, fpscr
    fd40:	12477001 	subne	r7, r7, #1
    fd44:	eafffea7 	b	f7e8 <_dtoa_r+0x1c8>
    fd48:	e3a06000 	mov	r6, #0
    fd4c:	e1a00004 	mov	r0, r4
    fd50:	e5846044 	str	r6, [r4, #68]	; 0x44
    fd54:	e1a01006 	mov	r1, r6
    fd58:	eb0004cc 	bl	11090 <_Balloc>
    fd5c:	e59d3044 	ldr	r3, [sp, #68]	; 0x44
    fd60:	e357000e 	cmp	r7, #14
    fd64:	c3a02000 	movgt	r2, #0
    fd68:	d3a02001 	movle	r2, #1
    fd6c:	e1530006 	cmp	r3, r6
    fd70:	b3a02000 	movlt	r2, #0
    fd74:	e1520006 	cmp	r2, r6
    fd78:	e1a05000 	mov	r5, r0
    fd7c:	e5840040 	str	r0, [r4, #64]	; 0x40
    fd80:	1a0002dd 	bne	108fc <_dtoa_r+0x12dc>
    fd84:	e3e01000 	mvn	r1, #0
    fd88:	e1a06002 	mov	r6, r2
    fd8c:	e3a02001 	mov	r2, #1
    fd90:	e58d1034 	str	r1, [sp, #52]	; 0x34
    fd94:	e58d1008 	str	r1, [sp, #8]
    fd98:	e58d2028 	str	r2, [sp, #40]	; 0x28
    fd9c:	e59d2004 	ldr	r2, [sp, #4]
    fda0:	e3520001 	cmp	r2, #1
    fda4:	da00024d 	ble	106e0 <_dtoa_r+0x10c0>
    fda8:	e59d3008 	ldr	r3, [sp, #8]
    fdac:	e2432001 	sub	r2, r3, #1
    fdb0:	e59d3014 	ldr	r3, [sp, #20]
    fdb4:	e1530002 	cmp	r3, r2
    fdb8:	b59d3014 	ldrlt	r3, [sp, #20]
    fdbc:	b58d2014 	strlt	r2, [sp, #20]
    fdc0:	b0633002 	rsblt	r3, r3, r2
    fdc4:	b3a02000 	movlt	r2, #0
    fdc8:	b58d2038 	strlt	r2, [sp, #56]	; 0x38
    fdcc:	b59d2030 	ldrlt	r2, [sp, #48]	; 0x30
    fdd0:	a0623003 	rsbge	r3, r2, r3
    fdd4:	b0823003 	addlt	r3, r2, r3
    fdd8:	a58d3038 	strge	r3, [sp, #56]	; 0x38
    fddc:	b58d3030 	strlt	r3, [sp, #48]	; 0x30
    fde0:	e59d3008 	ldr	r3, [sp, #8]
    fde4:	e3530000 	cmp	r3, #0
    fde8:	b59d2008 	ldrlt	r2, [sp, #8]
    fdec:	e59d3018 	ldr	r3, [sp, #24]
    fdf0:	b0623003 	rsblt	r3, r2, r3
    fdf4:	b58d301c 	strlt	r3, [sp, #28]
    fdf8:	b3a03000 	movlt	r3, #0
    fdfc:	a58d301c 	strge	r3, [sp, #28]
    fe00:	a59d3008 	ldrge	r3, [sp, #8]
    fe04:	e59d2018 	ldr	r2, [sp, #24]
    fe08:	e3a01001 	mov	r1, #1
    fe0c:	e0822003 	add	r2, r2, r3
    fe10:	e1a00004 	mov	r0, r4
    fe14:	e58d2018 	str	r2, [sp, #24]
    fe18:	e0899003 	add	r9, r9, r3
    fe1c:	eb000573 	bl	113f0 <__i2b>
    fe20:	e58d0020 	str	r0, [sp, #32]
    fe24:	eaffff20 	b	faac <_dtoa_r+0x48c>
    fe28:	e3a03000 	mov	r3, #0
    fe2c:	e58d3028 	str	r3, [sp, #40]	; 0x28
    fe30:	e0873006 	add	r3, r7, r6
    fe34:	e58d3034 	str	r3, [sp, #52]	; 0x34
    fe38:	e2833001 	add	r3, r3, #1
    fe3c:	e3530000 	cmp	r3, #0
    fe40:	e58d3008 	str	r3, [sp, #8]
    fe44:	da0001f6 	ble	10624 <_dtoa_r+0x1004>
    fe48:	e59d3008 	ldr	r3, [sp, #8]
    fe4c:	e353000e 	cmp	r3, #14
    fe50:	83a05000 	movhi	r5, #0
    fe54:	92055001 	andls	r5, r5, #1
    fe58:	e1a00003 	mov	r0, r3
    fe5c:	e3a01000 	mov	r1, #0
    fe60:	e3500017 	cmp	r0, #23
    fe64:	e5841044 	str	r1, [r4, #68]	; 0x44
    fe68:	9a000008 	bls	fe90 <_dtoa_r+0x870>
    fe6c:	e3a02001 	mov	r2, #1
    fe70:	e3a03004 	mov	r3, #4
    fe74:	e1a01002 	mov	r1, r2
    fe78:	e1a03083 	lsl	r3, r3, #1
    fe7c:	e2832014 	add	r2, r3, #20
    fe80:	e1520000 	cmp	r2, r0
    fe84:	e2812001 	add	r2, r1, #1
    fe88:	9afffff9 	bls	fe74 <_dtoa_r+0x854>
    fe8c:	e5841044 	str	r1, [r4, #68]	; 0x44
    fe90:	e1a00004 	mov	r0, r4
    fe94:	eb00047d 	bl	11090 <_Balloc>
    fe98:	e3550000 	cmp	r5, #0
    fe9c:	e58d001c 	str	r0, [sp, #28]
    fea0:	e5840040 	str	r0, [r4, #64]	; 0x40
    fea4:	0a000292 	beq	108f4 <_dtoa_r+0x12d4>
    fea8:	e3570000 	cmp	r7, #0
    feac:	e58da020 	str	sl, [sp, #32]
    feb0:	e58db024 	str	fp, [sp, #36]	; 0x24
    feb4:	da0000e6 	ble	10254 <_dtoa_r+0xc34>
    feb8:	e51f1440 	ldr	r1, [pc, #-1088]	; fa80 <_dtoa_r+0x460>
    febc:	e1a03247 	asr	r3, r7, #4
    fec0:	e207200f 	and	r2, r7, #15
    fec4:	e3130010 	tst	r3, #16
    fec8:	e0812182 	add	r2, r1, r2, lsl #3
    fecc:	ed926b00 	vldr	d6, [r2]
    fed0:	151f2454 	ldrne	r2, [pc, #-1108]	; fa84 <_dtoa_r+0x464>
    fed4:	1c4bab15 	vmovne	d5, sl, fp
    fed8:	1d927b08 	vldrne	d7, [r2, #32]
    fedc:	1203300f 	andne	r3, r3, #15
    fee0:	1e854b07 	vdivne.f64	d4, d5, d7
    fee4:	13a01003 	movne	r1, #3
    fee8:	0d9d4b08 	vldreq	d4, [sp, #32]
    feec:	03a01002 	moveq	r1, #2
    fef0:	e3530000 	cmp	r3, #0
    fef4:	0a000007 	beq	ff18 <_dtoa_r+0x8f8>
    fef8:	e51f247c 	ldr	r2, [pc, #-1148]	; fa84 <_dtoa_r+0x464>
    fefc:	e3130001 	tst	r3, #1
    ff00:	1d927b00 	vldrne	d7, [r2]
    ff04:	12811001 	addne	r1, r1, #1
    ff08:	1e266b07 	vmulne.f64	d6, d6, d7
    ff0c:	e1b030c3 	asrs	r3, r3, #1
    ff10:	e2822008 	add	r2, r2, #8
    ff14:	1afffff8 	bne	fefc <_dtoa_r+0x8dc>
    ff18:	ee845b06 	vdiv.f64	d5, d4, d6
    ff1c:	e59d302c 	ldr	r3, [sp, #44]	; 0x2c
    ff20:	e3530000 	cmp	r3, #0
    ff24:	0a000003 	beq	ff38 <_dtoa_r+0x918>
    ff28:	ed9f7be2 	vldr	d7, [pc, #904]	; 102b8 <_dtoa_r+0xc98>
    ff2c:	eeb45bc7 	vcmpe.f64	d5, d7
    ff30:	eef1fa10 	vmrs	APSR_nzcv, fpscr
    ff34:	4a0001c1 	bmi	10640 <_dtoa_r+0x1020>
    ff38:	ee071a90 	vmov	s15, r1
    ff3c:	eeb86be7 	vcvt.f64.s32	d6, s15
    ff40:	ed9f7bde 	vldr	d7, [pc, #888]	; 102c0 <_dtoa_r+0xca0>
    ff44:	ee067b05 	vmla.f64	d7, d6, d5
    ff48:	ec5bab17 	vmov	sl, fp, d7
    ff4c:	e59d3008 	ldr	r3, [sp, #8]
    ff50:	e3530000 	cmp	r3, #0
    ff54:	e24bb50d 	sub	fp, fp, #54525952	; 0x3400000
    ff58:	0a000057 	beq	100bc <_dtoa_r+0xa9c>
    ff5c:	e1a0c007 	mov	ip, r7
    ff60:	e59d3008 	ldr	r3, [sp, #8]
    ff64:	e59d2028 	ldr	r2, [sp, #40]	; 0x28
    ff68:	e3520000 	cmp	r2, #0
    ff6c:	0a0000dd 	beq	102e8 <_dtoa_r+0xcc8>
    ff70:	e59f236c 	ldr	r2, [pc, #876]	; 102e4 <_dtoa_r+0xcc4>
    ff74:	e0822183 	add	r2, r2, r3, lsl #3
    ff78:	ed127b02 	vldr	d7, [r2, #-8]
    ff7c:	ed9f3bd1 	vldr	d3, [pc, #836]	; 102c8 <_dtoa_r+0xca8>
    ff80:	eefd6bc5 	vcvt.s32.f64	s13, d5
    ff84:	ee834b07 	vdiv.f64	d4, d3, d7
    ff88:	eeb87be6 	vcvt.f64.s32	d7, s13
    ff8c:	ec4bab13 	vmov	d3, sl, fp
    ff90:	ee357b47 	vsub.f64	d7, d5, d7
    ff94:	ee344b43 	vsub.f64	d4, d4, d3
    ff98:	eeb44bc7 	vcmpe.f64	d4, d7
    ff9c:	ee162a90 	vmov	r2, s13
    ffa0:	eef1fa10 	vmrs	APSR_nzcv, fpscr
    ffa4:	e59d101c 	ldr	r1, [sp, #28]
    ffa8:	e2822030 	add	r2, r2, #48	; 0x30
    ffac:	e20220ff 	and	r2, r2, #255	; 0xff
    ffb0:	e5c12000 	strb	r2, [r1]
    ffb4:	e2815001 	add	r5, r1, #1
    ffb8:	ca00001c 	bgt	10030 <_dtoa_r+0xa10>
    ffbc:	ed9f2bbd 	vldr	d2, [pc, #756]	; 102b8 <_dtoa_r+0xc98>
    ffc0:	ee326b47 	vsub.f64	d6, d2, d7
    ffc4:	eeb44bc6 	vcmpe.f64	d4, d6
    ffc8:	eef1fa10 	vmrs	APSR_nzcv, fpscr
    ffcc:	ca0001db 	bgt	10740 <_dtoa_r+0x1120>
    ffd0:	e3530001 	cmp	r3, #1
    ffd4:	da000098 	ble	1023c <_dtoa_r+0xc1c>
    ffd8:	e59d201c 	ldr	r2, [sp, #28]
    ffdc:	ed9f3bbb 	vldr	d3, [pc, #748]	; 102d0 <_dtoa_r+0xcb0>
    ffe0:	e0823003 	add	r3, r2, r3
    ffe4:	ea000005 	b	10000 <_dtoa_r+0x9e0>
    ffe8:	ee326b47 	vsub.f64	d6, d2, d7
    ffec:	eeb46bc4 	vcmpe.f64	d6, d4
    fff0:	eef1fa10 	vmrs	APSR_nzcv, fpscr
    fff4:	4a0001d1 	bmi	10740 <_dtoa_r+0x1120>
    fff8:	e1550003 	cmp	r5, r3
    fffc:	0a00008e 	beq	1023c <_dtoa_r+0xc1c>
   10000:	ee277b03 	vmul.f64	d7, d7, d3
   10004:	eefd5bc7 	vcvt.s32.f64	s11, d7
   10008:	eeb86be5 	vcvt.f64.s32	d6, s11
   1000c:	ee244b03 	vmul.f64	d4, d4, d3
   10010:	ee377b46 	vsub.f64	d7, d7, d6
   10014:	eeb47bc4 	vcmpe.f64	d7, d4
   10018:	ee152a90 	vmov	r2, s11
   1001c:	eef1fa10 	vmrs	APSR_nzcv, fpscr
   10020:	e2822030 	add	r2, r2, #48	; 0x30
   10024:	e20220ff 	and	r2, r2, #255	; 0xff
   10028:	e4c52001 	strb	r2, [r5], #1
   1002c:	5affffed 	bpl	ffe8 <_dtoa_r+0x9c8>
   10030:	e1a0700c 	mov	r7, ip
   10034:	eaffff2e 	b	fcf4 <_dtoa_r+0x6d4>
   10038:	e3a03000 	mov	r3, #0
   1003c:	e58d3028 	str	r3, [sp, #40]	; 0x28
   10040:	e3560000 	cmp	r6, #0
   10044:	da00016e 	ble	10604 <_dtoa_r+0xfe4>
   10048:	e356000e 	cmp	r6, #14
   1004c:	83a05000 	movhi	r5, #0
   10050:	92055001 	andls	r5, r5, #1
   10054:	e1a00006 	mov	r0, r6
   10058:	e58d6034 	str	r6, [sp, #52]	; 0x34
   1005c:	e58d6008 	str	r6, [sp, #8]
   10060:	eaffff7d 	b	fe5c <_dtoa_r+0x83c>
   10064:	e3a03001 	mov	r3, #1
   10068:	e58d3028 	str	r3, [sp, #40]	; 0x28
   1006c:	eafffff3 	b	10040 <_dtoa_r+0xa20>
   10070:	e59d3008 	ldr	r3, [sp, #8]
   10074:	e3530000 	cmp	r3, #0
   10078:	1a0001d4 	bne	107d0 <_dtoa_r+0x11b0>
   1007c:	ed9f7b95 	vldr	d7, [pc, #596]	; 102d8 <_dtoa_r+0xcb8>
   10080:	ee255b07 	vmul.f64	d5, d5, d7
   10084:	ec4bab17 	vmov	d7, sl, fp
   10088:	eeb45bc7 	vcmpe.f64	d5, d7
   1008c:	eef1fa10 	vmrs	APSR_nzcv, fpscr
   10090:	aa0001a6 	bge	10730 <_dtoa_r+0x1110>
   10094:	e58d3014 	str	r3, [sp, #20]
   10098:	e58d501c 	str	r5, [sp, #28]
   1009c:	e58d3020 	str	r3, [sp, #32]
   100a0:	eaffff05 	b	fcbc <_dtoa_r+0x69c>
   100a4:	ee071a90 	vmov	s15, r1
   100a8:	eeb86be7 	vcvt.f64.s32	d6, s15
   100ac:	ed9f7b83 	vldr	d7, [pc, #524]	; 102c0 <_dtoa_r+0xca0>
   100b0:	ee067b05 	vmla.f64	d7, d6, d5
   100b4:	ec5bab17 	vmov	sl, fp, d7
   100b8:	e24bb50d 	sub	fp, fp, #54525952	; 0x3400000
   100bc:	ed9f7b85 	vldr	d7, [pc, #532]	; 102d8 <_dtoa_r+0xcb8>
   100c0:	ec4bab16 	vmov	d6, sl, fp
   100c4:	ee357b47 	vsub.f64	d7, d5, d7
   100c8:	eeb47bc6 	vcmpe.f64	d7, d6
   100cc:	eef1fa10 	vmrs	APSR_nzcv, fpscr
   100d0:	ca0000aa 	bgt	10380 <_dtoa_r+0xd60>
   100d4:	eeb16b46 	vneg.f64	d6, d6
   100d8:	eeb47bc6 	vcmpe.f64	d7, d6
   100dc:	eef1fa10 	vmrs	APSR_nzcv, fpscr
   100e0:	5a000055 	bpl	1023c <_dtoa_r+0xc1c>
   100e4:	e3a03000 	mov	r3, #0
   100e8:	e59d501c 	ldr	r5, [sp, #28]
   100ec:	e58d3014 	str	r3, [sp, #20]
   100f0:	e58d3020 	str	r3, [sp, #32]
   100f4:	e1e07006 	mvn	r7, r6
   100f8:	e58d501c 	str	r5, [sp, #28]
   100fc:	eafffef3 	b	fcd0 <_dtoa_r+0x6b0>
   10100:	e3a0001c 	mov	r0, #28
   10104:	eafffebd 	b	fc00 <_dtoa_r+0x5e0>
   10108:	e59d3028 	ldr	r3, [sp, #40]	; 0x28
   1010c:	e3530000 	cmp	r3, #0
   10110:	1a0000d5 	bne	1046c <_dtoa_r+0xe4c>
   10114:	e1a06005 	mov	r6, r5
   10118:	e59d9014 	ldr	r9, [sp, #20]
   1011c:	e59da008 	ldr	sl, [sp, #8]
   10120:	ea000005 	b	1013c <_dtoa_r+0xb1c>
   10124:	e1a01008 	mov	r1, r8
   10128:	e3a03000 	mov	r3, #0
   1012c:	e3a0200a 	mov	r2, #10
   10130:	e1a00004 	mov	r0, r4
   10134:	eb000400 	bl	1113c <__multadd>
   10138:	e1a08000 	mov	r8, r0
   1013c:	e1a01009 	mov	r1, r9
   10140:	e1a00008 	mov	r0, r8
   10144:	ebfffcbe 	bl	f444 <quorem>
   10148:	e2800030 	add	r0, r0, #48	; 0x30
   1014c:	e4c60001 	strb	r0, [r6], #1
   10150:	e0653006 	rsb	r3, r5, r6
   10154:	e153000a 	cmp	r3, sl
   10158:	bafffff1 	blt	10124 <_dtoa_r+0xb04>
   1015c:	e59d3008 	ldr	r3, [sp, #8]
   10160:	e1a0b000 	mov	fp, r0
   10164:	e3530001 	cmp	r3, #1
   10168:	a0856003 	addge	r6, r5, r3
   1016c:	b2856001 	addlt	r6, r5, #1
   10170:	e3a0a000 	mov	sl, #0
   10174:	e1a01008 	mov	r1, r8
   10178:	e3a02001 	mov	r2, #1
   1017c:	e1a00004 	mov	r0, r4
   10180:	eb000560 	bl	11708 <__lshift>
   10184:	e59d1014 	ldr	r1, [sp, #20]
   10188:	e1a08000 	mov	r8, r0
   1018c:	eb00059a 	bl	117fc <__mcmp>
   10190:	e3500000 	cmp	r0, #0
   10194:	da000183 	ble	107a8 <_dtoa_r+0x1188>
   10198:	e5562001 	ldrb	r2, [r6, #-1]
   1019c:	e2463001 	sub	r3, r6, #1
   101a0:	ea000002 	b	101b0 <_dtoa_r+0xb90>
   101a4:	e1530005 	cmp	r3, r5
   101a8:	0a000148 	beq	106d0 <_dtoa_r+0x10b0>
   101ac:	e5732001 	ldrb	r2, [r3, #-1]!
   101b0:	e3520039 	cmp	r2, #57	; 0x39
   101b4:	e2836001 	add	r6, r3, #1
   101b8:	0afffff9 	beq	101a4 <_dtoa_r+0xb84>
   101bc:	e2822001 	add	r2, r2, #1
   101c0:	e5c32000 	strb	r2, [r3]
   101c4:	e59d1014 	ldr	r1, [sp, #20]
   101c8:	e1a00004 	mov	r0, r4
   101cc:	eb0003d3 	bl	11120 <_Bfree>
   101d0:	e59d3020 	ldr	r3, [sp, #32]
   101d4:	e3530000 	cmp	r3, #0
   101d8:	0a000190 	beq	10820 <_dtoa_r+0x1200>
   101dc:	e35a0000 	cmp	sl, #0
   101e0:	115a0003 	cmpne	sl, r3
   101e4:	058d501c 	streq	r5, [sp, #28]
   101e8:	01a05006 	moveq	r5, r6
   101ec:	0afffebd 	beq	fce8 <_dtoa_r+0x6c8>
   101f0:	e1a0100a 	mov	r1, sl
   101f4:	e1a00004 	mov	r0, r4
   101f8:	e58d501c 	str	r5, [sp, #28]
   101fc:	eb0003c7 	bl	11120 <_Bfree>
   10200:	e1a05006 	mov	r5, r6
   10204:	eafffeb7 	b	fce8 <_dtoa_r+0x6c8>
   10208:	e59d3004 	ldr	r3, [sp, #4]
   1020c:	e3530001 	cmp	r3, #1
   10210:	da0001b4 	ble	108e8 <_dtoa_r+0x12c8>
   10214:	e59d3030 	ldr	r3, [sp, #48]	; 0x30
   10218:	e3a00001 	mov	r0, #1
   1021c:	e58d3038 	str	r3, [sp, #56]	; 0x38
   10220:	eafffe6f 	b	fbe4 <_dtoa_r+0x5c4>
   10224:	e1a01008 	mov	r1, r8
   10228:	e59d2014 	ldr	r2, [sp, #20]
   1022c:	e1a00004 	mov	r0, r4
   10230:	eb0004f3 	bl	11604 <__pow5mult>
   10234:	e1a08000 	mov	r8, r0
   10238:	eafffe44 	b	fb50 <_dtoa_r+0x530>
   1023c:	e59d501c 	ldr	r5, [sp, #28]
   10240:	e28db020 	add	fp, sp, #32
   10244:	e89b0c00 	ldm	fp, {sl, fp}
   10248:	eafffdb9 	b	f934 <_dtoa_r+0x314>
   1024c:	e1a00008 	mov	r0, r8
   10250:	eafffd22 	b	f6e0 <_dtoa_r+0xc0>
   10254:	e2673000 	rsb	r3, r7, #0
   10258:	e3530000 	cmp	r3, #0
   1025c:	0a00010d 	beq	10698 <_dtoa_r+0x1078>
   10260:	e59f207c 	ldr	r2, [pc, #124]	; 102e4 <_dtoa_r+0xcc4>
   10264:	e203100f 	and	r1, r3, #15
   10268:	e0822181 	add	r2, r2, r1, lsl #3
   1026c:	ed927b00 	vldr	d7, [r2]
   10270:	ed9d6b08 	vldr	d6, [sp, #32]
   10274:	e1b03243 	asrs	r3, r3, #4
   10278:	e3a01002 	mov	r1, #2
   1027c:	ee265b07 	vmul.f64	d5, d6, d7
   10280:	0affff25 	beq	ff1c <_dtoa_r+0x8fc>
   10284:	e59f2054 	ldr	r2, [pc, #84]	; 102e0 <_dtoa_r+0xcc0>
   10288:	e3130001 	tst	r3, #1
   1028c:	1d927b00 	vldrne	d7, [r2]
   10290:	12811001 	addne	r1, r1, #1
   10294:	1e255b07 	vmulne.f64	d5, d5, d7
   10298:	e1b030c3 	asrs	r3, r3, #1
   1029c:	e2822008 	add	r2, r2, #8
   102a0:	1afffff8 	bne	10288 <_dtoa_r+0xc68>
   102a4:	eaffff1c 	b	ff1c <_dtoa_r+0x8fc>
   102a8:	e3a03001 	mov	r3, #1
   102ac:	e58d3028 	str	r3, [sp, #40]	; 0x28
   102b0:	eafffede 	b	fe30 <_dtoa_r+0x810>
   102b4:	e1a00000 	nop			; (mov r0, r0)
   102b8:	00000000 	andeq	r0, r0, r0
   102bc:	3ff00000 	svccc	0x00f00000	; IMB
   102c0:	00000000 	andeq	r0, r0, r0
   102c4:	401c0000 	andsmi	r0, ip, r0
   102c8:	00000000 	andeq	r0, r0, r0
   102cc:	3fe00000 	svccc	0x00e00000
   102d0:	00000000 	andeq	r0, r0, r0
   102d4:	40240000 	eormi	r0, r4, r0
   102d8:	00000000 	andeq	r0, r0, r0
   102dc:	40140000 	andsmi	r0, r4, r0
   102e0:	000167d0 	ldrdeq	r6, [r1], -r0
   102e4:	00016708 	andeq	r6, r1, r8, lsl #14
   102e8:	eefd7bc5 	vcvt.s32.f64	s15, d5
   102ec:	e51f2010 	ldr	r2, [pc, #-16]	; 102e4 <_dtoa_r+0xcc4>
   102f0:	e2431001 	sub	r1, r3, #1
   102f4:	e0822181 	add	r2, r2, r1, lsl #3
   102f8:	ed923b00 	vldr	d3, [r2]
   102fc:	ee172a90 	vmov	r2, s15
   10300:	eeb86be7 	vcvt.f64.s32	d6, s15
   10304:	ec4bab17 	vmov	d7, sl, fp
   10308:	e59d001c 	ldr	r0, [sp, #28]
   1030c:	e2822030 	add	r2, r2, #48	; 0x30
   10310:	e3530001 	cmp	r3, #1
   10314:	ee233b07 	vmul.f64	d3, d3, d7
   10318:	e5c02000 	strb	r2, [r0]
   1031c:	ee357b46 	vsub.f64	d7, d5, d6
   10320:	e2805001 	add	r5, r0, #1
   10324:	0a00000d 	beq	10360 <_dtoa_r+0xd40>
   10328:	e1a00005 	mov	r0, r5
   1032c:	ed9f4bf9 	vldr	d4, [pc, #996]	; 10718 <_dtoa_r+0x10f8>
   10330:	e59d201c 	ldr	r2, [sp, #28]
   10334:	e0823003 	add	r3, r2, r3
   10338:	ee277b04 	vmul.f64	d7, d7, d4
   1033c:	eefd5bc7 	vcvt.s32.f64	s11, d7
   10340:	ee152a90 	vmov	r2, s11
   10344:	eeb86be5 	vcvt.f64.s32	d6, s11
   10348:	e2822030 	add	r2, r2, #48	; 0x30
   1034c:	e4c02001 	strb	r2, [r0], #1
   10350:	e1530000 	cmp	r3, r0
   10354:	ee377b46 	vsub.f64	d7, d7, d6
   10358:	1afffff6 	bne	10338 <_dtoa_r+0xd18>
   1035c:	e0855001 	add	r5, r5, r1
   10360:	ed9f6bee 	vldr	d6, [pc, #952]	; 10720 <_dtoa_r+0x1100>
   10364:	ee335b06 	vadd.f64	d5, d3, d6
   10368:	eeb45bc7 	vcmpe.f64	d5, d7
   1036c:	eef1fa10 	vmrs	APSR_nzcv, fpscr
   10370:	5a0000cb 	bpl	106a4 <_dtoa_r+0x1084>
   10374:	e1a0700c 	mov	r7, ip
   10378:	e5552001 	ldrb	r2, [r5, #-1]
   1037c:	eafffda3 	b	fa10 <_dtoa_r+0x3f0>
   10380:	e3a03000 	mov	r3, #0
   10384:	e58d3014 	str	r3, [sp, #20]
   10388:	e58d3020 	str	r3, [sp, #32]
   1038c:	eafffe4a 	b	fcbc <_dtoa_r+0x69c>
   10390:	e3a03000 	mov	r3, #0
   10394:	e58d3038 	str	r3, [sp, #56]	; 0x38
   10398:	e59d2014 	ldr	r2, [sp, #20]
   1039c:	e5923010 	ldr	r3, [r2, #16]
   103a0:	e0823103 	add	r3, r2, r3, lsl #2
   103a4:	e5930010 	ldr	r0, [r3, #16]
   103a8:	eb0003d4 	bl	11300 <__hi0bits>
   103ac:	e2600020 	rsb	r0, r0, #32
   103b0:	eafffe0b 	b	fbe4 <_dtoa_r+0x5c4>
   103b4:	e59d1014 	ldr	r1, [sp, #20]
   103b8:	e1a00008 	mov	r0, r8
   103bc:	eb00050e 	bl	117fc <__mcmp>
   103c0:	e3500000 	cmp	r0, #0
   103c4:	aafffe26 	bge	fc64 <_dtoa_r+0x644>
   103c8:	e1a01008 	mov	r1, r8
   103cc:	e3a03000 	mov	r3, #0
   103d0:	e3a0200a 	mov	r2, #10
   103d4:	e1a00004 	mov	r0, r4
   103d8:	eb000357 	bl	1113c <__multadd>
   103dc:	e59d3028 	ldr	r3, [sp, #40]	; 0x28
   103e0:	e3530000 	cmp	r3, #0
   103e4:	e1a08000 	mov	r8, r0
   103e8:	e2477001 	sub	r7, r7, #1
   103ec:	1a00000c 	bne	10424 <_dtoa_r+0xe04>
   103f0:	e59d3004 	ldr	r3, [sp, #4]
   103f4:	e59d2034 	ldr	r2, [sp, #52]	; 0x34
   103f8:	e3530002 	cmp	r3, #2
   103fc:	c3a03001 	movgt	r3, #1
   10400:	d3a03000 	movle	r3, #0
   10404:	e3520000 	cmp	r2, #0
   10408:	c3a03000 	movgt	r3, #0
   1040c:	e3530000 	cmp	r3, #0
   10410:	058d2008 	streq	r2, [sp, #8]
   10414:	0affff3e 	beq	10114 <_dtoa_r+0xaf4>
   10418:	e59d3034 	ldr	r3, [sp, #52]	; 0x34
   1041c:	e58d3008 	str	r3, [sp, #8]
   10420:	eafffe17 	b	fc84 <_dtoa_r+0x664>
   10424:	e59d1020 	ldr	r1, [sp, #32]
   10428:	e3a03000 	mov	r3, #0
   1042c:	e3a0200a 	mov	r2, #10
   10430:	e1a00004 	mov	r0, r4
   10434:	eb000340 	bl	1113c <__multadd>
   10438:	e59d2034 	ldr	r2, [sp, #52]	; 0x34
   1043c:	e59d1004 	ldr	r1, [sp, #4]
   10440:	e3520000 	cmp	r2, #0
   10444:	e1a03002 	mov	r3, r2
   10448:	d3a03001 	movle	r3, #1
   1044c:	c3a03000 	movgt	r3, #0
   10450:	e3510002 	cmp	r1, #2
   10454:	d3a03000 	movle	r3, #0
   10458:	e3530000 	cmp	r3, #0
   1045c:	01a03002 	moveq	r3, r2
   10460:	e58d0020 	str	r0, [sp, #32]
   10464:	058d3008 	streq	r3, [sp, #8]
   10468:	1affffea 	bne	10418 <_dtoa_r+0xdf8>
   1046c:	e59d301c 	ldr	r3, [sp, #28]
   10470:	e3530000 	cmp	r3, #0
   10474:	da000004 	ble	1048c <_dtoa_r+0xe6c>
   10478:	e1a02003 	mov	r2, r3
   1047c:	e59d1020 	ldr	r1, [sp, #32]
   10480:	e1a00004 	mov	r0, r4
   10484:	eb00049f 	bl	11708 <__lshift>
   10488:	e58d0020 	str	r0, [sp, #32]
   1048c:	e59d3038 	ldr	r3, [sp, #56]	; 0x38
   10490:	e3530000 	cmp	r3, #0
   10494:	e59d9020 	ldr	r9, [sp, #32]
   10498:	1a0000d0 	bne	107e0 <_dtoa_r+0x11c0>
   1049c:	e59d3008 	ldr	r3, [sp, #8]
   104a0:	e2433001 	sub	r3, r3, #1
   104a4:	e0853003 	add	r3, r5, r3
   104a8:	e58d301c 	str	r3, [sp, #28]
   104ac:	e20a3001 	and	r3, sl, #1
   104b0:	e1a06005 	mov	r6, r5
   104b4:	e58d5030 	str	r5, [sp, #48]	; 0x30
   104b8:	e58d3018 	str	r3, [sp, #24]
   104bc:	e58d702c 	str	r7, [sp, #44]	; 0x2c
   104c0:	e59d5020 	ldr	r5, [sp, #32]
   104c4:	ea000008 	b	104ec <_dtoa_r+0xecc>
   104c8:	eb00031b 	bl	1113c <__multadd>
   104cc:	e1a01009 	mov	r1, r9
   104d0:	e1a05000 	mov	r5, r0
   104d4:	e3a03000 	mov	r3, #0
   104d8:	e3a0200a 	mov	r2, #10
   104dc:	e1a00004 	mov	r0, r4
   104e0:	eb000315 	bl	1113c <__multadd>
   104e4:	e1a09000 	mov	r9, r0
   104e8:	e1a06007 	mov	r6, r7
   104ec:	e59db014 	ldr	fp, [sp, #20]
   104f0:	e1a00008 	mov	r0, r8
   104f4:	e1a0100b 	mov	r1, fp
   104f8:	ebfffbd1 	bl	f444 <quorem>
   104fc:	e1a01005 	mov	r1, r5
   10500:	e1a07000 	mov	r7, r0
   10504:	e58d0028 	str	r0, [sp, #40]	; 0x28
   10508:	e1a00008 	mov	r0, r8
   1050c:	eb0004ba 	bl	117fc <__mcmp>
   10510:	e1a02009 	mov	r2, r9
   10514:	e1a0100b 	mov	r1, fp
   10518:	e1a0a000 	mov	sl, r0
   1051c:	e1a00004 	mov	r0, r4
   10520:	eb0004ce 	bl	11860 <__mdiff>
   10524:	e590200c 	ldr	r2, [r0, #12]
   10528:	e3520000 	cmp	r2, #0
   1052c:	e1a03000 	mov	r3, r0
   10530:	e287b030 	add	fp, r7, #48	; 0x30
   10534:	1a00002e 	bne	105f4 <_dtoa_r+0xfd4>
   10538:	e1a01000 	mov	r1, r0
   1053c:	e58d0008 	str	r0, [sp, #8]
   10540:	e1a00008 	mov	r0, r8
   10544:	eb0004ac 	bl	117fc <__mcmp>
   10548:	e1a07000 	mov	r7, r0
   1054c:	e59d3008 	ldr	r3, [sp, #8]
   10550:	e1a01003 	mov	r1, r3
   10554:	e1a00004 	mov	r0, r4
   10558:	eb0002f0 	bl	11120 <_Bfree>
   1055c:	e59d3004 	ldr	r3, [sp, #4]
   10560:	e1973003 	orrs	r3, r7, r3
   10564:	1a000002 	bne	10574 <_dtoa_r+0xf54>
   10568:	e59d3018 	ldr	r3, [sp, #24]
   1056c:	e3530000 	cmp	r3, #0
   10570:	0a0000cd 	beq	108ac <_dtoa_r+0x128c>
   10574:	e35a0000 	cmp	sl, #0
   10578:	ba000072 	blt	10748 <_dtoa_r+0x1128>
   1057c:	e59d3004 	ldr	r3, [sp, #4]
   10580:	e19a3003 	orrs	r3, sl, r3
   10584:	1a000002 	bne	10594 <_dtoa_r+0xf74>
   10588:	e59d3018 	ldr	r3, [sp, #24]
   1058c:	e3530000 	cmp	r3, #0
   10590:	0a00006c 	beq	10748 <_dtoa_r+0x1128>
   10594:	e3570000 	cmp	r7, #0
   10598:	ca0000ad 	bgt	10854 <_dtoa_r+0x1234>
   1059c:	e59d301c 	ldr	r3, [sp, #28]
   105a0:	e2867001 	add	r7, r6, #1
   105a4:	e1530006 	cmp	r3, r6
   105a8:	e5c6b000 	strb	fp, [r6]
   105ac:	e1a06007 	mov	r6, r7
   105b0:	0a0000b2 	beq	10880 <_dtoa_r+0x1260>
   105b4:	e1a01008 	mov	r1, r8
   105b8:	e3a03000 	mov	r3, #0
   105bc:	e3a0200a 	mov	r2, #10
   105c0:	e1a00004 	mov	r0, r4
   105c4:	eb0002dc 	bl	1113c <__multadd>
   105c8:	e1550009 	cmp	r5, r9
   105cc:	e1a08000 	mov	r8, r0
   105d0:	e1a01005 	mov	r1, r5
   105d4:	e3a03000 	mov	r3, #0
   105d8:	e3a0200a 	mov	r2, #10
   105dc:	e1a00004 	mov	r0, r4
   105e0:	1affffb8 	bne	104c8 <_dtoa_r+0xea8>
   105e4:	eb0002d4 	bl	1113c <__multadd>
   105e8:	e1a05000 	mov	r5, r0
   105ec:	e1a09000 	mov	r9, r0
   105f0:	eaffffbc 	b	104e8 <_dtoa_r+0xec8>
   105f4:	e3a07001 	mov	r7, #1
   105f8:	eaffffd4 	b	10550 <_dtoa_r+0xf30>
   105fc:	e59d001c 	ldr	r0, [sp, #28]
   10600:	eafffc36 	b	f6e0 <_dtoa_r+0xc0>
   10604:	e3a03001 	mov	r3, #1
   10608:	e1a06003 	mov	r6, r3
   1060c:	e58d3034 	str	r3, [sp, #52]	; 0x34
   10610:	e58d3008 	str	r3, [sp, #8]
   10614:	e3a01000 	mov	r1, #0
   10618:	e0055003 	and	r5, r5, r3
   1061c:	e5841044 	str	r1, [r4, #68]	; 0x44
   10620:	eafffe1a 	b	fe90 <_dtoa_r+0x870>
   10624:	e353000e 	cmp	r3, #14
   10628:	83a03000 	movhi	r3, #0
   1062c:	93a03001 	movls	r3, #1
   10630:	eafffff7 	b	10614 <_dtoa_r+0xff4>
   10634:	e58d501c 	str	r5, [sp, #28]
   10638:	e1a05003 	mov	r5, r3
   1063c:	eafffdac 	b	fcf4 <_dtoa_r+0x6d4>
   10640:	e59d3008 	ldr	r3, [sp, #8]
   10644:	e3530000 	cmp	r3, #0
   10648:	0afffe95 	beq	100a4 <_dtoa_r+0xa84>
   1064c:	e59d3034 	ldr	r3, [sp, #52]	; 0x34
   10650:	e3530000 	cmp	r3, #0
   10654:	dafffef8 	ble	1023c <_dtoa_r+0xc1c>
   10658:	e2811001 	add	r1, r1, #1
   1065c:	ed9f6b2d 	vldr	d6, [pc, #180]	; 10718 <_dtoa_r+0x10f8>
   10660:	ee071a90 	vmov	s15, r1
   10664:	ee255b06 	vmul.f64	d5, d5, d6
   10668:	eeb87be7 	vcvt.f64.s32	d7, s15
   1066c:	ed9f6b2d 	vldr	d6, [pc, #180]	; 10728 <_dtoa_r+0x1108>
   10670:	ee076b05 	vmla.f64	d6, d7, d5
   10674:	ec5bab16 	vmov	sl, fp, d6
   10678:	e247c001 	sub	ip, r7, #1
   1067c:	e24bb50d 	sub	fp, fp, #54525952	; 0x3400000
   10680:	eafffe37 	b	ff64 <_dtoa_r+0x944>
   10684:	e3a02030 	mov	r2, #48	; 0x30
   10688:	e5c32000 	strb	r2, [r3]
   1068c:	e2877001 	add	r7, r7, #1
   10690:	e5552001 	ldrb	r2, [r5, #-1]
   10694:	eafffce6 	b	fa34 <_dtoa_r+0x414>
   10698:	ed9d5b08 	vldr	d5, [sp, #32]
   1069c:	e3a01002 	mov	r1, #2
   106a0:	eafffe1d 	b	ff1c <_dtoa_r+0x8fc>
   106a4:	ee366b43 	vsub.f64	d6, d6, d3
   106a8:	eeb46bc7 	vcmpe.f64	d6, d7
   106ac:	eef1fa10 	vmrs	APSR_nzcv, fpscr
   106b0:	ca000001 	bgt	106bc <_dtoa_r+0x109c>
   106b4:	eafffee0 	b	1023c <_dtoa_r+0xc1c>
   106b8:	e1a05003 	mov	r5, r3
   106bc:	e5553001 	ldrb	r3, [r5, #-1]
   106c0:	e3530030 	cmp	r3, #48	; 0x30
   106c4:	e2453001 	sub	r3, r5, #1
   106c8:	0afffffa 	beq	106b8 <_dtoa_r+0x1098>
   106cc:	eafffe57 	b	10030 <_dtoa_r+0xa10>
   106d0:	e3a03031 	mov	r3, #49	; 0x31
   106d4:	e2877001 	add	r7, r7, #1
   106d8:	e5c53000 	strb	r3, [r5]
   106dc:	eafffeb8 	b	101c4 <_dtoa_r+0xba4>
   106e0:	e59d2038 	ldr	r2, [sp, #56]	; 0x38
   106e4:	e3520000 	cmp	r2, #0
   106e8:	159d2014 	ldrne	r2, [sp, #20]
   106ec:	059d2014 	ldreq	r2, [sp, #20]
   106f0:	158d2038 	strne	r2, [sp, #56]	; 0x38
   106f4:	059d3040 	ldreq	r3, [sp, #64]	; 0x40
   106f8:	058d2038 	streq	r2, [sp, #56]	; 0x38
   106fc:	e59d2018 	ldr	r2, [sp, #24]
   10700:	12833e43 	addne	r3, r3, #1072	; 0x430
   10704:	12833003 	addne	r3, r3, #3
   10708:	02633036 	rsbeq	r3, r3, #54	; 0x36
   1070c:	e58d201c 	str	r2, [sp, #28]
   10710:	eafffdbb 	b	fe04 <_dtoa_r+0x7e4>
   10714:	e1a00000 	nop			; (mov r0, r0)
   10718:	00000000 	andeq	r0, r0, r0
   1071c:	40240000 	eormi	r0, r4, r0
   10720:	00000000 	andeq	r0, r0, r0
   10724:	3fe00000 	svccc	0x00e00000
   10728:	00000000 	andeq	r0, r0, r0
   1072c:	401c0000 	andsmi	r0, ip, r0
   10730:	e59d3008 	ldr	r3, [sp, #8]
   10734:	e58d3014 	str	r3, [sp, #20]
   10738:	e58d3020 	str	r3, [sp, #32]
   1073c:	eafffe6c 	b	100f4 <_dtoa_r+0xad4>
   10740:	e1a0700c 	mov	r7, ip
   10744:	eafffcb1 	b	fa10 <_dtoa_r+0x3f0>
   10748:	e1a02007 	mov	r2, r7
   1074c:	e3520000 	cmp	r2, #0
   10750:	e58d5020 	str	r5, [sp, #32]
   10754:	e59d702c 	ldr	r7, [sp, #44]	; 0x2c
   10758:	e59d5030 	ldr	r5, [sp, #48]	; 0x30
   1075c:	da00000c 	ble	10794 <_dtoa_r+0x1174>
   10760:	e1a01008 	mov	r1, r8
   10764:	e3a02001 	mov	r2, #1
   10768:	e1a00004 	mov	r0, r4
   1076c:	eb0003e5 	bl	11708 <__lshift>
   10770:	e59d1014 	ldr	r1, [sp, #20]
   10774:	e1a08000 	mov	r8, r0
   10778:	eb00041f 	bl	117fc <__mcmp>
   1077c:	e3500000 	cmp	r0, #0
   10780:	da000051 	ble	108cc <_dtoa_r+0x12ac>
   10784:	e35b0039 	cmp	fp, #57	; 0x39
   10788:	0a000041 	beq	10894 <_dtoa_r+0x1274>
   1078c:	e59d3028 	ldr	r3, [sp, #40]	; 0x28
   10790:	e283b031 	add	fp, r3, #49	; 0x31
   10794:	e59da020 	ldr	sl, [sp, #32]
   10798:	e5c6b000 	strb	fp, [r6]
   1079c:	e58d9020 	str	r9, [sp, #32]
   107a0:	e2866001 	add	r6, r6, #1
   107a4:	eafffe86 	b	101c4 <_dtoa_r+0xba4>
   107a8:	1a000003 	bne	107bc <_dtoa_r+0x119c>
   107ac:	e31b0001 	tst	fp, #1
   107b0:	0a000001 	beq	107bc <_dtoa_r+0x119c>
   107b4:	eafffe77 	b	10198 <_dtoa_r+0xb78>
   107b8:	e1a06003 	mov	r6, r3
   107bc:	e5563001 	ldrb	r3, [r6, #-1]
   107c0:	e3530030 	cmp	r3, #48	; 0x30
   107c4:	e2463001 	sub	r3, r6, #1
   107c8:	0afffffa 	beq	107b8 <_dtoa_r+0x1198>
   107cc:	eafffe7c 	b	101c4 <_dtoa_r+0xba4>
   107d0:	e3a03000 	mov	r3, #0
   107d4:	e58d3014 	str	r3, [sp, #20]
   107d8:	e58d3020 	str	r3, [sp, #32]
   107dc:	eafffe44 	b	100f4 <_dtoa_r+0xad4>
   107e0:	e5991004 	ldr	r1, [r9, #4]
   107e4:	e1a00004 	mov	r0, r4
   107e8:	eb000228 	bl	11090 <_Balloc>
   107ec:	e1a06000 	mov	r6, r0
   107f0:	e5992010 	ldr	r2, [r9, #16]
   107f4:	e2822002 	add	r2, r2, #2
   107f8:	e289100c 	add	r1, r9, #12
   107fc:	e1a02102 	lsl	r2, r2, #2
   10800:	e280000c 	add	r0, r0, #12
   10804:	ebffeeed 	bl	c3c0 <memcpy>
   10808:	e1a01006 	mov	r1, r6
   1080c:	e3a02001 	mov	r2, #1
   10810:	e1a00004 	mov	r0, r4
   10814:	eb0003bb 	bl	11708 <__lshift>
   10818:	e1a09000 	mov	r9, r0
   1081c:	eaffff1e 	b	1049c <_dtoa_r+0xe7c>
   10820:	e58d501c 	str	r5, [sp, #28]
   10824:	e1a05006 	mov	r5, r6
   10828:	eafffd31 	b	fcf4 <_dtoa_r+0x6d4>
   1082c:	eeb45b47 	vcmp.f64	d5, d7
   10830:	eef1fa10 	vmrs	APSR_nzcv, fpscr
   10834:	1affff7e 	bne	10634 <_dtoa_r+0x1014>
   10838:	ee162a10 	vmov	r2, s12
   1083c:	e3120001 	tst	r2, #1
   10840:	e58d501c 	str	r5, [sp, #28]
   10844:	0affff7b 	beq	10638 <_dtoa_r+0x1018>
   10848:	e5532001 	ldrb	r2, [r3, #-1]
   1084c:	e1a05003 	mov	r5, r3
   10850:	eafffc6e 	b	fa10 <_dtoa_r+0x3f0>
   10854:	e35b0039 	cmp	fp, #57	; 0x39
   10858:	e58d5020 	str	r5, [sp, #32]
   1085c:	e59d702c 	ldr	r7, [sp, #44]	; 0x2c
   10860:	e59d5030 	ldr	r5, [sp, #48]	; 0x30
   10864:	0a00000a 	beq	10894 <_dtoa_r+0x1274>
   10868:	e28b3001 	add	r3, fp, #1
   1086c:	e5c63000 	strb	r3, [r6]
   10870:	e59da020 	ldr	sl, [sp, #32]
   10874:	e2866001 	add	r6, r6, #1
   10878:	e58d9020 	str	r9, [sp, #32]
   1087c:	eafffe50 	b	101c4 <_dtoa_r+0xba4>
   10880:	e1a0a005 	mov	sl, r5
   10884:	e59d702c 	ldr	r7, [sp, #44]	; 0x2c
   10888:	e59d5030 	ldr	r5, [sp, #48]	; 0x30
   1088c:	e58d9020 	str	r9, [sp, #32]
   10890:	eafffe37 	b	10174 <_dtoa_r+0xb54>
   10894:	e3a02039 	mov	r2, #57	; 0x39
   10898:	e59da020 	ldr	sl, [sp, #32]
   1089c:	e5c62000 	strb	r2, [r6]
   108a0:	e58d9020 	str	r9, [sp, #32]
   108a4:	e2866001 	add	r6, r6, #1
   108a8:	eafffe3b 	b	1019c <_dtoa_r+0xb7c>
   108ac:	e35b0039 	cmp	fp, #57	; 0x39
   108b0:	e58d5020 	str	r5, [sp, #32]
   108b4:	e59d702c 	ldr	r7, [sp, #44]	; 0x2c
   108b8:	e59d5030 	ldr	r5, [sp, #48]	; 0x30
   108bc:	0afffff4 	beq	10894 <_dtoa_r+0x1274>
   108c0:	e35a0000 	cmp	sl, #0
   108c4:	caffffb0 	bgt	1078c <_dtoa_r+0x116c>
   108c8:	eaffffb1 	b	10794 <_dtoa_r+0x1174>
   108cc:	1affffb0 	bne	10794 <_dtoa_r+0x1174>
   108d0:	e31b0001 	tst	fp, #1
   108d4:	0affffae 	beq	10794 <_dtoa_r+0x1174>
   108d8:	eaffffa9 	b	10784 <_dtoa_r+0x1164>
   108dc:	1260003c 	rsbne	r0, r0, #60	; 0x3c
   108e0:	0afffccd 	beq	fc1c <_dtoa_r+0x5fc>
   108e4:	eafffcc5 	b	fc00 <_dtoa_r+0x5e0>
   108e8:	e35a0000 	cmp	sl, #0
   108ec:	0afffca8 	beq	fb94 <_dtoa_r+0x574>
   108f0:	eafffe47 	b	10214 <_dtoa_r+0xbf4>
   108f4:	e59d501c 	ldr	r5, [sp, #28]
   108f8:	eafffc0d 	b	f934 <_dtoa_r+0x314>
   108fc:	e3e03000 	mvn	r3, #0
   10900:	e58d3008 	str	r3, [sp, #8]
   10904:	eafffc11 	b	f950 <_dtoa_r+0x330>

00010908 <__sflags>:
   10908:	e5d13000 	ldrb	r3, [r1]
   1090c:	e3530072 	cmp	r3, #114	; 0x72
   10910:	e52de004 	push	{lr}		; (str lr, [sp, #-4]!)
   10914:	0a000025 	beq	109b0 <__sflags+0xa8>
   10918:	e3530077 	cmp	r3, #119	; 0x77
   1091c:	0a00001f 	beq	109a0 <__sflags+0x98>
   10920:	e3530061 	cmp	r3, #97	; 0x61
   10924:	0a000005 	beq	10940 <__sflags+0x38>
   10928:	e1a0c000 	mov	ip, r0
   1092c:	e3a03016 	mov	r3, #22
   10930:	e3a00000 	mov	r0, #0
   10934:	e58c3000 	str	r3, [ip]
   10938:	e49de004 	pop	{lr}		; (ldr lr, [sp], #4)
   1093c:	e12fff1e 	bx	lr
   10940:	e3a0ef82 	mov	lr, #520	; 0x208
   10944:	e3a0c001 	mov	ip, #1
   10948:	e3a00f42 	mov	r0, #264	; 0x108
   1094c:	e5f13001 	ldrb	r3, [r1, #1]!
   10950:	e3530000 	cmp	r3, #0
   10954:	0a00000d 	beq	10990 <__sflags+0x88>
   10958:	e3530062 	cmp	r3, #98	; 0x62
   1095c:	038cc801 	orreq	ip, ip, #65536	; 0x10000
   10960:	0afffff9 	beq	1094c <__sflags+0x44>
   10964:	e3530078 	cmp	r3, #120	; 0x78
   10968:	038ccb02 	orreq	ip, ip, #2048	; 0x800
   1096c:	0afffff6 	beq	1094c <__sflags+0x44>
   10970:	e353002b 	cmp	r3, #43	; 0x2b
   10974:	e5f13001 	ldrb	r3, [r1, #1]!
   10978:	03c0001c 	biceq	r0, r0, #28
   1097c:	03ccc003 	biceq	ip, ip, #3
   10980:	03800010 	orreq	r0, r0, #16
   10984:	038cc002 	orreq	ip, ip, #2
   10988:	e3530000 	cmp	r3, #0
   1098c:	1afffff1 	bne	10958 <__sflags+0x50>
   10990:	e18cc00e 	orr	ip, ip, lr
   10994:	e582c000 	str	ip, [r2]
   10998:	e49de004 	pop	{lr}		; (ldr lr, [sp], #4)
   1099c:	e12fff1e 	bx	lr
   109a0:	e3a0ec06 	mov	lr, #1536	; 0x600
   109a4:	e3a0c001 	mov	ip, #1
   109a8:	e3a00008 	mov	r0, #8
   109ac:	eaffffe6 	b	1094c <__sflags+0x44>
   109b0:	e3a0e000 	mov	lr, #0
   109b4:	e3a00004 	mov	r0, #4
   109b8:	e1a0c00e 	mov	ip, lr
   109bc:	eaffffe2 	b	1094c <__sflags+0x44>

000109c0 <__sfvwrite_r>:
   109c0:	e5923008 	ldr	r3, [r2, #8]
   109c4:	e3530000 	cmp	r3, #0
   109c8:	0a000083 	beq	10bdc <__sfvwrite_r+0x21c>
   109cc:	e92d4ff0 	push	{r4, r5, r6, r7, r8, r9, sl, fp, lr}
   109d0:	e1d130fc 	ldrsh	r3, [r1, #12]
   109d4:	e1a03803 	lsl	r3, r3, #16
   109d8:	e24dd00c 	sub	sp, sp, #12
   109dc:	e3130702 	tst	r3, #524288	; 0x80000
   109e0:	e1a04001 	mov	r4, r1
   109e4:	e58d0000 	str	r0, [sp]
   109e8:	e1a06002 	mov	r6, r2
   109ec:	e1a08823 	lsr	r8, r3, #16
   109f0:	0a000020 	beq	10a78 <__sfvwrite_r+0xb8>
   109f4:	e5912010 	ldr	r2, [r1, #16]
   109f8:	e3520000 	cmp	r2, #0
   109fc:	0a00001d 	beq	10a78 <__sfvwrite_r+0xb8>
   10a00:	e2189002 	ands	r9, r8, #2
   10a04:	e5965000 	ldr	r5, [r6]
   10a08:	0a000025 	beq	10aa4 <__sfvwrite_r+0xe4>
   10a0c:	e3a08000 	mov	r8, #0
   10a10:	e1a07008 	mov	r7, r8
   10a14:	e59f9468 	ldr	r9, [pc, #1128]	; 10e84 <__sfvwrite_r+0x4c4>
   10a18:	e3570000 	cmp	r7, #0
   10a1c:	0a00006a 	beq	10bcc <__sfvwrite_r+0x20c>
   10a20:	e1570009 	cmp	r7, r9
   10a24:	31a03007 	movcc	r3, r7
   10a28:	21a03009 	movcs	r3, r9
   10a2c:	e1a02008 	mov	r2, r8
   10a30:	e594101c 	ldr	r1, [r4, #28]
   10a34:	e59d0000 	ldr	r0, [sp]
   10a38:	e594c024 	ldr	ip, [r4, #36]	; 0x24
   10a3c:	e1a0e00f 	mov	lr, pc
   10a40:	e12fff1c 	bx	ip
   10a44:	e3500000 	cmp	r0, #0
   10a48:	da00006a 	ble	10bf8 <__sfvwrite_r+0x238>
   10a4c:	e5963008 	ldr	r3, [r6, #8]
   10a50:	e0603003 	rsb	r3, r0, r3
   10a54:	e3530000 	cmp	r3, #0
   10a58:	e0888000 	add	r8, r8, r0
   10a5c:	e0607007 	rsb	r7, r0, r7
   10a60:	e5863008 	str	r3, [r6, #8]
   10a64:	1affffeb 	bne	10a18 <__sfvwrite_r+0x58>
   10a68:	e3a00000 	mov	r0, #0
   10a6c:	e28dd00c 	add	sp, sp, #12
   10a70:	e8bd4ff0 	pop	{r4, r5, r6, r7, r8, r9, sl, fp, lr}
   10a74:	e12fff1e 	bx	lr
   10a78:	e1a01004 	mov	r1, r4
   10a7c:	e59d0000 	ldr	r0, [sp]
   10a80:	ebfffa07 	bl	f2a4 <__swsetup_r>
   10a84:	e3500000 	cmp	r0, #0
   10a88:	1a0000f6 	bne	10e68 <__sfvwrite_r+0x4a8>
   10a8c:	e1d430fc 	ldrsh	r3, [r4, #12]
   10a90:	e1a03803 	lsl	r3, r3, #16
   10a94:	e1a08823 	lsr	r8, r3, #16
   10a98:	e2189002 	ands	r9, r8, #2
   10a9c:	e5965000 	ldr	r5, [r6]
   10aa0:	1affffd9 	bne	10a0c <__sfvwrite_r+0x4c>
   10aa4:	e2188001 	ands	r8, r8, #1
   10aa8:	1a000059 	bne	10c14 <__sfvwrite_r+0x254>
   10aac:	e1a07008 	mov	r7, r8
   10ab0:	e3570000 	cmp	r7, #0
   10ab4:	0a000040 	beq	10bbc <__sfvwrite_r+0x1fc>
   10ab8:	e3130402 	tst	r3, #33554432	; 0x2000000
   10abc:	e5949008 	ldr	r9, [r4, #8]
   10ac0:	e1a03823 	lsr	r3, r3, #16
   10ac4:	0a000084 	beq	10cdc <__sfvwrite_r+0x31c>
   10ac8:	e1570009 	cmp	r7, r9
   10acc:	e1a0a009 	mov	sl, r9
   10ad0:	3a000097 	bcc	10d34 <__sfvwrite_r+0x374>
   10ad4:	e3130d12 	tst	r3, #1152	; 0x480
   10ad8:	0a000097 	beq	10d3c <__sfvwrite_r+0x37c>
   10adc:	e5941010 	ldr	r1, [r4, #16]
   10ae0:	e594a000 	ldr	sl, [r4]
   10ae4:	e5949014 	ldr	r9, [r4, #20]
   10ae8:	e061a00a 	rsb	sl, r1, sl
   10aec:	e0899089 	add	r9, r9, r9, lsl #1
   10af0:	e28a0001 	add	r0, sl, #1
   10af4:	e0899fa9 	add	r9, r9, r9, lsr #31
   10af8:	e1a090c9 	asr	r9, r9, #1
   10afc:	e0800007 	add	r0, r0, r7
   10b00:	e1500009 	cmp	r0, r9
   10b04:	e1a02009 	mov	r2, r9
   10b08:	81a09000 	movhi	r9, r0
   10b0c:	81a02009 	movhi	r2, r9
   10b10:	e3130b01 	tst	r3, #1024	; 0x400
   10b14:	0a0000c6 	beq	10e34 <__sfvwrite_r+0x474>
   10b18:	e1a01002 	mov	r1, r2
   10b1c:	e59d0000 	ldr	r0, [sp]
   10b20:	ebffebf7 	bl	bb04 <_malloc_r>
   10b24:	e250b000 	subs	fp, r0, #0
   10b28:	0a0000d0 	beq	10e70 <__sfvwrite_r+0x4b0>
   10b2c:	e1a0200a 	mov	r2, sl
   10b30:	e5941010 	ldr	r1, [r4, #16]
   10b34:	ebffee21 	bl	c3c0 <memcpy>
   10b38:	e1d430bc 	ldrh	r3, [r4, #12]
   10b3c:	e3c33d12 	bic	r3, r3, #1152	; 0x480
   10b40:	e3833080 	orr	r3, r3, #128	; 0x80
   10b44:	e1c430bc 	strh	r3, [r4, #12]
   10b48:	e08b000a 	add	r0, fp, sl
   10b4c:	e06aa009 	rsb	sl, sl, r9
   10b50:	e584a008 	str	sl, [r4, #8]
   10b54:	e5849014 	str	r9, [r4, #20]
   10b58:	e1a0a007 	mov	sl, r7
   10b5c:	e1a09007 	mov	r9, r7
   10b60:	e584b010 	str	fp, [r4, #16]
   10b64:	e5840000 	str	r0, [r4]
   10b68:	e1a0200a 	mov	r2, sl
   10b6c:	e1a01008 	mov	r1, r8
   10b70:	eb0000fb 	bl	10f64 <memmove>
   10b74:	e5940008 	ldr	r0, [r4, #8]
   10b78:	e0699000 	rsb	r9, r9, r0
   10b7c:	e1a00007 	mov	r0, r7
   10b80:	e5942000 	ldr	r2, [r4]
   10b84:	e082200a 	add	r2, r2, sl
   10b88:	e5849008 	str	r9, [r4, #8]
   10b8c:	e5842000 	str	r2, [r4]
   10b90:	e5963008 	ldr	r3, [r6, #8]
   10b94:	e0603003 	rsb	r3, r0, r3
   10b98:	e3530000 	cmp	r3, #0
   10b9c:	e0888000 	add	r8, r8, r0
   10ba0:	e0607007 	rsb	r7, r0, r7
   10ba4:	e5863008 	str	r3, [r6, #8]
   10ba8:	0affffae 	beq	10a68 <__sfvwrite_r+0xa8>
   10bac:	e1d430fc 	ldrsh	r3, [r4, #12]
   10bb0:	e3570000 	cmp	r7, #0
   10bb4:	e1a03803 	lsl	r3, r3, #16
   10bb8:	1affffbe 	bne	10ab8 <__sfvwrite_r+0xf8>
   10bbc:	e5958000 	ldr	r8, [r5]
   10bc0:	e5957004 	ldr	r7, [r5, #4]
   10bc4:	e2855008 	add	r5, r5, #8
   10bc8:	eaffffb8 	b	10ab0 <__sfvwrite_r+0xf0>
   10bcc:	e5958000 	ldr	r8, [r5]
   10bd0:	e5957004 	ldr	r7, [r5, #4]
   10bd4:	e2855008 	add	r5, r5, #8
   10bd8:	eaffff8e 	b	10a18 <__sfvwrite_r+0x58>
   10bdc:	e3a00000 	mov	r0, #0
   10be0:	e12fff1e 	bx	lr
   10be4:	e1a01004 	mov	r1, r4
   10be8:	e59d0000 	ldr	r0, [sp]
   10bec:	ebffe752 	bl	a93c <_fflush_r>
   10bf0:	e3500000 	cmp	r0, #0
   10bf4:	0a00004c 	beq	10d2c <__sfvwrite_r+0x36c>
   10bf8:	e1d430fc 	ldrsh	r3, [r4, #12]
   10bfc:	e3e00000 	mvn	r0, #0
   10c00:	e3833040 	orr	r3, r3, #64	; 0x40
   10c04:	e1c430bc 	strh	r3, [r4, #12]
   10c08:	e28dd00c 	add	sp, sp, #12
   10c0c:	e8bd4ff0 	pop	{r4, r5, r6, r7, r8, r9, sl, fp, lr}
   10c10:	e12fff1e 	bx	lr
   10c14:	e1a0b009 	mov	fp, r9
   10c18:	e1a0a009 	mov	sl, r9
   10c1c:	e1a08009 	mov	r8, r9
   10c20:	e3580000 	cmp	r8, #0
   10c24:	0a000027 	beq	10cc8 <__sfvwrite_r+0x308>
   10c28:	e35b0000 	cmp	fp, #0
   10c2c:	0a000056 	beq	10d8c <__sfvwrite_r+0x3cc>
   10c30:	e1590008 	cmp	r9, r8
   10c34:	31a01009 	movcc	r1, r9
   10c38:	21a01008 	movcs	r1, r8
   10c3c:	e5942010 	ldr	r2, [r4, #16]
   10c40:	e594c014 	ldr	ip, [r4, #20]
   10c44:	e5943008 	ldr	r3, [r4, #8]
   10c48:	e5940000 	ldr	r0, [r4]
   10c4c:	e08c3003 	add	r3, ip, r3
   10c50:	e1500002 	cmp	r0, r2
   10c54:	93a02000 	movls	r2, #0
   10c58:	83a02001 	movhi	r2, #1
   10c5c:	e1510003 	cmp	r1, r3
   10c60:	d3a02000 	movle	r2, #0
   10c64:	e3520000 	cmp	r2, #0
   10c68:	e1a07001 	mov	r7, r1
   10c6c:	1a000060 	bne	10df4 <__sfvwrite_r+0x434>
   10c70:	e151000c 	cmp	r1, ip
   10c74:	ba000032 	blt	10d44 <__sfvwrite_r+0x384>
   10c78:	e1a0300c 	mov	r3, ip
   10c7c:	e1a0200a 	mov	r2, sl
   10c80:	e594101c 	ldr	r1, [r4, #28]
   10c84:	e59d0000 	ldr	r0, [sp]
   10c88:	e594c024 	ldr	ip, [r4, #36]	; 0x24
   10c8c:	e1a0e00f 	mov	lr, pc
   10c90:	e12fff1c 	bx	ip
   10c94:	e2507000 	subs	r7, r0, #0
   10c98:	daffffd6 	ble	10bf8 <__sfvwrite_r+0x238>
   10c9c:	e0599007 	subs	r9, r9, r7
   10ca0:	0a000032 	beq	10d70 <__sfvwrite_r+0x3b0>
   10ca4:	e5963008 	ldr	r3, [r6, #8]
   10ca8:	e0673003 	rsb	r3, r7, r3
   10cac:	e3530000 	cmp	r3, #0
   10cb0:	e08aa007 	add	sl, sl, r7
   10cb4:	e0678008 	rsb	r8, r7, r8
   10cb8:	e5863008 	str	r3, [r6, #8]
   10cbc:	0affff69 	beq	10a68 <__sfvwrite_r+0xa8>
   10cc0:	e3580000 	cmp	r8, #0
   10cc4:	1affffd7 	bne	10c28 <__sfvwrite_r+0x268>
   10cc8:	e595a000 	ldr	sl, [r5]
   10ccc:	e5958004 	ldr	r8, [r5, #4]
   10cd0:	e3a0b000 	mov	fp, #0
   10cd4:	e2855008 	add	r5, r5, #8
   10cd8:	eaffffd0 	b	10c20 <__sfvwrite_r+0x260>
   10cdc:	e5940000 	ldr	r0, [r4]
   10ce0:	e5943010 	ldr	r3, [r4, #16]
   10ce4:	e1500003 	cmp	r0, r3
   10ce8:	8a000002 	bhi	10cf8 <__sfvwrite_r+0x338>
   10cec:	e594a014 	ldr	sl, [r4, #20]
   10cf0:	e157000a 	cmp	r7, sl
   10cf4:	2a00002f 	bcs	10db8 <__sfvwrite_r+0x3f8>
   10cf8:	e1590007 	cmp	r9, r7
   10cfc:	21a09007 	movcs	r9, r7
   10d00:	e1a01008 	mov	r1, r8
   10d04:	e1a02009 	mov	r2, r9
   10d08:	eb000095 	bl	10f64 <memmove>
   10d0c:	e5943008 	ldr	r3, [r4, #8]
   10d10:	e5942000 	ldr	r2, [r4]
   10d14:	e0693003 	rsb	r3, r9, r3
   10d18:	e0822009 	add	r2, r2, r9
   10d1c:	e3530000 	cmp	r3, #0
   10d20:	e5843008 	str	r3, [r4, #8]
   10d24:	e5842000 	str	r2, [r4]
   10d28:	0affffad 	beq	10be4 <__sfvwrite_r+0x224>
   10d2c:	e1a00009 	mov	r0, r9
   10d30:	eaffff96 	b	10b90 <__sfvwrite_r+0x1d0>
   10d34:	e1a09007 	mov	r9, r7
   10d38:	e1a0a007 	mov	sl, r7
   10d3c:	e5940000 	ldr	r0, [r4]
   10d40:	eaffff88 	b	10b68 <__sfvwrite_r+0x1a8>
   10d44:	e1a02001 	mov	r2, r1
   10d48:	e1a0100a 	mov	r1, sl
   10d4c:	eb000084 	bl	10f64 <memmove>
   10d50:	e5942008 	ldr	r2, [r4, #8]
   10d54:	e5943000 	ldr	r3, [r4]
   10d58:	e0672002 	rsb	r2, r7, r2
   10d5c:	e0833007 	add	r3, r3, r7
   10d60:	e0599007 	subs	r9, r9, r7
   10d64:	e5842008 	str	r2, [r4, #8]
   10d68:	e5843000 	str	r3, [r4]
   10d6c:	1affffcc 	bne	10ca4 <__sfvwrite_r+0x2e4>
   10d70:	e1a01004 	mov	r1, r4
   10d74:	e59d0000 	ldr	r0, [sp]
   10d78:	ebffe6ef 	bl	a93c <_fflush_r>
   10d7c:	e3500000 	cmp	r0, #0
   10d80:	1affff9c 	bne	10bf8 <__sfvwrite_r+0x238>
   10d84:	e1a0b009 	mov	fp, r9
   10d88:	eaffffc5 	b	10ca4 <__sfvwrite_r+0x2e4>
   10d8c:	e1a02008 	mov	r2, r8
   10d90:	e3a0100a 	mov	r1, #10
   10d94:	e1a0000a 	mov	r0, sl
   10d98:	ebffed43 	bl	c2ac <memchr>
   10d9c:	e3500000 	cmp	r0, #0
   10da0:	03a0b001 	moveq	fp, #1
   10da4:	12800001 	addne	r0, r0, #1
   10da8:	106a9000 	rsbne	r9, sl, r0
   10dac:	13a0b001 	movne	fp, #1
   10db0:	0088900b 	addeq	r9, r8, fp
   10db4:	eaffff9d 	b	10c30 <__sfvwrite_r+0x270>
   10db8:	e3770106 	cmn	r7, #-2147483647	; 0x80000001
   10dbc:	31a00007 	movcc	r0, r7
   10dc0:	23e00102 	mvncs	r0, #-2147483648	; 0x80000000
   10dc4:	e1a0100a 	mov	r1, sl
   10dc8:	ebffe5b0 	bl	a490 <__aeabi_idiv>
   10dcc:	e1a02008 	mov	r2, r8
   10dd0:	e003009a 	mul	r3, sl, r0
   10dd4:	e594101c 	ldr	r1, [r4, #28]
   10dd8:	e59d0000 	ldr	r0, [sp]
   10ddc:	e594c024 	ldr	ip, [r4, #36]	; 0x24
   10de0:	e1a0e00f 	mov	lr, pc
   10de4:	e12fff1c 	bx	ip
   10de8:	e3500000 	cmp	r0, #0
   10dec:	caffff67 	bgt	10b90 <__sfvwrite_r+0x1d0>
   10df0:	eaffff80 	b	10bf8 <__sfvwrite_r+0x238>
   10df4:	e1a02003 	mov	r2, r3
   10df8:	e1a0100a 	mov	r1, sl
   10dfc:	e58d3004 	str	r3, [sp, #4]
   10e00:	eb000057 	bl	10f64 <memmove>
   10e04:	e5942000 	ldr	r2, [r4]
   10e08:	e59d3004 	ldr	r3, [sp, #4]
   10e0c:	e0822003 	add	r2, r2, r3
   10e10:	e5842000 	str	r2, [r4]
   10e14:	e1a01004 	mov	r1, r4
   10e18:	e59d0000 	ldr	r0, [sp]
   10e1c:	ebffe6c6 	bl	a93c <_fflush_r>
   10e20:	e3500000 	cmp	r0, #0
   10e24:	e59d3004 	ldr	r3, [sp, #4]
   10e28:	1affff72 	bne	10bf8 <__sfvwrite_r+0x238>
   10e2c:	e1a07003 	mov	r7, r3
   10e30:	eaffff99 	b	10c9c <__sfvwrite_r+0x2dc>
   10e34:	e59d0000 	ldr	r0, [sp]
   10e38:	eb00040d 	bl	11e74 <_realloc_r>
   10e3c:	e250b000 	subs	fp, r0, #0
   10e40:	1affff40 	bne	10b48 <__sfvwrite_r+0x188>
   10e44:	e59d5000 	ldr	r5, [sp]
   10e48:	e5941010 	ldr	r1, [r4, #16]
   10e4c:	e1a00005 	mov	r0, r5
   10e50:	ebffe885 	bl	b06c <_free_r>
   10e54:	e3a0200c 	mov	r2, #12
   10e58:	e1d430fc 	ldrsh	r3, [r4, #12]
   10e5c:	e5852000 	str	r2, [r5]
   10e60:	e3c33080 	bic	r3, r3, #128	; 0x80
   10e64:	eaffff64 	b	10bfc <__sfvwrite_r+0x23c>
   10e68:	e3e00000 	mvn	r0, #0
   10e6c:	eafffefe 	b	10a6c <__sfvwrite_r+0xac>
   10e70:	e3a0200c 	mov	r2, #12
   10e74:	e59d1000 	ldr	r1, [sp]
   10e78:	e1d430fc 	ldrsh	r3, [r4, #12]
   10e7c:	e5812000 	str	r2, [r1]
   10e80:	eaffff5d 	b	10bfc <__sfvwrite_r+0x23c>
   10e84:	7ffffc00 	svcvc	0x00fffc00

00010e88 <_isatty_r>:
   10e88:	e3a03000 	mov	r3, #0
   10e8c:	e92d4070 	push	{r4, r5, r6, lr}
   10e90:	e59f4028 	ldr	r4, [pc, #40]	; 10ec0 <_isatty_r+0x38>
   10e94:	e1a05000 	mov	r5, r0
   10e98:	e1a00001 	mov	r0, r1
   10e9c:	e5843000 	str	r3, [r4]
   10ea0:	ebffe0bf 	bl	91a4 <_isatty>
   10ea4:	e3700001 	cmn	r0, #1
   10ea8:	1a000002 	bne	10eb8 <_isatty_r+0x30>
   10eac:	e5943000 	ldr	r3, [r4]
   10eb0:	e3530000 	cmp	r3, #0
   10eb4:	15853000 	strne	r3, [r5]
   10eb8:	e8bd4070 	pop	{r4, r5, r6, lr}
   10ebc:	e12fff1e 	bx	lr
   10ec0:	0001f834 	andeq	pc, r1, r4, lsr r8	; <UNPREDICTABLE>

00010ec4 <__localeconv_l>:
   10ec4:	e28000f0 	add	r0, r0, #240	; 0xf0
   10ec8:	e12fff1e 	bx	lr

00010ecc <_localeconv_r>:
   10ecc:	e59f3018 	ldr	r3, [pc, #24]	; 10eec <_localeconv_r+0x20>
   10ed0:	e5932000 	ldr	r2, [r3]
   10ed4:	e5920034 	ldr	r0, [r2, #52]	; 0x34
   10ed8:	e59f3010 	ldr	r3, [pc, #16]	; 10ef0 <_localeconv_r+0x24>
   10edc:	e3500000 	cmp	r0, #0
   10ee0:	01a00003 	moveq	r0, r3
   10ee4:	e28000f0 	add	r0, r0, #240	; 0xf0
   10ee8:	e12fff1e 	bx	lr
   10eec:	00016fb8 			; <UNDEFINED> instruction: 0x00016fb8
   10ef0:	000173cc 	andeq	r7, r1, ip, asr #7

00010ef4 <localeconv>:
   10ef4:	e59f3018 	ldr	r3, [pc, #24]	; 10f14 <localeconv+0x20>
   10ef8:	e5932000 	ldr	r2, [r3]
   10efc:	e5920034 	ldr	r0, [r2, #52]	; 0x34
   10f00:	e59f3010 	ldr	r3, [pc, #16]	; 10f18 <localeconv+0x24>
   10f04:	e3500000 	cmp	r0, #0
   10f08:	01a00003 	moveq	r0, r3
   10f0c:	e28000f0 	add	r0, r0, #240	; 0xf0
   10f10:	e12fff1e 	bx	lr
   10f14:	00016fb8 			; <UNDEFINED> instruction: 0x00016fb8
   10f18:	000173cc 	andeq	r7, r1, ip, asr #7

00010f1c <_lseek_r>:
   10f1c:	e92d4070 	push	{r4, r5, r6, lr}
   10f20:	e1a0e001 	mov	lr, r1
   10f24:	e3a0c000 	mov	ip, #0
   10f28:	e59f4030 	ldr	r4, [pc, #48]	; 10f60 <_lseek_r+0x44>
   10f2c:	e1a01002 	mov	r1, r2
   10f30:	e1a05000 	mov	r5, r0
   10f34:	e1a02003 	mov	r2, r3
   10f38:	e1a0000e 	mov	r0, lr
   10f3c:	e584c000 	str	ip, [r4]
   10f40:	ebffe05a 	bl	90b0 <_lseek>
   10f44:	e3700001 	cmn	r0, #1
   10f48:	1a000002 	bne	10f58 <_lseek_r+0x3c>
   10f4c:	e5943000 	ldr	r3, [r4]
   10f50:	e3530000 	cmp	r3, #0
   10f54:	15853000 	strne	r3, [r5]
   10f58:	e8bd4070 	pop	{r4, r5, r6, lr}
   10f5c:	e12fff1e 	bx	lr
   10f60:	0001f834 	andeq	pc, r1, r4, lsr r8	; <UNPREDICTABLE>

00010f64 <memmove>:
   10f64:	e1500001 	cmp	r0, r1
   10f68:	e92d4070 	push	{r4, r5, r6, lr}
   10f6c:	9a00000c 	bls	10fa4 <memmove+0x40>
   10f70:	e0813002 	add	r3, r1, r2
   10f74:	e1500003 	cmp	r0, r3
   10f78:	2a000009 	bcs	10fa4 <memmove+0x40>
   10f7c:	e3520000 	cmp	r2, #0
   10f80:	e0801002 	add	r1, r0, r2
   10f84:	0a000004 	beq	10f9c <memmove+0x38>
   10f88:	e0622003 	rsb	r2, r2, r3
   10f8c:	e573c001 	ldrb	ip, [r3, #-1]!
   10f90:	e1530002 	cmp	r3, r2
   10f94:	e561c001 	strb	ip, [r1, #-1]!
   10f98:	1afffffb 	bne	10f8c <memmove+0x28>
   10f9c:	e8bd4070 	pop	{r4, r5, r6, lr}
   10fa0:	e12fff1e 	bx	lr
   10fa4:	e352000f 	cmp	r2, #15
   10fa8:	8a00000a 	bhi	10fd8 <memmove+0x74>
   10fac:	e1a03000 	mov	r3, r0
   10fb0:	e3520000 	cmp	r2, #0
   10fb4:	0afffff8 	beq	10f9c <memmove+0x38>
   10fb8:	e2433001 	sub	r3, r3, #1
   10fbc:	e0812002 	add	r2, r1, r2
   10fc0:	e4d1c001 	ldrb	ip, [r1], #1
   10fc4:	e1520001 	cmp	r2, r1
   10fc8:	e5e3c001 	strb	ip, [r3, #1]!
   10fcc:	1afffffb 	bne	10fc0 <memmove+0x5c>
   10fd0:	e8bd4070 	pop	{r4, r5, r6, lr}
   10fd4:	e12fff1e 	bx	lr
   10fd8:	e1813000 	orr	r3, r1, r0
   10fdc:	e3130003 	tst	r3, #3
   10fe0:	1a000026 	bne	11080 <memmove+0x11c>
   10fe4:	e1a0e002 	mov	lr, r2
   10fe8:	e280c010 	add	ip, r0, #16
   10fec:	e2813010 	add	r3, r1, #16
   10ff0:	e5134010 	ldr	r4, [r3, #-16]
   10ff4:	e50c4010 	str	r4, [ip, #-16]
   10ff8:	e513400c 	ldr	r4, [r3, #-12]
   10ffc:	e50c400c 	str	r4, [ip, #-12]
   11000:	e5134008 	ldr	r4, [r3, #-8]
   11004:	e50c4008 	str	r4, [ip, #-8]
   11008:	e24ee010 	sub	lr, lr, #16
   1100c:	e5134004 	ldr	r4, [r3, #-4]
   11010:	e35e000f 	cmp	lr, #15
   11014:	e50c4004 	str	r4, [ip, #-4]
   11018:	e2833010 	add	r3, r3, #16
   1101c:	e28cc010 	add	ip, ip, #16
   11020:	8afffff2 	bhi	10ff0 <memmove+0x8c>
   11024:	e2423010 	sub	r3, r2, #16
   11028:	e3c3300f 	bic	r3, r3, #15
   1102c:	e202600f 	and	r6, r2, #15
   11030:	e2833010 	add	r3, r3, #16
   11034:	e3560003 	cmp	r6, #3
   11038:	e0811003 	add	r1, r1, r3
   1103c:	e0803003 	add	r3, r0, r3
   11040:	9a000010 	bls	11088 <memmove+0x124>
   11044:	e1a04001 	mov	r4, r1
   11048:	e1a0c006 	mov	ip, r6
   1104c:	e243e004 	sub	lr, r3, #4
   11050:	e24cc004 	sub	ip, ip, #4
   11054:	e4945004 	ldr	r5, [r4], #4
   11058:	e35c0003 	cmp	ip, #3
   1105c:	e5ae5004 	str	r5, [lr, #4]!
   11060:	8afffffa 	bhi	11050 <memmove+0xec>
   11064:	e246c004 	sub	ip, r6, #4
   11068:	e3ccc003 	bic	ip, ip, #3
   1106c:	e28cc004 	add	ip, ip, #4
   11070:	e083300c 	add	r3, r3, ip
   11074:	e081100c 	add	r1, r1, ip
   11078:	e2022003 	and	r2, r2, #3
   1107c:	eaffffcb 	b	10fb0 <memmove+0x4c>
   11080:	e1a03000 	mov	r3, r0
   11084:	eaffffcb 	b	10fb8 <memmove+0x54>
   11088:	e1a02006 	mov	r2, r6
   1108c:	eaffffc7 	b	10fb0 <memmove+0x4c>

00011090 <_Balloc>:
   11090:	e590204c 	ldr	r2, [r0, #76]	; 0x4c
   11094:	e3520000 	cmp	r2, #0
   11098:	e92d4070 	push	{r4, r5, r6, lr}
   1109c:	e1a05000 	mov	r5, r0
   110a0:	e1a04001 	mov	r4, r1
   110a4:	0a00000a 	beq	110d4 <_Balloc+0x44>
   110a8:	e7923104 	ldr	r3, [r2, r4, lsl #2]
   110ac:	e3530000 	cmp	r3, #0
   110b0:	0a000010 	beq	110f8 <_Balloc+0x68>
   110b4:	e5931000 	ldr	r1, [r3]
   110b8:	e7821104 	str	r1, [r2, r4, lsl #2]
   110bc:	e3a02000 	mov	r2, #0
   110c0:	e1a00003 	mov	r0, r3
   110c4:	e5832010 	str	r2, [r3, #16]
   110c8:	e583200c 	str	r2, [r3, #12]
   110cc:	e8bd4070 	pop	{r4, r5, r6, lr}
   110d0:	e12fff1e 	bx	lr
   110d4:	e3a02021 	mov	r2, #33	; 0x21
   110d8:	e3a01004 	mov	r1, #4
   110dc:	eb000a7f 	bl	13ae0 <_calloc_r>
   110e0:	e3500000 	cmp	r0, #0
   110e4:	e585004c 	str	r0, [r5, #76]	; 0x4c
   110e8:	11a02000 	movne	r2, r0
   110ec:	1affffed 	bne	110a8 <_Balloc+0x18>
   110f0:	e3a00000 	mov	r0, #0
   110f4:	eafffff4 	b	110cc <_Balloc+0x3c>
   110f8:	e3a01001 	mov	r1, #1
   110fc:	e1a06411 	lsl	r6, r1, r4
   11100:	e2862005 	add	r2, r6, #5
   11104:	e1a00005 	mov	r0, r5
   11108:	e1a02102 	lsl	r2, r2, #2
   1110c:	eb000a73 	bl	13ae0 <_calloc_r>
   11110:	e2503000 	subs	r3, r0, #0
   11114:	0afffff5 	beq	110f0 <_Balloc+0x60>
   11118:	e9830050 	stmib	r3, {r4, r6}
   1111c:	eaffffe6 	b	110bc <_Balloc+0x2c>

00011120 <_Bfree>:
   11120:	e3510000 	cmp	r1, #0
   11124:	1590304c 	ldrne	r3, [r0, #76]	; 0x4c
   11128:	15912004 	ldrne	r2, [r1, #4]
   1112c:	17930102 	ldrne	r0, [r3, r2, lsl #2]
   11130:	15810000 	strne	r0, [r1]
   11134:	17831102 	strne	r1, [r3, r2, lsl #2]
   11138:	e12fff1e 	bx	lr

0001113c <__multadd>:
   1113c:	e92d40f0 	push	{r4, r5, r6, r7, lr}
   11140:	e1a04001 	mov	r4, r1
   11144:	e1a05000 	mov	r5, r0
   11148:	e3a0e000 	mov	lr, #0
   1114c:	e5916010 	ldr	r6, [r1, #16]
   11150:	e24dd00c 	sub	sp, sp, #12
   11154:	e281c014 	add	ip, r1, #20
   11158:	e59c0000 	ldr	r0, [ip]
   1115c:	e1a01800 	lsl	r1, r0, #16
   11160:	e1a01821 	lsr	r1, r1, #16
   11164:	e0213192 	mla	r1, r2, r1, r3
   11168:	e1a00820 	lsr	r0, r0, #16
   1116c:	e1a03821 	lsr	r3, r1, #16
   11170:	e0233092 	mla	r3, r2, r0, r3
   11174:	e1a00801 	lsl	r0, r1, #16
   11178:	e28ee001 	add	lr, lr, #1
   1117c:	e1a00820 	lsr	r0, r0, #16
   11180:	e0800803 	add	r0, r0, r3, lsl #16
   11184:	e156000e 	cmp	r6, lr
   11188:	e48c0004 	str	r0, [ip], #4
   1118c:	e1a03823 	lsr	r3, r3, #16
   11190:	cafffff0 	bgt	11158 <__multadd+0x1c>
   11194:	e3530000 	cmp	r3, #0
   11198:	0a000006 	beq	111b8 <__multadd+0x7c>
   1119c:	e5942008 	ldr	r2, [r4, #8]
   111a0:	e1560002 	cmp	r6, r2
   111a4:	aa000007 	bge	111c8 <__multadd+0x8c>
   111a8:	e0842106 	add	r2, r4, r6, lsl #2
   111ac:	e2866001 	add	r6, r6, #1
   111b0:	e5823014 	str	r3, [r2, #20]
   111b4:	e5846010 	str	r6, [r4, #16]
   111b8:	e1a00004 	mov	r0, r4
   111bc:	e28dd00c 	add	sp, sp, #12
   111c0:	e8bd40f0 	pop	{r4, r5, r6, r7, lr}
   111c4:	e12fff1e 	bx	lr
   111c8:	e5941004 	ldr	r1, [r4, #4]
   111cc:	e1a00005 	mov	r0, r5
   111d0:	e2811001 	add	r1, r1, #1
   111d4:	e58d3004 	str	r3, [sp, #4]
   111d8:	ebffffac 	bl	11090 <_Balloc>
   111dc:	e1a07000 	mov	r7, r0
   111e0:	e5942010 	ldr	r2, [r4, #16]
   111e4:	e2822002 	add	r2, r2, #2
   111e8:	e284100c 	add	r1, r4, #12
   111ec:	e1a02102 	lsl	r2, r2, #2
   111f0:	e280000c 	add	r0, r0, #12
   111f4:	ebffec71 	bl	c3c0 <memcpy>
   111f8:	e595204c 	ldr	r2, [r5, #76]	; 0x4c
   111fc:	e5941004 	ldr	r1, [r4, #4]
   11200:	e7920101 	ldr	r0, [r2, r1, lsl #2]
   11204:	e59d3004 	ldr	r3, [sp, #4]
   11208:	e5840000 	str	r0, [r4]
   1120c:	e7824101 	str	r4, [r2, r1, lsl #2]
   11210:	e1a04007 	mov	r4, r7
   11214:	eaffffe3 	b	111a8 <__multadd+0x6c>

00011218 <__s2b>:
   11218:	e59fc0dc 	ldr	ip, [pc, #220]	; 112fc <__s2b+0xe4>
   1121c:	e92d47f0 	push	{r4, r5, r6, r7, r8, r9, sl, lr}
   11220:	e1a06003 	mov	r6, r3
   11224:	e2833008 	add	r3, r3, #8
   11228:	e0ccec93 	smull	lr, ip, r3, ip
   1122c:	e1a03fc3 	asr	r3, r3, #31
   11230:	e063c0cc 	rsb	ip, r3, ip, asr #1
   11234:	e35c0001 	cmp	ip, #1
   11238:	e1a05000 	mov	r5, r0
   1123c:	e1a04001 	mov	r4, r1
   11240:	e1a07002 	mov	r7, r2
   11244:	e59d8020 	ldr	r8, [sp, #32]
   11248:	da000029 	ble	112f4 <__s2b+0xdc>
   1124c:	e3a03001 	mov	r3, #1
   11250:	e3a01000 	mov	r1, #0
   11254:	e1a03083 	lsl	r3, r3, #1
   11258:	e15c0003 	cmp	ip, r3
   1125c:	e2811001 	add	r1, r1, #1
   11260:	cafffffb 	bgt	11254 <__s2b+0x3c>
   11264:	e1a00005 	mov	r0, r5
   11268:	ebffff88 	bl	11090 <_Balloc>
   1126c:	e3a03001 	mov	r3, #1
   11270:	e3570009 	cmp	r7, #9
   11274:	e5808014 	str	r8, [r0, #20]
   11278:	e5803010 	str	r3, [r0, #16]
   1127c:	d3a07009 	movle	r7, #9
   11280:	d284400a 	addle	r4, r4, #10
   11284:	da00000c 	ble	112bc <__s2b+0xa4>
   11288:	e2849009 	add	r9, r4, #9
   1128c:	e1a08009 	mov	r8, r9
   11290:	e0844007 	add	r4, r4, r7
   11294:	e4d83001 	ldrb	r3, [r8], #1
   11298:	e1a01000 	mov	r1, r0
   1129c:	e2433030 	sub	r3, r3, #48	; 0x30
   112a0:	e3a0200a 	mov	r2, #10
   112a4:	e1a00005 	mov	r0, r5
   112a8:	ebffffa3 	bl	1113c <__multadd>
   112ac:	e1580004 	cmp	r8, r4
   112b0:	1afffff7 	bne	11294 <__s2b+0x7c>
   112b4:	e0894007 	add	r4, r9, r7
   112b8:	e2444008 	sub	r4, r4, #8
   112bc:	e1560007 	cmp	r6, r7
   112c0:	da000009 	ble	112ec <__s2b+0xd4>
   112c4:	e0676006 	rsb	r6, r7, r6
   112c8:	e0846006 	add	r6, r4, r6
   112cc:	e4d43001 	ldrb	r3, [r4], #1
   112d0:	e1a01000 	mov	r1, r0
   112d4:	e2433030 	sub	r3, r3, #48	; 0x30
   112d8:	e3a0200a 	mov	r2, #10
   112dc:	e1a00005 	mov	r0, r5
   112e0:	ebffff95 	bl	1113c <__multadd>
   112e4:	e1560004 	cmp	r6, r4
   112e8:	1afffff7 	bne	112cc <__s2b+0xb4>
   112ec:	e8bd47f0 	pop	{r4, r5, r6, r7, r8, r9, sl, lr}
   112f0:	e12fff1e 	bx	lr
   112f4:	e3a01000 	mov	r1, #0
   112f8:	eaffffd9 	b	11264 <__s2b+0x4c>
   112fc:	38e38e39 	stmiacc	r3!, {r0, r3, r4, r5, r9, sl, fp, pc}^

00011300 <__hi0bits>:
   11300:	e1b03820 	lsrs	r3, r0, #16
   11304:	03a03010 	moveq	r3, #16
   11308:	01a00800 	lsleq	r0, r0, #16
   1130c:	13a03000 	movne	r3, #0
   11310:	e31004ff 	tst	r0, #-16777216	; 0xff000000
   11314:	01a00400 	lsleq	r0, r0, #8
   11318:	02833008 	addeq	r3, r3, #8
   1131c:	e310020f 	tst	r0, #-268435456	; 0xf0000000
   11320:	01a00200 	lsleq	r0, r0, #4
   11324:	02833004 	addeq	r3, r3, #4
   11328:	e3100103 	tst	r0, #-1073741824	; 0xc0000000
   1132c:	01a00100 	lsleq	r0, r0, #2
   11330:	02833002 	addeq	r3, r3, #2
   11334:	e3500000 	cmp	r0, #0
   11338:	ba000005 	blt	11354 <__hi0bits+0x54>
   1133c:	e3100101 	tst	r0, #1073741824	; 0x40000000
   11340:	1a000001 	bne	1134c <__hi0bits+0x4c>
   11344:	e3a00020 	mov	r0, #32
   11348:	e12fff1e 	bx	lr
   1134c:	e2830001 	add	r0, r3, #1
   11350:	e12fff1e 	bx	lr
   11354:	e1a00003 	mov	r0, r3
   11358:	e12fff1e 	bx	lr

0001135c <__lo0bits>:
   1135c:	e5903000 	ldr	r3, [r0]
   11360:	e2132007 	ands	r2, r3, #7
   11364:	0a000009 	beq	11390 <__lo0bits+0x34>
   11368:	e3130001 	tst	r3, #1
   1136c:	1a00001d 	bne	113e8 <__lo0bits+0x8c>
   11370:	e3130002 	tst	r3, #2
   11374:	11a030a3 	lsrne	r3, r3, #1
   11378:	01a03123 	lsreq	r3, r3, #2
   1137c:	15803000 	strne	r3, [r0]
   11380:	05803000 	streq	r3, [r0]
   11384:	13a00001 	movne	r0, #1
   11388:	03a00002 	moveq	r0, #2
   1138c:	e12fff1e 	bx	lr
   11390:	e1b01803 	lsls	r1, r3, #16
   11394:	03a02010 	moveq	r2, #16
   11398:	01a03823 	lsreq	r3, r3, #16
   1139c:	e31300ff 	tst	r3, #255	; 0xff
   113a0:	01a03423 	lsreq	r3, r3, #8
   113a4:	02822008 	addeq	r2, r2, #8
   113a8:	e313000f 	tst	r3, #15
   113ac:	01a03223 	lsreq	r3, r3, #4
   113b0:	02822004 	addeq	r2, r2, #4
   113b4:	e3130003 	tst	r3, #3
   113b8:	01a03123 	lsreq	r3, r3, #2
   113bc:	02822002 	addeq	r2, r2, #2
   113c0:	e3130001 	tst	r3, #1
   113c4:	1a000004 	bne	113dc <__lo0bits+0x80>
   113c8:	e1b030a3 	lsrs	r3, r3, #1
   113cc:	1a000001 	bne	113d8 <__lo0bits+0x7c>
   113d0:	e3a00020 	mov	r0, #32
   113d4:	e12fff1e 	bx	lr
   113d8:	e2822001 	add	r2, r2, #1
   113dc:	e5803000 	str	r3, [r0]
   113e0:	e1a00002 	mov	r0, r2
   113e4:	e12fff1e 	bx	lr
   113e8:	e3a00000 	mov	r0, #0
   113ec:	e12fff1e 	bx	lr

000113f0 <__i2b>:
   113f0:	e92d4010 	push	{r4, lr}
   113f4:	e1a04001 	mov	r4, r1
   113f8:	e3a01001 	mov	r1, #1
   113fc:	ebffff23 	bl	11090 <_Balloc>
   11400:	e3a02001 	mov	r2, #1
   11404:	e5804014 	str	r4, [r0, #20]
   11408:	e5802010 	str	r2, [r0, #16]
   1140c:	e8bd4010 	pop	{r4, lr}
   11410:	e12fff1e 	bx	lr

00011414 <__multiply>:
   11414:	e92d4ff0 	push	{r4, r5, r6, r7, r8, r9, sl, fp, lr}
   11418:	e5919010 	ldr	r9, [r1, #16]
   1141c:	e5926010 	ldr	r6, [r2, #16]
   11420:	e1590006 	cmp	r9, r6
   11424:	e24dd014 	sub	sp, sp, #20
   11428:	e1a04001 	mov	r4, r1
   1142c:	e1a05002 	mov	r5, r2
   11430:	aa000004 	bge	11448 <__multiply+0x34>
   11434:	e1a02009 	mov	r2, r9
   11438:	e1a04005 	mov	r4, r5
   1143c:	e1a09006 	mov	r9, r6
   11440:	e1a05001 	mov	r5, r1
   11444:	e1a06002 	mov	r6, r2
   11448:	e5943008 	ldr	r3, [r4, #8]
   1144c:	e5941004 	ldr	r1, [r4, #4]
   11450:	e0898006 	add	r8, r9, r6
   11454:	e1580003 	cmp	r8, r3
   11458:	c2811001 	addgt	r1, r1, #1
   1145c:	ebffff0b 	bl	11090 <_Balloc>
   11460:	e280a014 	add	sl, r0, #20
   11464:	e08ab108 	add	fp, sl, r8, lsl #2
   11468:	e15a000b 	cmp	sl, fp
   1146c:	e1a03000 	mov	r3, r0
   11470:	e58d0004 	str	r0, [sp, #4]
   11474:	31a0300a 	movcc	r3, sl
   11478:	33a01000 	movcc	r1, #0
   1147c:	2a000002 	bcs	1148c <__multiply+0x78>
   11480:	e4831004 	str	r1, [r3], #4
   11484:	e15b0003 	cmp	fp, r3
   11488:	8afffffc 	bhi	11480 <__multiply+0x6c>
   1148c:	e2852014 	add	r2, r5, #20
   11490:	e0823106 	add	r3, r2, r6, lsl #2
   11494:	e1a01003 	mov	r1, r3
   11498:	e1520003 	cmp	r2, r3
   1149c:	e2843014 	add	r3, r4, #20
   114a0:	358db008 	strcc	fp, [sp, #8]
   114a4:	358d800c 	strcc	r8, [sp, #12]
   114a8:	e0839109 	add	r9, r3, r9, lsl #2
   114ac:	31a0b001 	movcc	fp, r1
   114b0:	31a08003 	movcc	r8, r3
   114b4:	2a000040 	bcs	115bc <__multiply+0x1a8>
   114b8:	e4926004 	ldr	r6, [r2], #4
   114bc:	e1a07806 	lsl	r7, r6, #16
   114c0:	e1b07827 	lsrs	r7, r7, #16
   114c4:	0a00001a 	beq	11534 <__multiply+0x120>
   114c8:	e1a06008 	mov	r6, r8
   114cc:	e1a0500a 	mov	r5, sl
   114d0:	e3a00000 	mov	r0, #0
   114d4:	ea000000 	b	114dc <__multiply+0xc8>
   114d8:	e1a05001 	mov	r5, r1
   114dc:	e1a01005 	mov	r1, r5
   114e0:	e4963004 	ldr	r3, [r6], #4
   114e4:	e595e000 	ldr	lr, [r5]
   114e8:	e1a04803 	lsl	r4, r3, #16
   114ec:	e1a0c80e 	lsl	ip, lr, #16
   114f0:	e1a04824 	lsr	r4, r4, #16
   114f4:	e1a0c82c 	lsr	ip, ip, #16
   114f8:	e02cc497 	mla	ip, r7, r4, ip
   114fc:	e1a03823 	lsr	r3, r3, #16
   11500:	e1a0e82e 	lsr	lr, lr, #16
   11504:	e023e397 	mla	r3, r7, r3, lr
   11508:	e08c0000 	add	r0, ip, r0
   1150c:	e1a0c800 	lsl	ip, r0, #16
   11510:	e0830820 	add	r0, r3, r0, lsr #16
   11514:	e1a0382c 	lsr	r3, ip, #16
   11518:	e1833800 	orr	r3, r3, r0, lsl #16
   1151c:	e1590006 	cmp	r9, r6
   11520:	e1a00820 	lsr	r0, r0, #16
   11524:	e4813004 	str	r3, [r1], #4
   11528:	8affffea 	bhi	114d8 <__multiply+0xc4>
   1152c:	e5850004 	str	r0, [r5, #4]
   11530:	e5126004 	ldr	r6, [r2, #-4]
   11534:	e1b06826 	lsrs	r6, r6, #16
   11538:	0a00001a 	beq	115a8 <__multiply+0x194>
   1153c:	e59a3000 	ldr	r3, [sl]
   11540:	e1a0400a 	mov	r4, sl
   11544:	e1a05003 	mov	r5, r3
   11548:	e1a0c008 	mov	ip, r8
   1154c:	e3a00000 	mov	r0, #0
   11550:	ea000000 	b	11558 <__multiply+0x144>
   11554:	e1a0400e 	mov	r4, lr
   11558:	e1a0e004 	mov	lr, r4
   1155c:	e1dc10b0 	ldrh	r1, [ip]
   11560:	e1a05825 	lsr	r5, r5, #16
   11564:	e0255196 	mla	r5, r6, r1, r5
   11568:	e1a01803 	lsl	r1, r3, #16
   1156c:	e0850000 	add	r0, r5, r0
   11570:	e1a01821 	lsr	r1, r1, #16
   11574:	e1813800 	orr	r3, r1, r0, lsl #16
   11578:	e48e3004 	str	r3, [lr], #4
   1157c:	e5945004 	ldr	r5, [r4, #4]
   11580:	e49c1004 	ldr	r1, [ip], #4
   11584:	e1a03805 	lsl	r3, r5, #16
   11588:	e1a03823 	lsr	r3, r3, #16
   1158c:	e1a01821 	lsr	r1, r1, #16
   11590:	e0213196 	mla	r1, r6, r1, r3
   11594:	e159000c 	cmp	r9, ip
   11598:	e0813820 	add	r3, r1, r0, lsr #16
   1159c:	e1a00823 	lsr	r0, r3, #16
   115a0:	8affffeb 	bhi	11554 <__multiply+0x140>
   115a4:	e5843004 	str	r3, [r4, #4]
   115a8:	e15b0002 	cmp	fp, r2
   115ac:	e28aa004 	add	sl, sl, #4
   115b0:	8affffc0 	bhi	114b8 <__multiply+0xa4>
   115b4:	e59db008 	ldr	fp, [sp, #8]
   115b8:	e59d800c 	ldr	r8, [sp, #12]
   115bc:	e3580000 	cmp	r8, #0
   115c0:	da000009 	ble	115ec <__multiply+0x1d8>
   115c4:	e51b3004 	ldr	r3, [fp, #-4]
   115c8:	e3530000 	cmp	r3, #0
   115cc:	e24bb004 	sub	fp, fp, #4
   115d0:	0a000003 	beq	115e4 <__multiply+0x1d0>
   115d4:	ea000004 	b	115ec <__multiply+0x1d8>
   115d8:	e53b3004 	ldr	r3, [fp, #-4]!
   115dc:	e3530000 	cmp	r3, #0
   115e0:	1a000001 	bne	115ec <__multiply+0x1d8>
   115e4:	e2588001 	subs	r8, r8, #1
   115e8:	1afffffa 	bne	115d8 <__multiply+0x1c4>
   115ec:	e59d3004 	ldr	r3, [sp, #4]
   115f0:	e1a00003 	mov	r0, r3
   115f4:	e5838010 	str	r8, [r3, #16]
   115f8:	e28dd014 	add	sp, sp, #20
   115fc:	e8bd4ff0 	pop	{r4, r5, r6, r7, r8, r9, sl, fp, lr}
   11600:	e12fff1e 	bx	lr

00011604 <__pow5mult>:
   11604:	e2123003 	ands	r3, r2, #3
   11608:	e92d41f0 	push	{r4, r5, r6, r7, r8, lr}
   1160c:	e1a04002 	mov	r4, r2
   11610:	e1a07000 	mov	r7, r0
   11614:	01a06001 	moveq	r6, r1
   11618:	1a000025 	bne	116b4 <__pow5mult+0xb0>
   1161c:	e1b04144 	asrs	r4, r4, #2
   11620:	0a000019 	beq	1168c <__pow5mult+0x88>
   11624:	e5975048 	ldr	r5, [r7, #72]	; 0x48
   11628:	e3550000 	cmp	r5, #0
   1162c:	0a000027 	beq	116d0 <__pow5mult+0xcc>
   11630:	e3a08000 	mov	r8, #0
   11634:	ea000005 	b	11650 <__pow5mult+0x4c>
   11638:	e1b040c4 	asrs	r4, r4, #1
   1163c:	0a000012 	beq	1168c <__pow5mult+0x88>
   11640:	e5950000 	ldr	r0, [r5]
   11644:	e3500000 	cmp	r0, #0
   11648:	0a000012 	beq	11698 <__pow5mult+0x94>
   1164c:	e1a05000 	mov	r5, r0
   11650:	e3140001 	tst	r4, #1
   11654:	0afffff7 	beq	11638 <__pow5mult+0x34>
   11658:	e1a02005 	mov	r2, r5
   1165c:	e1a01006 	mov	r1, r6
   11660:	e1a00007 	mov	r0, r7
   11664:	ebffff6a 	bl	11414 <__multiply>
   11668:	e3560000 	cmp	r6, #0
   1166c:	15962004 	ldrne	r2, [r6, #4]
   11670:	1597304c 	ldrne	r3, [r7, #76]	; 0x4c
   11674:	17931102 	ldrne	r1, [r3, r2, lsl #2]
   11678:	15861000 	strne	r1, [r6]
   1167c:	17836102 	strne	r6, [r3, r2, lsl #2]
   11680:	e1b040c4 	asrs	r4, r4, #1
   11684:	e1a06000 	mov	r6, r0
   11688:	1affffec 	bne	11640 <__pow5mult+0x3c>
   1168c:	e1a00006 	mov	r0, r6
   11690:	e8bd41f0 	pop	{r4, r5, r6, r7, r8, lr}
   11694:	e12fff1e 	bx	lr
   11698:	e1a02005 	mov	r2, r5
   1169c:	e1a01005 	mov	r1, r5
   116a0:	e1a00007 	mov	r0, r7
   116a4:	ebffff5a 	bl	11414 <__multiply>
   116a8:	e5850000 	str	r0, [r5]
   116ac:	e5808000 	str	r8, [r0]
   116b0:	eaffffe5 	b	1164c <__pow5mult+0x48>
   116b4:	e59f2044 	ldr	r2, [pc, #68]	; 11700 <__pow5mult+0xfc>
   116b8:	e2433001 	sub	r3, r3, #1
   116bc:	e7922103 	ldr	r2, [r2, r3, lsl #2]
   116c0:	e3a03000 	mov	r3, #0
   116c4:	ebfffe9c 	bl	1113c <__multadd>
   116c8:	e1a06000 	mov	r6, r0
   116cc:	eaffffd2 	b	1161c <__pow5mult+0x18>
   116d0:	e3a01001 	mov	r1, #1
   116d4:	e1a00007 	mov	r0, r7
   116d8:	ebfffe6c 	bl	11090 <_Balloc>
   116dc:	e3a01001 	mov	r1, #1
   116e0:	e3a03000 	mov	r3, #0
   116e4:	e59f2018 	ldr	r2, [pc, #24]	; 11704 <__pow5mult+0x100>
   116e8:	e5801010 	str	r1, [r0, #16]
   116ec:	e5802014 	str	r2, [r0, #20]
   116f0:	e1a05000 	mov	r5, r0
   116f4:	e5870048 	str	r0, [r7, #72]	; 0x48
   116f8:	e5803000 	str	r3, [r0]
   116fc:	eaffffcb 	b	11630 <__pow5mult+0x2c>
   11700:	000167f8 	strdeq	r6, [r1], -r8
   11704:	00000271 	andeq	r0, r0, r1, ror r2

00011708 <__lshift>:
   11708:	e92d47f0 	push	{r4, r5, r6, r7, r8, r9, sl, lr}
   1170c:	e5918010 	ldr	r8, [r1, #16]
   11710:	e1a042c2 	asr	r4, r2, #5
   11714:	e5913008 	ldr	r3, [r1, #8]
   11718:	e0848008 	add	r8, r4, r8
   1171c:	e2885001 	add	r5, r8, #1
   11720:	e1550003 	cmp	r5, r3
   11724:	e1a06001 	mov	r6, r1
   11728:	e1a09002 	mov	r9, r2
   1172c:	e1a07000 	mov	r7, r0
   11730:	e5911004 	ldr	r1, [r1, #4]
   11734:	da000003 	ble	11748 <__lshift+0x40>
   11738:	e1a03083 	lsl	r3, r3, #1
   1173c:	e1550003 	cmp	r5, r3
   11740:	e2811001 	add	r1, r1, #1
   11744:	cafffffb 	bgt	11738 <__lshift+0x30>
   11748:	e1a00007 	mov	r0, r7
   1174c:	ebfffe4f 	bl	11090 <_Balloc>
   11750:	e3540000 	cmp	r4, #0
   11754:	e2801014 	add	r1, r0, #20
   11758:	da000025 	ble	117f4 <__lshift+0xec>
   1175c:	e3a02000 	mov	r2, #0
   11760:	e0813104 	add	r3, r1, r4, lsl #2
   11764:	e4812004 	str	r2, [r1], #4
   11768:	e1530001 	cmp	r3, r1
   1176c:	1afffffc 	bne	11764 <__lshift+0x5c>
   11770:	e596e010 	ldr	lr, [r6, #16]
   11774:	e2861014 	add	r1, r6, #20
   11778:	e219901f 	ands	r9, r9, #31
   1177c:	e081e10e 	add	lr, r1, lr, lsl #2
   11780:	0a000015 	beq	117dc <__lshift+0xd4>
   11784:	e3a0c000 	mov	ip, #0
   11788:	e2692020 	rsb	r2, r9, #32
   1178c:	e5914000 	ldr	r4, [r1]
   11790:	e18cc914 	orr	ip, ip, r4, lsl r9
   11794:	e1a04003 	mov	r4, r3
   11798:	e483c004 	str	ip, [r3], #4
   1179c:	e491c004 	ldr	ip, [r1], #4
   117a0:	e15e0001 	cmp	lr, r1
   117a4:	e1a0c23c 	lsr	ip, ip, r2
   117a8:	8afffff7 	bhi	1178c <__lshift+0x84>
   117ac:	e35c0000 	cmp	ip, #0
   117b0:	e584c004 	str	ip, [r4, #4]
   117b4:	12885002 	addne	r5, r8, #2
   117b8:	e597304c 	ldr	r3, [r7, #76]	; 0x4c
   117bc:	e5962004 	ldr	r2, [r6, #4]
   117c0:	e7931102 	ldr	r1, [r3, r2, lsl #2]
   117c4:	e2455001 	sub	r5, r5, #1
   117c8:	e5805010 	str	r5, [r0, #16]
   117cc:	e5861000 	str	r1, [r6]
   117d0:	e7836102 	str	r6, [r3, r2, lsl #2]
   117d4:	e8bd47f0 	pop	{r4, r5, r6, r7, r8, r9, sl, lr}
   117d8:	e12fff1e 	bx	lr
   117dc:	e2433004 	sub	r3, r3, #4
   117e0:	e4912004 	ldr	r2, [r1], #4
   117e4:	e15e0001 	cmp	lr, r1
   117e8:	e5a32004 	str	r2, [r3, #4]!
   117ec:	8afffffb 	bhi	117e0 <__lshift+0xd8>
   117f0:	eafffff0 	b	117b8 <__lshift+0xb0>
   117f4:	e1a03001 	mov	r3, r1
   117f8:	eaffffdc 	b	11770 <__lshift+0x68>

000117fc <__mcmp>:
   117fc:	e5902010 	ldr	r2, [r0, #16]
   11800:	e5913010 	ldr	r3, [r1, #16]
   11804:	e0522003 	subs	r2, r2, r3
   11808:	1a00000e 	bne	11848 <__mcmp+0x4c>
   1180c:	e1a03103 	lsl	r3, r3, #2
   11810:	e2800014 	add	r0, r0, #20
   11814:	e2811014 	add	r1, r1, #20
   11818:	e0811003 	add	r1, r1, r3
   1181c:	e0803003 	add	r3, r0, r3
   11820:	ea000001 	b	1182c <__mcmp+0x30>
   11824:	e1500003 	cmp	r0, r3
   11828:	2a000008 	bcs	11850 <__mcmp+0x54>
   1182c:	e533c004 	ldr	ip, [r3, #-4]!
   11830:	e5312004 	ldr	r2, [r1, #-4]!
   11834:	e15c0002 	cmp	ip, r2
   11838:	0afffff9 	beq	11824 <__mcmp+0x28>
   1183c:	3a000005 	bcc	11858 <__mcmp+0x5c>
   11840:	e3a00001 	mov	r0, #1
   11844:	e12fff1e 	bx	lr
   11848:	e1a00002 	mov	r0, r2
   1184c:	e12fff1e 	bx	lr
   11850:	e3a00000 	mov	r0, #0
   11854:	e12fff1e 	bx	lr
   11858:	e3e00000 	mvn	r0, #0
   1185c:	e12fff1e 	bx	lr

00011860 <__mdiff>:
   11860:	e92d47f0 	push	{r4, r5, r6, r7, r8, r9, sl, lr}
   11864:	e5913010 	ldr	r3, [r1, #16]
   11868:	e1a05001 	mov	r5, r1
   1186c:	e5921010 	ldr	r1, [r2, #16]
   11870:	e0613003 	rsb	r3, r1, r3
   11874:	e3530000 	cmp	r3, #0
   11878:	e1a06002 	mov	r6, r2
   1187c:	1a000012 	bne	118cc <__mdiff+0x6c>
   11880:	e1a01101 	lsl	r1, r1, #2
   11884:	e285e014 	add	lr, r5, #20
   11888:	e2824014 	add	r4, r2, #20
   1188c:	e08e3001 	add	r3, lr, r1
   11890:	e0841001 	add	r1, r4, r1
   11894:	ea000001 	b	118a0 <__mdiff+0x40>
   11898:	e15e0003 	cmp	lr, r3
   1189c:	2a000048 	bcs	119c4 <__mdiff+0x164>
   118a0:	e533c004 	ldr	ip, [r3, #-4]!
   118a4:	e5312004 	ldr	r2, [r1, #-4]!
   118a8:	e15c0002 	cmp	ip, r2
   118ac:	0afffff9 	beq	11898 <__mdiff+0x38>
   118b0:	2a00004b 	bcs	119e4 <__mdiff+0x184>
   118b4:	e1a03005 	mov	r3, r5
   118b8:	e1a0800e 	mov	r8, lr
   118bc:	e1a05006 	mov	r5, r6
   118c0:	e3a0a001 	mov	sl, #1
   118c4:	e1a06003 	mov	r6, r3
   118c8:	ea000003 	b	118dc <__mdiff+0x7c>
   118cc:	ba000048 	blt	119f4 <__mdiff+0x194>
   118d0:	e3a0a000 	mov	sl, #0
   118d4:	e2854014 	add	r4, r5, #20
   118d8:	e2828014 	add	r8, r2, #20
   118dc:	e5951004 	ldr	r1, [r5, #4]
   118e0:	ebfffdea 	bl	11090 <_Balloc>
   118e4:	e3a09000 	mov	r9, #0
   118e8:	e5955010 	ldr	r5, [r5, #16]
   118ec:	e5963010 	ldr	r3, [r6, #16]
   118f0:	e580a00c 	str	sl, [r0, #12]
   118f4:	e1a07008 	mov	r7, r8
   118f8:	e1a0e004 	mov	lr, r4
   118fc:	e0888103 	add	r8, r8, r3, lsl #2
   11900:	e0844105 	add	r4, r4, r5, lsl #2
   11904:	e280c014 	add	ip, r0, #20
   11908:	e49ea004 	ldr	sl, [lr], #4
   1190c:	e4971004 	ldr	r1, [r7], #4
   11910:	e1a0680a 	lsl	r6, sl, #16
   11914:	e0893826 	add	r3, r9, r6, lsr #16
   11918:	e1a02801 	lsl	r2, r1, #16
   1191c:	e0436822 	sub	r6, r3, r2, lsr #16
   11920:	e1a01821 	lsr	r1, r1, #16
   11924:	e061182a 	rsb	r1, r1, sl, lsr #16
   11928:	e1a03806 	lsl	r3, r6, #16
   1192c:	e0812846 	add	r2, r1, r6, asr #16
   11930:	e1a03823 	lsr	r3, r3, #16
   11934:	e1833802 	orr	r3, r3, r2, lsl #16
   11938:	e1580007 	cmp	r8, r7
   1193c:	e48c3004 	str	r3, [ip], #4
   11940:	e1a09842 	asr	r9, r2, #16
   11944:	8affffef 	bhi	11908 <__mdiff+0xa8>
   11948:	e154000e 	cmp	r4, lr
   1194c:	9a000012 	bls	1199c <__mdiff+0x13c>
   11950:	e1a0800c 	mov	r8, ip
   11954:	e1a0700e 	mov	r7, lr
   11958:	e4976004 	ldr	r6, [r7], #4
   1195c:	e1a03806 	lsl	r3, r6, #16
   11960:	e0892823 	add	r2, r9, r3, lsr #16
   11964:	e1a03802 	lsl	r3, r2, #16
   11968:	e1a01842 	asr	r1, r2, #16
   1196c:	e0812826 	add	r2, r1, r6, lsr #16
   11970:	e1a03823 	lsr	r3, r3, #16
   11974:	e1833802 	orr	r3, r3, r2, lsl #16
   11978:	e1540007 	cmp	r4, r7
   1197c:	e4883004 	str	r3, [r8], #4
   11980:	e1a09842 	asr	r9, r2, #16
   11984:	8afffff3 	bhi	11958 <__mdiff+0xf8>
   11988:	e1e0e00e 	mvn	lr, lr
   1198c:	e08e4004 	add	r4, lr, r4
   11990:	e3c44003 	bic	r4, r4, #3
   11994:	e2844004 	add	r4, r4, #4
   11998:	e08cc004 	add	ip, ip, r4
   1199c:	e3530000 	cmp	r3, #0
   119a0:	e24cc004 	sub	ip, ip, #4
   119a4:	1a000003 	bne	119b8 <__mdiff+0x158>
   119a8:	e53c3004 	ldr	r3, [ip, #-4]!
   119ac:	e3530000 	cmp	r3, #0
   119b0:	e2455001 	sub	r5, r5, #1
   119b4:	0afffffb 	beq	119a8 <__mdiff+0x148>
   119b8:	e5805010 	str	r5, [r0, #16]
   119bc:	e8bd47f0 	pop	{r4, r5, r6, r7, r8, r9, sl, lr}
   119c0:	e12fff1e 	bx	lr
   119c4:	e3a01000 	mov	r1, #0
   119c8:	ebfffdb0 	bl	11090 <_Balloc>
   119cc:	e3a02001 	mov	r2, #1
   119d0:	e3a03000 	mov	r3, #0
   119d4:	e5802010 	str	r2, [r0, #16]
   119d8:	e5803014 	str	r3, [r0, #20]
   119dc:	e8bd47f0 	pop	{r4, r5, r6, r7, r8, r9, sl, lr}
   119e0:	e12fff1e 	bx	lr
   119e4:	e1a08004 	mov	r8, r4
   119e8:	e3a0a000 	mov	sl, #0
   119ec:	e1a0400e 	mov	r4, lr
   119f0:	eaffffb9 	b	118dc <__mdiff+0x7c>
   119f4:	e1a03005 	mov	r3, r5
   119f8:	e2858014 	add	r8, r5, #20
   119fc:	e2864014 	add	r4, r6, #20
   11a00:	e1a05006 	mov	r5, r6
   11a04:	e3a0a001 	mov	sl, #1
   11a08:	e1a06003 	mov	r6, r3
   11a0c:	eaffffb2 	b	118dc <__mdiff+0x7c>

00011a10 <__ulp>:
   11a10:	ee102a90 	vmov	r2, s1
   11a14:	e59f3068 	ldr	r3, [pc, #104]	; 11a84 <__ulp+0x74>
   11a18:	e0022003 	and	r2, r2, r3
   11a1c:	e242350d 	sub	r3, r2, #54525952	; 0x3400000
   11a20:	e3530000 	cmp	r3, #0
   11a24:	da000003 	ble	11a38 <__ulp+0x28>
   11a28:	e3a00000 	mov	r0, #0
   11a2c:	e1a01003 	mov	r1, r3
   11a30:	ec410b10 	vmov	d0, r0, r1
   11a34:	e12fff1e 	bx	lr
   11a38:	e2633000 	rsb	r3, r3, #0
   11a3c:	e1a03a43 	asr	r3, r3, #20
   11a40:	e3530013 	cmp	r3, #19
   11a44:	da000009 	ble	11a70 <__ulp+0x60>
   11a48:	e2433014 	sub	r3, r3, #20
   11a4c:	e353001e 	cmp	r3, #30
   11a50:	d3a02001 	movle	r2, #1
   11a54:	c3a03001 	movgt	r3, #1
   11a58:	d263301f 	rsble	r3, r3, #31
   11a5c:	d1a03312 	lslle	r3, r2, r3
   11a60:	e3a01000 	mov	r1, #0
   11a64:	e1a00003 	mov	r0, r3
   11a68:	ec410b10 	vmov	d0, r0, r1
   11a6c:	e12fff1e 	bx	lr
   11a70:	e3a02702 	mov	r2, #524288	; 0x80000
   11a74:	e3a00000 	mov	r0, #0
   11a78:	e1a01352 	asr	r1, r2, r3
   11a7c:	ec410b10 	vmov	d0, r0, r1
   11a80:	e12fff1e 	bx	lr
   11a84:	7ff00000 	svcvc	0x00f00000	; IMB

00011a88 <__b2d>:
   11a88:	e92d41f0 	push	{r4, r5, r6, r7, r8, lr}
   11a8c:	e5906010 	ldr	r6, [r0, #16]
   11a90:	e2802014 	add	r2, r0, #20
   11a94:	e0826106 	add	r6, r2, r6, lsl #2
   11a98:	e5167004 	ldr	r7, [r6, #-4]
   11a9c:	e1a00007 	mov	r0, r7
   11aa0:	ebfffe16 	bl	11300 <__hi0bits>
   11aa4:	e2603020 	rsb	r3, r0, #32
   11aa8:	e350000a 	cmp	r0, #10
   11aac:	e5813000 	str	r3, [r1]
   11ab0:	e2463004 	sub	r3, r6, #4
   11ab4:	ca00000c 	bgt	11aec <__b2d+0x64>
   11ab8:	e260100b 	rsb	r1, r0, #11
   11abc:	e1520003 	cmp	r2, r3
   11ac0:	e1a03137 	lsr	r3, r7, r1
   11ac4:	e38335ff 	orr	r3, r3, #1069547520	; 0x3fc00000
   11ac8:	e3835603 	orr	r5, r3, #3145728	; 0x300000
   11acc:	23a03000 	movcs	r3, #0
   11ad0:	35163008 	ldrcc	r3, [r6, #-8]
   11ad4:	e2800015 	add	r0, r0, #21
   11ad8:	31a03133 	lsrcc	r3, r3, r1
   11adc:	e1834017 	orr	r4, r3, r7, lsl r0
   11ae0:	ec454b10 	vmov	d0, r4, r5
   11ae4:	e8bd41f0 	pop	{r4, r5, r6, r7, r8, lr}
   11ae8:	e12fff1e 	bx	lr
   11aec:	e1520003 	cmp	r2, r3
   11af0:	2a00000e 	bcs	11b30 <__b2d+0xa8>
   11af4:	e250300b 	subs	r3, r0, #11
   11af8:	e5160008 	ldr	r0, [r6, #-8]
   11afc:	0a00000d 	beq	11b38 <__b2d+0xb0>
   11b00:	e1a07317 	lsl	r7, r7, r3
   11b04:	e2461008 	sub	r1, r6, #8
   11b08:	e1520001 	cmp	r2, r1
   11b0c:	e38775ff 	orr	r7, r7, #1069547520	; 0x3fc00000
   11b10:	e263c020 	rsb	ip, r3, #32
   11b14:	e3877603 	orr	r7, r7, #3145728	; 0x300000
   11b18:	3516200c 	ldrcc	r2, [r6, #-12]
   11b1c:	e1875c30 	orr	r5, r7, r0, lsr ip
   11b20:	31a00310 	lslcc	r0, r0, r3
   11b24:	21a00310 	lslcs	r0, r0, r3
   11b28:	31800c32 	orrcc	r0, r0, r2, lsr ip
   11b2c:	ea000003 	b	11b40 <__b2d+0xb8>
   11b30:	e250000b 	subs	r0, r0, #11
   11b34:	1a000005 	bne	11b50 <__b2d+0xc8>
   11b38:	e38775ff 	orr	r7, r7, #1069547520	; 0x3fc00000
   11b3c:	e3875603 	orr	r5, r7, #3145728	; 0x300000
   11b40:	e1a04000 	mov	r4, r0
   11b44:	ec454b10 	vmov	d0, r4, r5
   11b48:	e8bd41f0 	pop	{r4, r5, r6, r7, r8, lr}
   11b4c:	e12fff1e 	bx	lr
   11b50:	e1a00017 	lsl	r0, r7, r0
   11b54:	e38005ff 	orr	r0, r0, #1069547520	; 0x3fc00000
   11b58:	e3805603 	orr	r5, r0, #3145728	; 0x300000
   11b5c:	e3a00000 	mov	r0, #0
   11b60:	eafffff6 	b	11b40 <__b2d+0xb8>

00011b64 <__d2b>:
   11b64:	e92d43f0 	push	{r4, r5, r6, r7, r8, r9, lr}
   11b68:	ee104a90 	vmov	r4, s1
   11b6c:	e24dd00c 	sub	sp, sp, #12
   11b70:	ee108a10 	vmov	r8, s0
   11b74:	e1a06001 	mov	r6, r1
   11b78:	e3a01001 	mov	r1, #1
   11b7c:	e1a05002 	mov	r5, r2
   11b80:	ebfffd42 	bl	11090 <_Balloc>
   11b84:	e1a03084 	lsl	r3, r4, #1
   11b88:	e3c444ff 	bic	r4, r4, #-16777216	; 0xff000000
   11b8c:	e1b09aa3 	lsrs	r9, r3, #21
   11b90:	e3c4460f 	bic	r4, r4, #15728640	; 0xf00000
   11b94:	13844601 	orrne	r4, r4, #1048576	; 0x100000
   11b98:	e3580000 	cmp	r8, #0
   11b9c:	e1a07000 	mov	r7, r0
   11ba0:	e58d4004 	str	r4, [sp, #4]
   11ba4:	0a00001d 	beq	11c20 <__d2b+0xbc>
   11ba8:	e28d0008 	add	r0, sp, #8
   11bac:	e5208008 	str	r8, [r0, #-8]!
   11bb0:	ebfffde9 	bl	1135c <__lo0bits>
   11bb4:	e89d000c 	ldm	sp, {r2, r3}
   11bb8:	e3500000 	cmp	r0, #0
   11bbc:	12601020 	rsbne	r1, r0, #32
   11bc0:	11822113 	orrne	r2, r2, r3, lsl r1
   11bc4:	11a03033 	lsrne	r3, r3, r0
   11bc8:	15872014 	strne	r2, [r7, #20]
   11bcc:	05872014 	streq	r2, [r7, #20]
   11bd0:	158d3004 	strne	r3, [sp, #4]
   11bd4:	e3530000 	cmp	r3, #0
   11bd8:	03a02001 	moveq	r2, #1
   11bdc:	13a02002 	movne	r2, #2
   11be0:	e3590000 	cmp	r9, #0
   11be4:	e5873018 	str	r3, [r7, #24]
   11be8:	e5872010 	str	r2, [r7, #16]
   11bec:	1a000015 	bne	11c48 <__d2b+0xe4>
   11bf0:	e2400e43 	sub	r0, r0, #1072	; 0x430
   11bf4:	e0873102 	add	r3, r7, r2, lsl #2
   11bf8:	e2400002 	sub	r0, r0, #2
   11bfc:	e5860000 	str	r0, [r6]
   11c00:	e5930010 	ldr	r0, [r3, #16]
   11c04:	ebfffdbd 	bl	11300 <__hi0bits>
   11c08:	e0600282 	rsb	r0, r0, r2, lsl #5
   11c0c:	e5850000 	str	r0, [r5]
   11c10:	e1a00007 	mov	r0, r7
   11c14:	e28dd00c 	add	sp, sp, #12
   11c18:	e8bd43f0 	pop	{r4, r5, r6, r7, r8, r9, lr}
   11c1c:	e12fff1e 	bx	lr
   11c20:	e28d0004 	add	r0, sp, #4
   11c24:	ebfffdcc 	bl	1135c <__lo0bits>
   11c28:	e3a03001 	mov	r3, #1
   11c2c:	e59d1004 	ldr	r1, [sp, #4]
   11c30:	e3590000 	cmp	r9, #0
   11c34:	e1a02003 	mov	r2, r3
   11c38:	e5873010 	str	r3, [r7, #16]
   11c3c:	e5871014 	str	r1, [r7, #20]
   11c40:	e2800020 	add	r0, r0, #32
   11c44:	0affffe9 	beq	11bf0 <__d2b+0x8c>
   11c48:	e2493e43 	sub	r3, r9, #1072	; 0x430
   11c4c:	e2433003 	sub	r3, r3, #3
   11c50:	e0833000 	add	r3, r3, r0
   11c54:	e2600035 	rsb	r0, r0, #53	; 0x35
   11c58:	e5863000 	str	r3, [r6]
   11c5c:	e5850000 	str	r0, [r5]
   11c60:	e1a00007 	mov	r0, r7
   11c64:	e28dd00c 	add	sp, sp, #12
   11c68:	e8bd43f0 	pop	{r4, r5, r6, r7, r8, r9, lr}
   11c6c:	e12fff1e 	bx	lr

00011c70 <__ratio>:
   11c70:	e92d4030 	push	{r4, r5, lr}
   11c74:	e24dd01c 	sub	sp, sp, #28
   11c78:	e1a04001 	mov	r4, r1
   11c7c:	e28d1010 	add	r1, sp, #16
   11c80:	e1a05000 	mov	r5, r0
   11c84:	ebffff7f 	bl	11a88 <__b2d>
   11c88:	e1a00004 	mov	r0, r4
   11c8c:	e28d1014 	add	r1, sp, #20
   11c90:	ed8d0b00 	vstr	d0, [sp]
   11c94:	ebffff7b 	bl	11a88 <__b2d>
   11c98:	e28d2010 	add	r2, sp, #16
   11c9c:	e5940010 	ldr	r0, [r4, #16]
   11ca0:	e5951010 	ldr	r1, [r5, #16]
   11ca4:	e892000c 	ldm	r2, {r2, r3}
   11ca8:	ed8d0b02 	vstr	d0, [sp, #8]
   11cac:	e0601001 	rsb	r1, r0, r1
   11cb0:	e0633002 	rsb	r3, r3, r2
   11cb4:	e0833281 	add	r3, r3, r1, lsl #5
   11cb8:	e28d5008 	add	r5, sp, #8
   11cbc:	e8950030 	ldm	r5, {r4, r5}
   11cc0:	e89d0003 	ldm	sp, {r0, r1}
   11cc4:	e3530000 	cmp	r3, #0
   11cc8:	c0811a03 	addgt	r1, r1, r3, lsl #20
   11ccc:	d0455a03 	suble	r5, r5, r3, lsl #20
   11cd0:	c88d0003 	stmgt	sp, {r0, r1}
   11cd4:	d58d4008 	strle	r4, [sp, #8]
   11cd8:	d58d500c 	strle	r5, [sp, #12]
   11cdc:	ed9d7b00 	vldr	d7, [sp]
   11ce0:	ed9d6b02 	vldr	d6, [sp, #8]
   11ce4:	ee870b06 	vdiv.f64	d0, d7, d6
   11ce8:	e28dd01c 	add	sp, sp, #28
   11cec:	e8bd4030 	pop	{r4, r5, lr}
   11cf0:	e12fff1e 	bx	lr
   11cf4:	00000000 	andeq	r0, r0, r0

00011cf8 <_mprec_log10>:
   11cf8:	e3500017 	cmp	r0, #23
   11cfc:	da000005 	ble	11d18 <_mprec_log10+0x20>
   11d00:	ed9f0b08 	vldr	d0, [pc, #32]	; 11d28 <_mprec_log10+0x30>
   11d04:	ed9f7b09 	vldr	d7, [pc, #36]	; 11d30 <_mprec_log10+0x38>
   11d08:	e2500001 	subs	r0, r0, #1
   11d0c:	ee200b07 	vmul.f64	d0, d0, d7
   11d10:	1afffffc 	bne	11d08 <_mprec_log10+0x10>
   11d14:	e12fff1e 	bx	lr
   11d18:	e59f3018 	ldr	r3, [pc, #24]	; 11d38 <_mprec_log10+0x40>
   11d1c:	e0830180 	add	r0, r3, r0, lsl #3
   11d20:	ed900b00 	vldr	d0, [r0]
   11d24:	e12fff1e 	bx	lr
   11d28:	00000000 	andeq	r0, r0, r0
   11d2c:	3ff00000 	svccc	0x00f00000	; IMB
   11d30:	00000000 	andeq	r0, r0, r0
   11d34:	40240000 	eormi	r0, r4, r0
   11d38:	00016708 	andeq	r6, r1, r8, lsl #14

00011d3c <__copybits>:
   11d3c:	e592c010 	ldr	ip, [r2, #16]
   11d40:	e2823014 	add	r3, r2, #20
   11d44:	e2411001 	sub	r1, r1, #1
   11d48:	e92d4010 	push	{r4, lr}
   11d4c:	e083c10c 	add	ip, r3, ip, lsl #2
   11d50:	e1a042c1 	asr	r4, r1, #5
   11d54:	e2844001 	add	r4, r4, #1
   11d58:	e153000c 	cmp	r3, ip
   11d5c:	e0804104 	add	r4, r0, r4, lsl #2
   11d60:	2a000009 	bcs	11d8c <__copybits+0x50>
   11d64:	e2401004 	sub	r1, r0, #4
   11d68:	e493e004 	ldr	lr, [r3], #4
   11d6c:	e15c0003 	cmp	ip, r3
   11d70:	e5a1e004 	str	lr, [r1, #4]!
   11d74:	8afffffb 	bhi	11d68 <__copybits+0x2c>
   11d78:	e062300c 	rsb	r3, r2, ip
   11d7c:	e2433015 	sub	r3, r3, #21
   11d80:	e3c33003 	bic	r3, r3, #3
   11d84:	e2833004 	add	r3, r3, #4
   11d88:	e0800003 	add	r0, r0, r3
   11d8c:	e1540000 	cmp	r4, r0
   11d90:	9a000003 	bls	11da4 <__copybits+0x68>
   11d94:	e3a03000 	mov	r3, #0
   11d98:	e4803004 	str	r3, [r0], #4
   11d9c:	e1540000 	cmp	r4, r0
   11da0:	8afffffc 	bhi	11d98 <__copybits+0x5c>
   11da4:	e8bd4010 	pop	{r4, lr}
   11da8:	e12fff1e 	bx	lr

00011dac <__any_on>:
   11dac:	e5903010 	ldr	r3, [r0, #16]
   11db0:	e1a022c1 	asr	r2, r1, #5
   11db4:	e1530002 	cmp	r3, r2
   11db8:	e280c014 	add	ip, r0, #20
   11dbc:	b08c3103 	addlt	r3, ip, r3, lsl #2
   11dc0:	ba00000a 	blt	11df0 <__any_on+0x44>
   11dc4:	da000008 	ble	11dec <__any_on+0x40>
   11dc8:	e211101f 	ands	r1, r1, #31
   11dcc:	0a000006 	beq	11dec <__any_on+0x40>
   11dd0:	e79c3102 	ldr	r3, [ip, r2, lsl #2]
   11dd4:	e1a00133 	lsr	r0, r3, r1
   11dd8:	e1530110 	cmp	r3, r0, lsl r1
   11ddc:	e08c3102 	add	r3, ip, r2, lsl #2
   11de0:	0a000002 	beq	11df0 <__any_on+0x44>
   11de4:	e3a00001 	mov	r0, #1
   11de8:	e12fff1e 	bx	lr
   11dec:	e08c3102 	add	r3, ip, r2, lsl #2
   11df0:	e15c0003 	cmp	ip, r3
   11df4:	2a00000a 	bcs	11e24 <__any_on+0x78>
   11df8:	e5130004 	ldr	r0, [r3, #-4]
   11dfc:	e3500000 	cmp	r0, #0
   11e00:	e2433004 	sub	r3, r3, #4
   11e04:	0a000003 	beq	11e18 <__any_on+0x6c>
   11e08:	eafffff5 	b	11de4 <__any_on+0x38>
   11e0c:	e5332004 	ldr	r2, [r3, #-4]!
   11e10:	e3520000 	cmp	r2, #0
   11e14:	1afffff2 	bne	11de4 <__any_on+0x38>
   11e18:	e15c0003 	cmp	ip, r3
   11e1c:	3afffffa 	bcc	11e0c <__any_on+0x60>
   11e20:	e12fff1e 	bx	lr
   11e24:	e3a00000 	mov	r0, #0
   11e28:	e12fff1e 	bx	lr

00011e2c <_read_r>:
   11e2c:	e92d4070 	push	{r4, r5, r6, lr}
   11e30:	e1a0e001 	mov	lr, r1
   11e34:	e3a0c000 	mov	ip, #0
   11e38:	e59f4030 	ldr	r4, [pc, #48]	; 11e70 <_read_r+0x44>
   11e3c:	e1a01002 	mov	r1, r2
   11e40:	e1a05000 	mov	r5, r0
   11e44:	e1a02003 	mov	r2, r3
   11e48:	e1a0000e 	mov	r0, lr
   11e4c:	e584c000 	str	ip, [r4]
   11e50:	ebffdc94 	bl	90a8 <_read>
   11e54:	e3700001 	cmn	r0, #1
   11e58:	1a000002 	bne	11e68 <_read_r+0x3c>
   11e5c:	e5943000 	ldr	r3, [r4]
   11e60:	e3530000 	cmp	r3, #0
   11e64:	15853000 	strne	r3, [r5]
   11e68:	e8bd4070 	pop	{r4, r5, r6, lr}
   11e6c:	e12fff1e 	bx	lr
   11e70:	0001f834 	andeq	pc, r1, r4, lsr r8	; <UNPREDICTABLE>

00011e74 <_realloc_r>:
   11e74:	e92d4ff0 	push	{r4, r5, r6, r7, r8, r9, sl, fp, lr}
   11e78:	e2517000 	subs	r7, r1, #0
   11e7c:	e24dd00c 	sub	sp, sp, #12
   11e80:	e1a0b002 	mov	fp, r2
   11e84:	0a00009d 	beq	12100 <_realloc_r+0x28c>
   11e88:	e28b400b 	add	r4, fp, #11
   11e8c:	e1a09000 	mov	r9, r0
   11e90:	ebffe9c3 	bl	c5a4 <__malloc_lock>
   11e94:	e3540016 	cmp	r4, #22
   11e98:	93a01010 	movls	r1, #16
   11e9c:	93a03000 	movls	r3, #0
   11ea0:	91a04001 	movls	r4, r1
   11ea4:	83c44007 	bichi	r4, r4, #7
   11ea8:	81a03fa4 	lsrhi	r3, r4, #31
   11eac:	81a01004 	movhi	r1, r4
   11eb0:	e154000b 	cmp	r4, fp
   11eb4:	33833001 	orrcc	r3, r3, #1
   11eb8:	e3530000 	cmp	r3, #0
   11ebc:	13a0300c 	movne	r3, #12
   11ec0:	e5170004 	ldr	r0, [r7, #-4]
   11ec4:	e2476008 	sub	r6, r7, #8
   11ec8:	e3c05003 	bic	r5, r0, #3
   11ecc:	15893000 	strne	r3, [r9]
   11ed0:	13a00000 	movne	r0, #0
   11ed4:	1a00002c 	bne	11f8c <_realloc_r+0x118>
   11ed8:	e1550001 	cmp	r5, r1
   11edc:	aa00005d 	bge	12058 <_realloc_r+0x1e4>
   11ee0:	e59fa508 	ldr	sl, [pc, #1288]	; 123f0 <_realloc_r+0x57c>
   11ee4:	e59a3008 	ldr	r3, [sl, #8]
   11ee8:	e086e005 	add	lr, r6, r5
   11eec:	e15e0003 	cmp	lr, r3
   11ef0:	0a0000be 	beq	121f0 <_realloc_r+0x37c>
   11ef4:	e59ec004 	ldr	ip, [lr, #4]
   11ef8:	e3cc3001 	bic	r3, ip, #1
   11efc:	e08e3003 	add	r3, lr, r3
   11f00:	e5933004 	ldr	r3, [r3, #4]
   11f04:	e3130001 	tst	r3, #1
   11f08:	0a000072 	beq	120d8 <_realloc_r+0x264>
   11f0c:	e3100001 	tst	r0, #1
   11f10:	0a000020 	beq	11f98 <_realloc_r+0x124>
   11f14:	e1a0100b 	mov	r1, fp
   11f18:	e1a00009 	mov	r0, r9
   11f1c:	ebffe6f8 	bl	bb04 <_malloc_r>
   11f20:	e2508000 	subs	r8, r0, #0
   11f24:	0a000015 	beq	11f80 <_realloc_r+0x10c>
   11f28:	e5173004 	ldr	r3, [r7, #-4]
   11f2c:	e3c33001 	bic	r3, r3, #1
   11f30:	e0863003 	add	r3, r6, r3
   11f34:	e2482008 	sub	r2, r8, #8
   11f38:	e1520003 	cmp	r2, r3
   11f3c:	0a00011c 	beq	123b4 <_realloc_r+0x540>
   11f40:	e2452004 	sub	r2, r5, #4
   11f44:	e3520024 	cmp	r2, #36	; 0x24
   11f48:	8a000116 	bhi	123a8 <_realloc_r+0x534>
   11f4c:	e3520013 	cmp	r2, #19
   11f50:	91a03008 	movls	r3, r8
   11f54:	91a02007 	movls	r2, r7
   11f58:	8a0000e8 	bhi	12300 <_realloc_r+0x48c>
   11f5c:	e5921000 	ldr	r1, [r2]
   11f60:	e5831000 	str	r1, [r3]
   11f64:	e5921004 	ldr	r1, [r2, #4]
   11f68:	e5831004 	str	r1, [r3, #4]
   11f6c:	e5922008 	ldr	r2, [r2, #8]
   11f70:	e5832008 	str	r2, [r3, #8]
   11f74:	e1a01007 	mov	r1, r7
   11f78:	e1a00009 	mov	r0, r9
   11f7c:	ebffe43a 	bl	b06c <_free_r>
   11f80:	e1a00009 	mov	r0, r9
   11f84:	ebffe987 	bl	c5a8 <__malloc_unlock>
   11f88:	e1a00008 	mov	r0, r8
   11f8c:	e28dd00c 	add	sp, sp, #12
   11f90:	e8bd4ff0 	pop	{r4, r5, r6, r7, r8, r9, sl, fp, lr}
   11f94:	e12fff1e 	bx	lr
   11f98:	e5178008 	ldr	r8, [r7, #-8]
   11f9c:	e0688006 	rsb	r8, r8, r6
   11fa0:	e5983004 	ldr	r3, [r8, #4]
   11fa4:	e3c33003 	bic	r3, r3, #3
   11fa8:	e0853003 	add	r3, r5, r3
   11fac:	e1530001 	cmp	r3, r1
   11fb0:	baffffd7 	blt	11f14 <_realloc_r+0xa0>
   11fb4:	e1a0a008 	mov	sl, r8
   11fb8:	e598100c 	ldr	r1, [r8, #12]
   11fbc:	e5ba0008 	ldr	r0, [sl, #8]!
   11fc0:	e2452004 	sub	r2, r5, #4
   11fc4:	e3520024 	cmp	r2, #36	; 0x24
   11fc8:	e580100c 	str	r1, [r0, #12]
   11fcc:	e5810008 	str	r0, [r1, #8]
   11fd0:	8a0000e0 	bhi	12358 <_realloc_r+0x4e4>
   11fd4:	e3520013 	cmp	r2, #19
   11fd8:	91a0200a 	movls	r2, sl
   11fdc:	9a000014 	bls	12034 <_realloc_r+0x1c0>
   11fe0:	e5971000 	ldr	r1, [r7]
   11fe4:	e5881008 	str	r1, [r8, #8]
   11fe8:	e5971004 	ldr	r1, [r7, #4]
   11fec:	e352001b 	cmp	r2, #27
   11ff0:	e588100c 	str	r1, [r8, #12]
   11ff4:	92877008 	addls	r7, r7, #8
   11ff8:	92882010 	addls	r2, r8, #16
   11ffc:	9a00000c 	bls	12034 <_realloc_r+0x1c0>
   12000:	e5971008 	ldr	r1, [r7, #8]
   12004:	e5881010 	str	r1, [r8, #16]
   12008:	e597100c 	ldr	r1, [r7, #12]
   1200c:	e5881014 	str	r1, [r8, #20]
   12010:	e3520024 	cmp	r2, #36	; 0x24
   12014:	05972010 	ldreq	r2, [r7, #16]
   12018:	05882018 	streq	r2, [r8, #24]
   1201c:	05972014 	ldreq	r2, [r7, #20]
   12020:	12877010 	addne	r7, r7, #16
   12024:	0588201c 	streq	r2, [r8, #28]
   12028:	12882018 	addne	r2, r8, #24
   1202c:	02877018 	addeq	r7, r7, #24
   12030:	02882020 	addeq	r2, r8, #32
   12034:	e5971000 	ldr	r1, [r7]
   12038:	e5821000 	str	r1, [r2]
   1203c:	e5971004 	ldr	r1, [r7, #4]
   12040:	e5821004 	str	r1, [r2, #4]
   12044:	e1a05003 	mov	r5, r3
   12048:	e5971008 	ldr	r1, [r7, #8]
   1204c:	e1a06008 	mov	r6, r8
   12050:	e1a0700a 	mov	r7, sl
   12054:	e5821008 	str	r1, [r2, #8]
   12058:	e0643005 	rsb	r3, r4, r5
   1205c:	e353000f 	cmp	r3, #15
   12060:	8a00000d 	bhi	1209c <_realloc_r+0x228>
   12064:	e5963004 	ldr	r3, [r6, #4]
   12068:	e2033001 	and	r3, r3, #1
   1206c:	e1833005 	orr	r3, r3, r5
   12070:	e5863004 	str	r3, [r6, #4]
   12074:	e0865005 	add	r5, r6, r5
   12078:	e5953004 	ldr	r3, [r5, #4]
   1207c:	e3833001 	orr	r3, r3, #1
   12080:	e5853004 	str	r3, [r5, #4]
   12084:	e1a00009 	mov	r0, r9
   12088:	ebffe946 	bl	c5a8 <__malloc_unlock>
   1208c:	e1a00007 	mov	r0, r7
   12090:	e28dd00c 	add	sp, sp, #12
   12094:	e8bd4ff0 	pop	{r4, r5, r6, r7, r8, r9, sl, fp, lr}
   12098:	e12fff1e 	bx	lr
   1209c:	e5962004 	ldr	r2, [r6, #4]
   120a0:	e2022001 	and	r2, r2, #1
   120a4:	e0861004 	add	r1, r6, r4
   120a8:	e1822004 	orr	r2, r2, r4
   120ac:	e3830001 	orr	r0, r3, #1
   120b0:	e5862004 	str	r2, [r6, #4]
   120b4:	e5810004 	str	r0, [r1, #4]
   120b8:	e0813003 	add	r3, r1, r3
   120bc:	e5932004 	ldr	r2, [r3, #4]
   120c0:	e3822001 	orr	r2, r2, #1
   120c4:	e2811008 	add	r1, r1, #8
   120c8:	e5832004 	str	r2, [r3, #4]
   120cc:	e1a00009 	mov	r0, r9
   120d0:	ebffe3e5 	bl	b06c <_free_r>
   120d4:	eaffffea 	b	12084 <_realloc_r+0x210>
   120d8:	e3ccc003 	bic	ip, ip, #3
   120dc:	e08cc005 	add	ip, ip, r5
   120e0:	e15c0001 	cmp	ip, r1
   120e4:	ba00000a 	blt	12114 <_realloc_r+0x2a0>
   120e8:	e28e2008 	add	r2, lr, #8
   120ec:	e892000c 	ldm	r2, {r2, r3}
   120f0:	e1a0500c 	mov	r5, ip
   120f4:	e582300c 	str	r3, [r2, #12]
   120f8:	e5832008 	str	r2, [r3, #8]
   120fc:	eaffffd5 	b	12058 <_realloc_r+0x1e4>
   12100:	e1a01002 	mov	r1, r2
   12104:	ebffe67e 	bl	bb04 <_malloc_r>
   12108:	e28dd00c 	add	sp, sp, #12
   1210c:	e8bd4ff0 	pop	{r4, r5, r6, r7, r8, r9, sl, fp, lr}
   12110:	e12fff1e 	bx	lr
   12114:	e3100001 	tst	r0, #1
   12118:	1affff7d 	bne	11f14 <_realloc_r+0xa0>
   1211c:	e5178008 	ldr	r8, [r7, #-8]
   12120:	e0688006 	rsb	r8, r8, r6
   12124:	e5983004 	ldr	r3, [r8, #4]
   12128:	e3c33003 	bic	r3, r3, #3
   1212c:	e08cc003 	add	ip, ip, r3
   12130:	e15c0001 	cmp	ip, r1
   12134:	baffff9b 	blt	11fa8 <_realloc_r+0x134>
   12138:	e1a0a008 	mov	sl, r8
   1213c:	e28e2008 	add	r2, lr, #8
   12140:	e892000c 	ldm	r2, {r2, r3}
   12144:	e582300c 	str	r3, [r2, #12]
   12148:	e5832008 	str	r2, [r3, #8]
   1214c:	e598300c 	ldr	r3, [r8, #12]
   12150:	e5ba1008 	ldr	r1, [sl, #8]!
   12154:	e2452004 	sub	r2, r5, #4
   12158:	e3520024 	cmp	r2, #36	; 0x24
   1215c:	e581300c 	str	r3, [r1, #12]
   12160:	e5831008 	str	r1, [r3, #8]
   12164:	8a000096 	bhi	123c4 <_realloc_r+0x550>
   12168:	e3520013 	cmp	r2, #19
   1216c:	91a0300a 	movls	r3, sl
   12170:	9a000014 	bls	121c8 <_realloc_r+0x354>
   12174:	e5973000 	ldr	r3, [r7]
   12178:	e5883008 	str	r3, [r8, #8]
   1217c:	e5973004 	ldr	r3, [r7, #4]
   12180:	e352001b 	cmp	r2, #27
   12184:	e588300c 	str	r3, [r8, #12]
   12188:	92877008 	addls	r7, r7, #8
   1218c:	92883010 	addls	r3, r8, #16
   12190:	9a00000c 	bls	121c8 <_realloc_r+0x354>
   12194:	e5973008 	ldr	r3, [r7, #8]
   12198:	e5883010 	str	r3, [r8, #16]
   1219c:	e597300c 	ldr	r3, [r7, #12]
   121a0:	e5883014 	str	r3, [r8, #20]
   121a4:	e3520024 	cmp	r2, #36	; 0x24
   121a8:	05973010 	ldreq	r3, [r7, #16]
   121ac:	05883018 	streq	r3, [r8, #24]
   121b0:	05973014 	ldreq	r3, [r7, #20]
   121b4:	12877010 	addne	r7, r7, #16
   121b8:	0588301c 	streq	r3, [r8, #28]
   121bc:	12883018 	addne	r3, r8, #24
   121c0:	02877018 	addeq	r7, r7, #24
   121c4:	02883020 	addeq	r3, r8, #32
   121c8:	e5972000 	ldr	r2, [r7]
   121cc:	e5832000 	str	r2, [r3]
   121d0:	e5972004 	ldr	r2, [r7, #4]
   121d4:	e5832004 	str	r2, [r3, #4]
   121d8:	e5972008 	ldr	r2, [r7, #8]
   121dc:	e1a0500c 	mov	r5, ip
   121e0:	e1a0700a 	mov	r7, sl
   121e4:	e1a06008 	mov	r6, r8
   121e8:	e5832008 	str	r2, [r3, #8]
   121ec:	eaffff99 	b	12058 <_realloc_r+0x1e4>
   121f0:	e59e3004 	ldr	r3, [lr, #4]
   121f4:	e3c33003 	bic	r3, r3, #3
   121f8:	e0832005 	add	r2, r3, r5
   121fc:	e284c010 	add	ip, r4, #16
   12200:	e152000c 	cmp	r2, ip
   12204:	aa00005a 	bge	12374 <_realloc_r+0x500>
   12208:	e3100001 	tst	r0, #1
   1220c:	1affff40 	bne	11f14 <_realloc_r+0xa0>
   12210:	e5178008 	ldr	r8, [r7, #-8]
   12214:	e0688006 	rsb	r8, r8, r6
   12218:	e5983004 	ldr	r3, [r8, #4]
   1221c:	e3c33003 	bic	r3, r3, #3
   12220:	e0832002 	add	r2, r3, r2
   12224:	e15c0002 	cmp	ip, r2
   12228:	e58d2004 	str	r2, [sp, #4]
   1222c:	caffff5d 	bgt	11fa8 <_realloc_r+0x134>
   12230:	e1a06008 	mov	r6, r8
   12234:	e598300c 	ldr	r3, [r8, #12]
   12238:	e5b61008 	ldr	r1, [r6, #8]!
   1223c:	e2452004 	sub	r2, r5, #4
   12240:	e3520024 	cmp	r2, #36	; 0x24
   12244:	e581300c 	str	r3, [r1, #12]
   12248:	e5831008 	str	r1, [r3, #8]
   1224c:	8a000063 	bhi	123e0 <_realloc_r+0x56c>
   12250:	e3520013 	cmp	r2, #19
   12254:	91a03006 	movls	r3, r6
   12258:	9a000014 	bls	122b0 <_realloc_r+0x43c>
   1225c:	e5973000 	ldr	r3, [r7]
   12260:	e5883008 	str	r3, [r8, #8]
   12264:	e5973004 	ldr	r3, [r7, #4]
   12268:	e352001b 	cmp	r2, #27
   1226c:	e588300c 	str	r3, [r8, #12]
   12270:	92877008 	addls	r7, r7, #8
   12274:	92883010 	addls	r3, r8, #16
   12278:	9a00000c 	bls	122b0 <_realloc_r+0x43c>
   1227c:	e5973008 	ldr	r3, [r7, #8]
   12280:	e5883010 	str	r3, [r8, #16]
   12284:	e597300c 	ldr	r3, [r7, #12]
   12288:	e5883014 	str	r3, [r8, #20]
   1228c:	e3520024 	cmp	r2, #36	; 0x24
   12290:	05973010 	ldreq	r3, [r7, #16]
   12294:	05883018 	streq	r3, [r8, #24]
   12298:	05973014 	ldreq	r3, [r7, #20]
   1229c:	12877010 	addne	r7, r7, #16
   122a0:	0588301c 	streq	r3, [r8, #28]
   122a4:	12883018 	addne	r3, r8, #24
   122a8:	02877018 	addeq	r7, r7, #24
   122ac:	02883020 	addeq	r3, r8, #32
   122b0:	e5972000 	ldr	r2, [r7]
   122b4:	e5832000 	str	r2, [r3]
   122b8:	e5972004 	ldr	r2, [r7, #4]
   122bc:	e5832004 	str	r2, [r3, #4]
   122c0:	e5972008 	ldr	r2, [r7, #8]
   122c4:	e5832008 	str	r2, [r3, #8]
   122c8:	e59d3004 	ldr	r3, [sp, #4]
   122cc:	e0643003 	rsb	r3, r4, r3
   122d0:	e0882004 	add	r2, r8, r4
   122d4:	e3833001 	orr	r3, r3, #1
   122d8:	e58a2008 	str	r2, [sl, #8]
   122dc:	e5823004 	str	r3, [r2, #4]
   122e0:	e5983004 	ldr	r3, [r8, #4]
   122e4:	e2033001 	and	r3, r3, #1
   122e8:	e1834004 	orr	r4, r3, r4
   122ec:	e1a00009 	mov	r0, r9
   122f0:	e5884004 	str	r4, [r8, #4]
   122f4:	ebffe8ab 	bl	c5a8 <__malloc_unlock>
   122f8:	e1a00006 	mov	r0, r6
   122fc:	eaffff22 	b	11f8c <_realloc_r+0x118>
   12300:	e5973000 	ldr	r3, [r7]
   12304:	e5883000 	str	r3, [r8]
   12308:	e5973004 	ldr	r3, [r7, #4]
   1230c:	e352001b 	cmp	r2, #27
   12310:	e5883004 	str	r3, [r8, #4]
   12314:	92872008 	addls	r2, r7, #8
   12318:	92883008 	addls	r3, r8, #8
   1231c:	9affff0e 	bls	11f5c <_realloc_r+0xe8>
   12320:	e5973008 	ldr	r3, [r7, #8]
   12324:	e5883008 	str	r3, [r8, #8]
   12328:	e597300c 	ldr	r3, [r7, #12]
   1232c:	e588300c 	str	r3, [r8, #12]
   12330:	e3520024 	cmp	r2, #36	; 0x24
   12334:	05973010 	ldreq	r3, [r7, #16]
   12338:	05883010 	streq	r3, [r8, #16]
   1233c:	05972014 	ldreq	r2, [r7, #20]
   12340:	12883010 	addne	r3, r8, #16
   12344:	05882014 	streq	r2, [r8, #20]
   12348:	12872010 	addne	r2, r7, #16
   1234c:	02883018 	addeq	r3, r8, #24
   12350:	02872018 	addeq	r2, r7, #24
   12354:	eaffff00 	b	11f5c <_realloc_r+0xe8>
   12358:	e1a01007 	mov	r1, r7
   1235c:	e1a0000a 	mov	r0, sl
   12360:	e1a05003 	mov	r5, r3
   12364:	e1a06008 	mov	r6, r8
   12368:	ebfffafd 	bl	10f64 <memmove>
   1236c:	e1a0700a 	mov	r7, sl
   12370:	eaffff38 	b	12058 <_realloc_r+0x1e4>
   12374:	e064b002 	rsb	fp, r4, r2
   12378:	e0866004 	add	r6, r6, r4
   1237c:	e38b3001 	orr	r3, fp, #1
   12380:	e58a6008 	str	r6, [sl, #8]
   12384:	e5863004 	str	r3, [r6, #4]
   12388:	e5173004 	ldr	r3, [r7, #-4]
   1238c:	e2033001 	and	r3, r3, #1
   12390:	e1834004 	orr	r4, r3, r4
   12394:	e1a00009 	mov	r0, r9
   12398:	e5074004 	str	r4, [r7, #-4]
   1239c:	ebffe881 	bl	c5a8 <__malloc_unlock>
   123a0:	e1a00007 	mov	r0, r7
   123a4:	eafffef8 	b	11f8c <_realloc_r+0x118>
   123a8:	e1a01007 	mov	r1, r7
   123ac:	ebfffaec 	bl	10f64 <memmove>
   123b0:	eafffeef 	b	11f74 <_realloc_r+0x100>
   123b4:	e5183004 	ldr	r3, [r8, #-4]
   123b8:	e3c33003 	bic	r3, r3, #3
   123bc:	e0855003 	add	r5, r5, r3
   123c0:	eaffff24 	b	12058 <_realloc_r+0x1e4>
   123c4:	e1a01007 	mov	r1, r7
   123c8:	e1a0000a 	mov	r0, sl
   123cc:	e1a0500c 	mov	r5, ip
   123d0:	e1a06008 	mov	r6, r8
   123d4:	ebfffae2 	bl	10f64 <memmove>
   123d8:	e1a0700a 	mov	r7, sl
   123dc:	eaffff1d 	b	12058 <_realloc_r+0x1e4>
   123e0:	e1a01007 	mov	r1, r7
   123e4:	e1a00006 	mov	r0, r6
   123e8:	ebfffadd 	bl	10f64 <memmove>
   123ec:	eaffffb5 	b	122c8 <_realloc_r+0x454>
   123f0:	00016fbc 			; <UNDEFINED> instruction: 0x00016fbc

000123f4 <__sprint_r.part.0>:
   123f4:	e5913064 	ldr	r3, [r1, #100]	; 0x64
   123f8:	e3130a02 	tst	r3, #8192	; 0x2000
   123fc:	e92d47f0 	push	{r4, r5, r6, r7, r8, r9, sl, lr}
   12400:	e1a0a002 	mov	sl, r2
   12404:	0a000023 	beq	12498 <__sprint_r.part.0+0xa4>
   12408:	e5923008 	ldr	r3, [r2, #8]
   1240c:	e5929000 	ldr	r9, [r2]
   12410:	e3530000 	cmp	r3, #0
   12414:	11a07001 	movne	r7, r1
   12418:	11a08000 	movne	r8, r0
   1241c:	12899008 	addne	r9, r9, #8
   12420:	0a00001a 	beq	12490 <__sprint_r.part.0+0x9c>
   12424:	e5196004 	ldr	r6, [r9, #-4]
   12428:	e5195008 	ldr	r5, [r9, #-8]
   1242c:	e1b06126 	lsrs	r6, r6, #2
   12430:	13a04000 	movne	r4, #0
   12434:	12455004 	subne	r5, r5, #4
   12438:	1a000002 	bne	12448 <__sprint_r.part.0+0x54>
   1243c:	ea00000e 	b	1247c <__sprint_r.part.0+0x88>
   12440:	e1560004 	cmp	r6, r4
   12444:	0a00000b 	beq	12478 <__sprint_r.part.0+0x84>
   12448:	e1a02007 	mov	r2, r7
   1244c:	e5b51004 	ldr	r1, [r5, #4]!
   12450:	e1a00008 	mov	r0, r8
   12454:	eb00060b 	bl	13c88 <_fputwc_r>
   12458:	e3700001 	cmn	r0, #1
   1245c:	e2844001 	add	r4, r4, #1
   12460:	1afffff6 	bne	12440 <__sprint_r.part.0+0x4c>
   12464:	e3a03000 	mov	r3, #0
   12468:	e58a3008 	str	r3, [sl, #8]
   1246c:	e58a3004 	str	r3, [sl, #4]
   12470:	e8bd47f0 	pop	{r4, r5, r6, r7, r8, r9, sl, lr}
   12474:	e12fff1e 	bx	lr
   12478:	e59a3008 	ldr	r3, [sl, #8]
   1247c:	e0433106 	sub	r3, r3, r6, lsl #2
   12480:	e3530000 	cmp	r3, #0
   12484:	e58a3008 	str	r3, [sl, #8]
   12488:	e2899008 	add	r9, r9, #8
   1248c:	1affffe4 	bne	12424 <__sprint_r.part.0+0x30>
   12490:	e3a00000 	mov	r0, #0
   12494:	eafffff2 	b	12464 <__sprint_r.part.0+0x70>
   12498:	ebfff948 	bl	109c0 <__sfvwrite_r>
   1249c:	eafffff0 	b	12464 <__sprint_r.part.0+0x70>

000124a0 <__sprint_r>:
   124a0:	e5923008 	ldr	r3, [r2, #8]
   124a4:	e3530000 	cmp	r3, #0
   124a8:	1affffd1 	bne	123f4 <__sprint_r.part.0>
   124ac:	e5823004 	str	r3, [r2, #4]
   124b0:	e1a00003 	mov	r0, r3
   124b4:	e12fff1e 	bx	lr

000124b8 <_vfiprintf_r>:
   124b8:	e92d4ff0 	push	{r4, r5, r6, r7, r8, r9, sl, fp, lr}
   124bc:	e1a04003 	mov	r4, r3
   124c0:	e24dd0bc 	sub	sp, sp, #188	; 0xbc
   124c4:	e2503000 	subs	r3, r0, #0
   124c8:	e58d301c 	str	r3, [sp, #28]
   124cc:	e58d1004 	str	r1, [sp, #4]
   124d0:	e1a06002 	mov	r6, r2
   124d4:	e58d4020 	str	r4, [sp, #32]
   124d8:	0a000002 	beq	124e8 <_vfiprintf_r+0x30>
   124dc:	e5933038 	ldr	r3, [r3, #56]	; 0x38
   124e0:	e3530000 	cmp	r3, #0
   124e4:	0a0000c0 	beq	127ec <_vfiprintf_r+0x334>
   124e8:	e59d3004 	ldr	r3, [sp, #4]
   124ec:	e1d310fc 	ldrsh	r1, [r3, #12]
   124f0:	e1a02801 	lsl	r2, r1, #16
   124f4:	e3120202 	tst	r2, #536870912	; 0x20000000
   124f8:	e1a02822 	lsr	r2, r2, #16
   124fc:	1a000007 	bne	12520 <_vfiprintf_r+0x68>
   12500:	e1a02003 	mov	r2, r3
   12504:	e5933064 	ldr	r3, [r3, #100]	; 0x64
   12508:	e3811a02 	orr	r1, r1, #8192	; 0x2000
   1250c:	e1c210bc 	strh	r1, [r2, #12]
   12510:	e3c33a02 	bic	r3, r3, #8192	; 0x2000
   12514:	e1a01801 	lsl	r1, r1, #16
   12518:	e5823064 	str	r3, [r2, #100]	; 0x64
   1251c:	e1a02821 	lsr	r2, r1, #16
   12520:	e3120008 	tst	r2, #8
   12524:	0a00009b 	beq	12798 <_vfiprintf_r+0x2e0>
   12528:	e59d3004 	ldr	r3, [sp, #4]
   1252c:	e5933010 	ldr	r3, [r3, #16]
   12530:	e3530000 	cmp	r3, #0
   12534:	0a000097 	beq	12798 <_vfiprintf_r+0x2e0>
   12538:	e202201a 	and	r2, r2, #26
   1253c:	e352000a 	cmp	r2, #10
   12540:	0a00009e 	beq	127c0 <_vfiprintf_r+0x308>
   12544:	e3a03000 	mov	r3, #0
   12548:	e28db078 	add	fp, sp, #120	; 0x78
   1254c:	e1a0900b 	mov	r9, fp
   12550:	e58d3014 	str	r3, [sp, #20]
   12554:	e58d304c 	str	r3, [sp, #76]	; 0x4c
   12558:	e58d3048 	str	r3, [sp, #72]	; 0x48
   1255c:	e28d3077 	add	r3, sp, #119	; 0x77
   12560:	e063300b 	rsb	r3, r3, fp
   12564:	e58db044 	str	fp, [sp, #68]	; 0x44
   12568:	e59fafd8 	ldr	sl, [pc, #4056]	; 13548 <_vfiprintf_r+0x1090>
   1256c:	e59f7fc8 	ldr	r7, [pc, #4040]	; 1353c <_vfiprintf_r+0x1084>
   12570:	e58d3034 	str	r3, [sp, #52]	; 0x34
   12574:	e5d63000 	ldrb	r3, [r6]
   12578:	e3530000 	cmp	r3, #0
   1257c:	13530025 	cmpne	r3, #37	; 0x25
   12580:	e1a04006 	mov	r4, r6
   12584:	0a000013 	beq	125d8 <_vfiprintf_r+0x120>
   12588:	e5f43001 	ldrb	r3, [r4, #1]!
   1258c:	e3530000 	cmp	r3, #0
   12590:	13530025 	cmpne	r3, #37	; 0x25
   12594:	1afffffb 	bne	12588 <_vfiprintf_r+0xd0>
   12598:	e0545006 	subs	r5, r4, r6
   1259c:	0a00000d 	beq	125d8 <_vfiprintf_r+0x120>
   125a0:	e59d3048 	ldr	r3, [sp, #72]	; 0x48
   125a4:	e59d204c 	ldr	r2, [sp, #76]	; 0x4c
   125a8:	e2833001 	add	r3, r3, #1
   125ac:	e3530007 	cmp	r3, #7
   125b0:	e0852002 	add	r2, r5, r2
   125b4:	e5896000 	str	r6, [r9]
   125b8:	e5895004 	str	r5, [r9, #4]
   125bc:	e58d3048 	str	r3, [sp, #72]	; 0x48
   125c0:	e58d204c 	str	r2, [sp, #76]	; 0x4c
   125c4:	d2899008 	addle	r9, r9, #8
   125c8:	ca00006d 	bgt	12784 <_vfiprintf_r+0x2cc>
   125cc:	e59d3014 	ldr	r3, [sp, #20]
   125d0:	e0833005 	add	r3, r3, r5
   125d4:	e58d3014 	str	r3, [sp, #20]
   125d8:	e5d43000 	ldrb	r3, [r4]
   125dc:	e3530000 	cmp	r3, #0
   125e0:	0a000333 	beq	132b4 <_vfiprintf_r+0xdfc>
   125e4:	e3a03000 	mov	r3, #0
   125e8:	e1a01003 	mov	r1, r3
   125ec:	e5cd303f 	strb	r3, [sp, #63]	; 0x3f
   125f0:	e1a00003 	mov	r0, r3
   125f4:	e1a0c003 	mov	ip, r3
   125f8:	e1a05003 	mov	r5, r3
   125fc:	e5d43001 	ldrb	r3, [r4, #1]
   12600:	e2846001 	add	r6, r4, #1
   12604:	e3e02000 	mvn	r2, #0
   12608:	e58d2010 	str	r2, [sp, #16]
   1260c:	e2866001 	add	r6, r6, #1
   12610:	e2432020 	sub	r2, r3, #32
   12614:	e3520058 	cmp	r2, #88	; 0x58
   12618:	979ff102 	ldrls	pc, [pc, r2, lsl #2]
   1261c:	ea000299 	b	13088 <_vfiprintf_r+0xbd0>
   12620:	00012e20 	andeq	r2, r1, r0, lsr #28
   12624:	00013088 	andeq	r3, r1, r8, lsl #1
   12628:	00013088 	andeq	r3, r1, r8, lsl #1
   1262c:	00012e34 	andeq	r2, r1, r4, lsr lr
   12630:	00013088 	andeq	r3, r1, r8, lsl #1
   12634:	00013088 	andeq	r3, r1, r8, lsl #1
   12638:	00013088 	andeq	r3, r1, r8, lsl #1
   1263c:	00013088 	andeq	r3, r1, r8, lsl #1
   12640:	00013088 	andeq	r3, r1, r8, lsl #1
   12644:	00013088 	andeq	r3, r1, r8, lsl #1
   12648:	000127f4 	strdeq	r2, [r1], -r4
   1264c:	00012d20 	andeq	r2, r1, r0, lsr #26
   12650:	00013088 	andeq	r3, r1, r8, lsl #1
   12654:	00012810 	andeq	r2, r1, r0, lsl r8
   12658:	00012d30 	andeq	r2, r1, r0, lsr sp
   1265c:	00013088 	andeq	r3, r1, r8, lsl #1
   12660:	00012b00 	andeq	r2, r1, r0, lsl #22
   12664:	00012be8 	andeq	r2, r1, r8, ror #23
   12668:	00012be8 	andeq	r2, r1, r8, ror #23
   1266c:	00012be8 	andeq	r2, r1, r8, ror #23
   12670:	00012be8 	andeq	r2, r1, r8, ror #23
   12674:	00012be8 	andeq	r2, r1, r8, ror #23
   12678:	00012be8 	andeq	r2, r1, r8, ror #23
   1267c:	00012be8 	andeq	r2, r1, r8, ror #23
   12680:	00012be8 	andeq	r2, r1, r8, ror #23
   12684:	00012be8 	andeq	r2, r1, r8, ror #23
   12688:	00013088 	andeq	r3, r1, r8, lsl #1
   1268c:	00013088 	andeq	r3, r1, r8, lsl #1
   12690:	00013088 	andeq	r3, r1, r8, lsl #1
   12694:	00013088 	andeq	r3, r1, r8, lsl #1
   12698:	00013088 	andeq	r3, r1, r8, lsl #1
   1269c:	00013088 	andeq	r3, r1, r8, lsl #1
   126a0:	00013088 	andeq	r3, r1, r8, lsl #1
   126a4:	00013088 	andeq	r3, r1, r8, lsl #1
   126a8:	00013088 	andeq	r3, r1, r8, lsl #1
   126ac:	00013088 	andeq	r3, r1, r8, lsl #1
   126b0:	00012b0c 	andeq	r2, r1, ip, lsl #22
   126b4:	00013088 	andeq	r3, r1, r8, lsl #1
   126b8:	00013088 	andeq	r3, r1, r8, lsl #1
   126bc:	00013088 	andeq	r3, r1, r8, lsl #1
   126c0:	00013088 	andeq	r3, r1, r8, lsl #1
   126c4:	00013088 	andeq	r3, r1, r8, lsl #1
   126c8:	00013088 	andeq	r3, r1, r8, lsl #1
   126cc:	00013088 	andeq	r3, r1, r8, lsl #1
   126d0:	00013088 	andeq	r3, r1, r8, lsl #1
   126d4:	00013088 	andeq	r3, r1, r8, lsl #1
   126d8:	00013088 	andeq	r3, r1, r8, lsl #1
   126dc:	00012b94 	muleq	r1, r4, fp
   126e0:	00013088 	andeq	r3, r1, r8, lsl #1
   126e4:	00013088 	andeq	r3, r1, r8, lsl #1
   126e8:	00013088 	andeq	r3, r1, r8, lsl #1
   126ec:	00013088 	andeq	r3, r1, r8, lsl #1
   126f0:	00013088 	andeq	r3, r1, r8, lsl #1
   126f4:	00012c0c 	andeq	r2, r1, ip, lsl #24
   126f8:	00013088 	andeq	r3, r1, r8, lsl #1
   126fc:	00013088 	andeq	r3, r1, r8, lsl #1
   12700:	00012cbc 			; <UNDEFINED> instruction: 0x00012cbc
   12704:	00013088 	andeq	r3, r1, r8, lsl #1
   12708:	00013088 	andeq	r3, r1, r8, lsl #1
   1270c:	00013088 	andeq	r3, r1, r8, lsl #1
   12710:	00013088 	andeq	r3, r1, r8, lsl #1
   12714:	00013088 	andeq	r3, r1, r8, lsl #1
   12718:	00013088 	andeq	r3, r1, r8, lsl #1
   1271c:	00013088 	andeq	r3, r1, r8, lsl #1
   12720:	00013088 	andeq	r3, r1, r8, lsl #1
   12724:	00013088 	andeq	r3, r1, r8, lsl #1
   12728:	00013088 	andeq	r3, r1, r8, lsl #1
   1272c:	00012d84 	andeq	r2, r1, r4, lsl #27
   12730:	00012dcc 	andeq	r2, r1, ip, asr #27
   12734:	00013088 	andeq	r3, r1, r8, lsl #1
   12738:	00013088 	andeq	r3, r1, r8, lsl #1
   1273c:	00013088 	andeq	r3, r1, r8, lsl #1
   12740:	00012e78 	andeq	r2, r1, r8, ror lr
   12744:	00012dcc 	andeq	r2, r1, ip, asr #27
   12748:	00013088 	andeq	r3, r1, r8, lsl #1
   1274c:	00013088 	andeq	r3, r1, r8, lsl #1
   12750:	00012e84 	andeq	r2, r1, r4, lsl #29
   12754:	00013088 	andeq	r3, r1, r8, lsl #1
   12758:	00012ea0 	andeq	r2, r1, r0, lsr #29
   1275c:	00012ed0 	ldrdeq	r2, [r1], -r0
   12760:	0001281c 	andeq	r2, r1, ip, lsl r8
   12764:	00013018 	andeq	r3, r1, r8, lsl r0
   12768:	00013088 	andeq	r3, r1, r8, lsl #1
   1276c:	00013024 	andeq	r3, r1, r4, lsr #32
   12770:	00013088 	andeq	r3, r1, r8, lsl #1
   12774:	00012f90 	muleq	r1, r0, pc	; <UNPREDICTABLE>
   12778:	00013088 	andeq	r3, r1, r8, lsl #1
   1277c:	00013088 	andeq	r3, r1, r8, lsl #1
   12780:	00012e40 	andeq	r2, r1, r0, asr #28
   12784:	e3520000 	cmp	r2, #0
   12788:	1a00037b 	bne	1357c <_vfiprintf_r+0x10c4>
   1278c:	e58d2048 	str	r2, [sp, #72]	; 0x48
   12790:	e1a0900b 	mov	r9, fp
   12794:	eaffff8c 	b	125cc <_vfiprintf_r+0x114>
   12798:	e59d1004 	ldr	r1, [sp, #4]
   1279c:	e59d001c 	ldr	r0, [sp, #28]
   127a0:	ebfff2bf 	bl	f2a4 <__swsetup_r>
   127a4:	e3500000 	cmp	r0, #0
   127a8:	1a00041d 	bne	13824 <_vfiprintf_r+0x136c>
   127ac:	e59d3004 	ldr	r3, [sp, #4]
   127b0:	e1d320bc 	ldrh	r2, [r3, #12]
   127b4:	e202201a 	and	r2, r2, #26
   127b8:	e352000a 	cmp	r2, #10
   127bc:	1affff60 	bne	12544 <_vfiprintf_r+0x8c>
   127c0:	e59d1004 	ldr	r1, [sp, #4]
   127c4:	e1d130fe 	ldrsh	r3, [r1, #14]
   127c8:	e3530000 	cmp	r3, #0
   127cc:	baffff5c 	blt	12544 <_vfiprintf_r+0x8c>
   127d0:	e1a03004 	mov	r3, r4
   127d4:	e1a02006 	mov	r2, r6
   127d8:	e59d001c 	ldr	r0, [sp, #28]
   127dc:	eb000494 	bl	13a34 <__sbprintf>
   127e0:	e28dd0bc 	add	sp, sp, #188	; 0xbc
   127e4:	e8bd4ff0 	pop	{r4, r5, r6, r7, r8, r9, sl, fp, lr}
   127e8:	e12fff1e 	bx	lr
   127ec:	ebffe180 	bl	adf4 <__sinit>
   127f0:	eaffff3c 	b	124e8 <_vfiprintf_r+0x30>
   127f4:	e59d3020 	ldr	r3, [sp, #32]
   127f8:	e593c000 	ldr	ip, [r3]
   127fc:	e2833004 	add	r3, r3, #4
   12800:	e35c0000 	cmp	ip, #0
   12804:	e58d3020 	str	r3, [sp, #32]
   12808:	aa000001 	bge	12814 <_vfiprintf_r+0x35c>
   1280c:	e26cc000 	rsb	ip, ip, #0
   12810:	e3855004 	orr	r5, r5, #4
   12814:	e5d63000 	ldrb	r3, [r6]
   12818:	eaffff7b 	b	1260c <_vfiprintf_r+0x154>
   1281c:	e3a01030 	mov	r1, #48	; 0x30
   12820:	e3a03000 	mov	r3, #0
   12824:	e3a02078 	mov	r2, #120	; 0x78
   12828:	e59d0010 	ldr	r0, [sp, #16]
   1282c:	e5cd1040 	strb	r1, [sp, #64]	; 0x40
   12830:	e59d1020 	ldr	r1, [sp, #32]
   12834:	e1500003 	cmp	r0, r3
   12838:	e2818004 	add	r8, r1, #4
   1283c:	e5910000 	ldr	r0, [r1]
   12840:	e58dc024 	str	ip, [sp, #36]	; 0x24
   12844:	e5cd2041 	strb	r2, [sp, #65]	; 0x41
   12848:	e5cd303f 	strb	r3, [sp, #63]	; 0x3f
   1284c:	e3a01000 	mov	r1, #0
   12850:	ba00042e 	blt	13910 <_vfiprintf_r+0x1458>
   12854:	01a04003 	moveq	r4, r3
   12858:	13a04001 	movne	r4, #1
   1285c:	e1903001 	orrs	r3, r0, r1
   12860:	13844001 	orrne	r4, r4, #1
   12864:	e3c53080 	bic	r3, r5, #128	; 0x80
   12868:	e3540000 	cmp	r4, #0
   1286c:	e58d8020 	str	r8, [sp, #32]
   12870:	e3835002 	orr	r5, r3, #2
   12874:	0a0000c1 	beq	12b80 <_vfiprintf_r+0x6c8>
   12878:	e59f2cc4 	ldr	r2, [pc, #3268]	; 13544 <_vfiprintf_r+0x108c>
   1287c:	e1a0c00b 	mov	ip, fp
   12880:	e1a03220 	lsr	r3, r0, #4
   12884:	e1833e01 	orr	r3, r3, r1, lsl #28
   12888:	e1a04221 	lsr	r4, r1, #4
   1288c:	e200e00f 	and	lr, r0, #15
   12890:	e1a01004 	mov	r1, r4
   12894:	e1a00003 	mov	r0, r3
   12898:	e7d2300e 	ldrb	r3, [r2, lr]
   1289c:	e190e001 	orrs	lr, r0, r1
   128a0:	e56c3001 	strb	r3, [ip, #-1]!
   128a4:	1afffff5 	bne	12880 <_vfiprintf_r+0x3c8>
   128a8:	e3a04000 	mov	r4, #0
   128ac:	e06c300b 	rsb	r3, ip, fp
   128b0:	e58dc02c 	str	ip, [sp, #44]	; 0x2c
   128b4:	e58d3018 	str	r3, [sp, #24]
   128b8:	e59d3010 	ldr	r3, [sp, #16]
   128bc:	e59d2018 	ldr	r2, [sp, #24]
   128c0:	e1530002 	cmp	r3, r2
   128c4:	b1a03002 	movlt	r3, r2
   128c8:	e3540000 	cmp	r4, #0
   128cc:	e58d3008 	str	r3, [sp, #8]
   128d0:	12833001 	addne	r3, r3, #1
   128d4:	158d3008 	strne	r3, [sp, #8]
   128d8:	e2153002 	ands	r3, r5, #2
   128dc:	159d2008 	ldrne	r2, [sp, #8]
   128e0:	12822002 	addne	r2, r2, #2
   128e4:	158d2008 	strne	r2, [sp, #8]
   128e8:	e2152084 	ands	r2, r5, #132	; 0x84
   128ec:	e58d2028 	str	r2, [sp, #40]	; 0x28
   128f0:	1a0001fd 	bne	130ec <_vfiprintf_r+0xc34>
   128f4:	e59d2024 	ldr	r2, [sp, #36]	; 0x24
   128f8:	e59d1008 	ldr	r1, [sp, #8]
   128fc:	e0614002 	rsb	r4, r1, r2
   12900:	e3540000 	cmp	r4, #0
   12904:	da0001f8 	ble	130ec <_vfiprintf_r+0xc34>
   12908:	e3540010 	cmp	r4, #16
   1290c:	da000415 	ble	13968 <_vfiprintf_r+0x14b0>
   12910:	e59f1c30 	ldr	r1, [pc, #3120]	; 13548 <_vfiprintf_r+0x1090>
   12914:	e1a0e009 	mov	lr, r9
   12918:	e3a08010 	mov	r8, #16
   1291c:	e1a09006 	mov	r9, r6
   12920:	e59d204c 	ldr	r2, [sp, #76]	; 0x4c
   12924:	e59dc048 	ldr	ip, [sp, #72]	; 0x48
   12928:	e58d1030 	str	r1, [sp, #48]	; 0x30
   1292c:	e1a06003 	mov	r6, r3
   12930:	ea000005 	b	1294c <_vfiprintf_r+0x494>
   12934:	e28c0002 	add	r0, ip, #2
   12938:	e1a0c001 	mov	ip, r1
   1293c:	e28ee008 	add	lr, lr, #8
   12940:	e2444010 	sub	r4, r4, #16
   12944:	e3540010 	cmp	r4, #16
   12948:	da00000f 	ble	1298c <_vfiprintf_r+0x4d4>
   1294c:	e28c1001 	add	r1, ip, #1
   12950:	e2822010 	add	r2, r2, #16
   12954:	e3510007 	cmp	r1, #7
   12958:	e58d204c 	str	r2, [sp, #76]	; 0x4c
   1295c:	e58ea000 	str	sl, [lr]
   12960:	e58e8004 	str	r8, [lr, #4]
   12964:	e58d1048 	str	r1, [sp, #72]	; 0x48
   12968:	dafffff1 	ble	12934 <_vfiprintf_r+0x47c>
   1296c:	e3520000 	cmp	r2, #0
   12970:	1a0001d2 	bne	130c0 <_vfiprintf_r+0xc08>
   12974:	e2444010 	sub	r4, r4, #16
   12978:	e3540010 	cmp	r4, #16
   1297c:	e1a0c002 	mov	ip, r2
   12980:	e3a00001 	mov	r0, #1
   12984:	e1a0e00b 	mov	lr, fp
   12988:	caffffef 	bgt	1294c <_vfiprintf_r+0x494>
   1298c:	e1a03006 	mov	r3, r6
   12990:	e1a06009 	mov	r6, r9
   12994:	e1a0900e 	mov	r9, lr
   12998:	e59d1030 	ldr	r1, [sp, #48]	; 0x30
   1299c:	e3500007 	cmp	r0, #7
   129a0:	e0842002 	add	r2, r4, r2
   129a4:	e8890012 	stm	r9, {r1, r4}
   129a8:	e58d204c 	str	r2, [sp, #76]	; 0x4c
   129ac:	e58d0048 	str	r0, [sp, #72]	; 0x48
   129b0:	d2899008 	addle	r9, r9, #8
   129b4:	d280c001 	addle	ip, r0, #1
   129b8:	da0001ce 	ble	130f8 <_vfiprintf_r+0xc40>
   129bc:	e3520000 	cmp	r2, #0
   129c0:	1a00038a 	bne	137f0 <_vfiprintf_r+0x1338>
   129c4:	e5dd103f 	ldrb	r1, [sp, #63]	; 0x3f
   129c8:	e3510000 	cmp	r1, #0
   129cc:	0a000364 	beq	13764 <_vfiprintf_r+0x12ac>
   129d0:	e3a02001 	mov	r2, #1
   129d4:	e1a0900b 	mov	r9, fp
   129d8:	e1a0c002 	mov	ip, r2
   129dc:	e28d103f 	add	r1, sp, #63	; 0x3f
   129e0:	e58d207c 	str	r2, [sp, #124]	; 0x7c
   129e4:	e58d1078 	str	r1, [sp, #120]	; 0x78
   129e8:	e1a0000c 	mov	r0, ip
   129ec:	e2899008 	add	r9, r9, #8
   129f0:	e28cc001 	add	ip, ip, #1
   129f4:	e3530000 	cmp	r3, #0
   129f8:	0a0001d0 	beq	13140 <_vfiprintf_r+0xc88>
   129fc:	e3a01002 	mov	r1, #2
   12a00:	e28d3040 	add	r3, sp, #64	; 0x40
   12a04:	e0822001 	add	r2, r2, r1
   12a08:	e35c0007 	cmp	ip, #7
   12a0c:	e58d204c 	str	r2, [sp, #76]	; 0x4c
   12a10:	e58dc048 	str	ip, [sp, #72]	; 0x48
   12a14:	e5891004 	str	r1, [r9, #4]
   12a18:	e5893000 	str	r3, [r9]
   12a1c:	da00029a 	ble	1348c <_vfiprintf_r+0xfd4>
   12a20:	e3520000 	cmp	r2, #0
   12a24:	1a0002f0 	bne	135ec <_vfiprintf_r+0x1134>
   12a28:	e59d3028 	ldr	r3, [sp, #40]	; 0x28
   12a2c:	e3530080 	cmp	r3, #128	; 0x80
   12a30:	e3a0c001 	mov	ip, #1
   12a34:	e1a00002 	mov	r0, r2
   12a38:	e1a0900b 	mov	r9, fp
   12a3c:	1a0001c2 	bne	1314c <_vfiprintf_r+0xc94>
   12a40:	e59d3024 	ldr	r3, [sp, #36]	; 0x24
   12a44:	e59d1008 	ldr	r1, [sp, #8]
   12a48:	e0614003 	rsb	r4, r1, r3
   12a4c:	e3540000 	cmp	r4, #0
   12a50:	da0001bd 	ble	1314c <_vfiprintf_r+0xc94>
   12a54:	e3540010 	cmp	r4, #16
   12a58:	da0003d6 	ble	139b8 <_vfiprintf_r+0x1500>
   12a5c:	e59f3ad8 	ldr	r3, [pc, #2776]	; 1353c <_vfiprintf_r+0x1084>
   12a60:	e1a01009 	mov	r1, r9
   12a64:	e3a08010 	mov	r8, #16
   12a68:	e1a09004 	mov	r9, r4
   12a6c:	e58d3028 	str	r3, [sp, #40]	; 0x28
   12a70:	e59d401c 	ldr	r4, [sp, #28]
   12a74:	ea000005 	b	12a90 <_vfiprintf_r+0x5d8>
   12a78:	e280e002 	add	lr, r0, #2
   12a7c:	e1a00003 	mov	r0, r3
   12a80:	e2811008 	add	r1, r1, #8
   12a84:	e2499010 	sub	r9, r9, #16
   12a88:	e3590010 	cmp	r9, #16
   12a8c:	da00000e 	ble	12acc <_vfiprintf_r+0x614>
   12a90:	e2803001 	add	r3, r0, #1
   12a94:	e2822010 	add	r2, r2, #16
   12a98:	e3530007 	cmp	r3, #7
   12a9c:	e58d204c 	str	r2, [sp, #76]	; 0x4c
   12aa0:	e8810180 	stm	r1, {r7, r8}
   12aa4:	e58d3048 	str	r3, [sp, #72]	; 0x48
   12aa8:	dafffff2 	ble	12a78 <_vfiprintf_r+0x5c0>
   12aac:	e3520000 	cmp	r2, #0
   12ab0:	1a000264 	bne	13448 <_vfiprintf_r+0xf90>
   12ab4:	e2499010 	sub	r9, r9, #16
   12ab8:	e3590010 	cmp	r9, #16
   12abc:	e3a0e001 	mov	lr, #1
   12ac0:	e1a00002 	mov	r0, r2
   12ac4:	e1a0100b 	mov	r1, fp
   12ac8:	cafffff0 	bgt	12a90 <_vfiprintf_r+0x5d8>
   12acc:	e1a04009 	mov	r4, r9
   12ad0:	e1a09001 	mov	r9, r1
   12ad4:	e59d3028 	ldr	r3, [sp, #40]	; 0x28
   12ad8:	e0822004 	add	r2, r2, r4
   12adc:	e35e0007 	cmp	lr, #7
   12ae0:	e58d204c 	str	r2, [sp, #76]	; 0x4c
   12ae4:	e8890018 	stm	r9, {r3, r4}
   12ae8:	e58de048 	str	lr, [sp, #72]	; 0x48
   12aec:	ca0002c9 	bgt	13618 <_vfiprintf_r+0x1160>
   12af0:	e2899008 	add	r9, r9, #8
   12af4:	e28ec001 	add	ip, lr, #1
   12af8:	e1a0000e 	mov	r0, lr
   12afc:	ea000192 	b	1314c <_vfiprintf_r+0xc94>
   12b00:	e3855080 	orr	r5, r5, #128	; 0x80
   12b04:	e5d63000 	ldrb	r3, [r6]
   12b08:	eafffebf 	b	1260c <_vfiprintf_r+0x154>
   12b0c:	e3510000 	cmp	r1, #0
   12b10:	e3855010 	orr	r5, r5, #16
   12b14:	15cd003f 	strbne	r0, [sp, #63]	; 0x3f
   12b18:	e3150020 	tst	r5, #32
   12b1c:	e58dc024 	str	ip, [sp, #36]	; 0x24
   12b20:	0a0000ae 	beq	12de0 <_vfiprintf_r+0x928>
   12b24:	e59d3020 	ldr	r3, [sp, #32]
   12b28:	e2838007 	add	r8, r3, #7
   12b2c:	e3c88007 	bic	r8, r8, #7
   12b30:	e898000c 	ldm	r8, {r2, r3}
   12b34:	e2881008 	add	r1, r8, #8
   12b38:	e58d2008 	str	r2, [sp, #8]
   12b3c:	e58d300c 	str	r3, [sp, #12]
   12b40:	e58d1020 	str	r1, [sp, #32]
   12b44:	e3520000 	cmp	r2, #0
   12b48:	e2d33000 	sbcs	r3, r3, #0
   12b4c:	ba0002f8 	blt	13734 <_vfiprintf_r+0x127c>
   12b50:	e59d2010 	ldr	r2, [sp, #16]
   12b54:	e3520000 	cmp	r2, #0
   12b58:	ba0003ac 	blt	13a10 <_vfiprintf_r+0x1558>
   12b5c:	e28d4008 	add	r4, sp, #8
   12b60:	e8940018 	ldm	r4, {r3, r4}
   12b64:	e1a01003 	mov	r1, r3
   12b68:	e1813004 	orr	r3, r1, r4
   12b6c:	e3530000 	cmp	r3, #0
   12b70:	03520000 	cmpeq	r2, #0
   12b74:	e3c55080 	bic	r5, r5, #128	; 0x80
   12b78:	1a0003a4 	bne	13a10 <_vfiprintf_r+0x1558>
   12b7c:	e5dd403f 	ldrb	r4, [sp, #63]	; 0x3f
   12b80:	e3a03000 	mov	r3, #0
   12b84:	e58db02c 	str	fp, [sp, #44]	; 0x2c
   12b88:	e58d3010 	str	r3, [sp, #16]
   12b8c:	e58d3018 	str	r3, [sp, #24]
   12b90:	eaffff48 	b	128b8 <_vfiprintf_r+0x400>
   12b94:	e3510000 	cmp	r1, #0
   12b98:	e3855010 	orr	r5, r5, #16
   12b9c:	15cd003f 	strbne	r0, [sp, #63]	; 0x3f
   12ba0:	e2153020 	ands	r3, r5, #32
   12ba4:	e58dc024 	str	ip, [sp, #36]	; 0x24
   12ba8:	1a0000cd 	bne	12ee4 <_vfiprintf_r+0xa2c>
   12bac:	e2152010 	ands	r2, r5, #16
   12bb0:	1a000246 	bne	134d0 <_vfiprintf_r+0x1018>
   12bb4:	e2153040 	ands	r3, r5, #64	; 0x40
   12bb8:	0a000327 	beq	1385c <_vfiprintf_r+0x13a4>
   12bbc:	e59d3020 	ldr	r3, [sp, #32]
   12bc0:	e59d0010 	ldr	r0, [sp, #16]
   12bc4:	e1d310b0 	ldrh	r1, [r3]
   12bc8:	e3500000 	cmp	r0, #0
   12bcc:	e5cd203f 	strb	r2, [sp, #63]	; 0x3f
   12bd0:	e2838004 	add	r8, r3, #4
   12bd4:	e1a02001 	mov	r2, r1
   12bd8:	e3a03000 	mov	r3, #0
   12bdc:	aa000244 	bge	134f4 <_vfiprintf_r+0x103c>
   12be0:	e58d8020 	str	r8, [sp, #32]
   12be4:	ea0000cf 	b	12f28 <_vfiprintf_r+0xa70>
   12be8:	e3a0c000 	mov	ip, #0
   12bec:	e2432030 	sub	r2, r3, #48	; 0x30
   12bf0:	e4d63001 	ldrb	r3, [r6], #1
   12bf4:	e08cc10c 	add	ip, ip, ip, lsl #2
   12bf8:	e082c08c 	add	ip, r2, ip, lsl #1
   12bfc:	e2432030 	sub	r2, r3, #48	; 0x30
   12c00:	e3520009 	cmp	r2, #9
   12c04:	9afffff9 	bls	12bf0 <_vfiprintf_r+0x738>
   12c08:	eafffe80 	b	12610 <_vfiprintf_r+0x158>
   12c0c:	e3510000 	cmp	r1, #0
   12c10:	e3855010 	orr	r5, r5, #16
   12c14:	15cd003f 	strbne	r0, [sp, #63]	; 0x3f
   12c18:	e2153020 	ands	r3, r5, #32
   12c1c:	e58dc024 	str	ip, [sp, #36]	; 0x24
   12c20:	1a0000df 	bne	12fa4 <_vfiprintf_r+0xaec>
   12c24:	e2152010 	ands	r2, r5, #16
   12c28:	1a00028b 	bne	1365c <_vfiprintf_r+0x11a4>
   12c2c:	e2154040 	ands	r4, r5, #64	; 0x40
   12c30:	0a00031a 	beq	138a0 <_vfiprintf_r+0x13e8>
   12c34:	e59d1020 	ldr	r1, [sp, #32]
   12c38:	e59d0010 	ldr	r0, [sp, #16]
   12c3c:	e1d130b0 	ldrh	r3, [r1]
   12c40:	e3500000 	cmp	r0, #0
   12c44:	e2818004 	add	r8, r1, #4
   12c48:	e1a00003 	mov	r0, r3
   12c4c:	e3a01000 	mov	r1, #0
   12c50:	e5cd203f 	strb	r2, [sp, #63]	; 0x3f
   12c54:	e58d0008 	str	r0, [sp, #8]
   12c58:	e58d100c 	str	r1, [sp, #12]
   12c5c:	b58d8020 	strlt	r8, [sp, #32]
   12c60:	b1a04002 	movlt	r4, r2
   12c64:	ba000008 	blt	12c8c <_vfiprintf_r+0x7d4>
   12c68:	e59d1010 	ldr	r1, [sp, #16]
   12c6c:	e3510000 	cmp	r1, #0
   12c70:	03530000 	cmpeq	r3, #0
   12c74:	e58d8020 	str	r8, [sp, #32]
   12c78:	13a03001 	movne	r3, #1
   12c7c:	03a03000 	moveq	r3, #0
   12c80:	e3c55080 	bic	r5, r5, #128	; 0x80
   12c84:	0a0000dd 	beq	13000 <_vfiprintf_r+0xb48>
   12c88:	e1a04002 	mov	r4, r2
   12c8c:	e28d3008 	add	r3, sp, #8
   12c90:	e893000c 	ldm	r3, {r2, r3}
   12c94:	e3530000 	cmp	r3, #0
   12c98:	03520009 	cmpeq	r2, #9
   12c9c:	8a000288 	bhi	136c4 <_vfiprintf_r+0x120c>
   12ca0:	e2823030 	add	r3, r2, #48	; 0x30
   12ca4:	e5cd3077 	strb	r3, [sp, #119]	; 0x77
   12ca8:	e59d3034 	ldr	r3, [sp, #52]	; 0x34
   12cac:	e58d3018 	str	r3, [sp, #24]
   12cb0:	e28d3077 	add	r3, sp, #119	; 0x77
   12cb4:	e58d302c 	str	r3, [sp, #44]	; 0x2c
   12cb8:	eafffefe 	b	128b8 <_vfiprintf_r+0x400>
   12cbc:	e3510000 	cmp	r1, #0
   12cc0:	15cd003f 	strbne	r0, [sp, #63]	; 0x3f
   12cc4:	e3150020 	tst	r5, #32
   12cc8:	e58dc024 	str	ip, [sp, #36]	; 0x24
   12ccc:	e59f286c 	ldr	r2, [pc, #2156]	; 13540 <_vfiprintf_r+0x1088>
   12cd0:	0a000060 	beq	12e58 <_vfiprintf_r+0x9a0>
   12cd4:	e59d1020 	ldr	r1, [sp, #32]
   12cd8:	e2818007 	add	r8, r1, #7
   12cdc:	e3c81007 	bic	r1, r8, #7
   12ce0:	e2810008 	add	r0, r1, #8
   12ce4:	e58d0020 	str	r0, [sp, #32]
   12ce8:	e8910003 	ldm	r1, {r0, r1}
   12cec:	e215c001 	ands	ip, r5, #1
   12cf0:	0a0001e9 	beq	1349c <_vfiprintf_r+0xfe4>
   12cf4:	e190c001 	orrs	ip, r0, r1
   12cf8:	1a00024c 	bne	13630 <_vfiprintf_r+0x1178>
   12cfc:	e3a03000 	mov	r3, #0
   12d00:	e59dc010 	ldr	ip, [sp, #16]
   12d04:	e15c0003 	cmp	ip, r3
   12d08:	e5cd303f 	strb	r3, [sp, #63]	; 0x3f
   12d0c:	bafffeda 	blt	1287c <_vfiprintf_r+0x3c4>
   12d10:	e3c55080 	bic	r5, r5, #128	; 0x80
   12d14:	01a0400c 	moveq	r4, ip
   12d18:	0affff98 	beq	12b80 <_vfiprintf_r+0x6c8>
   12d1c:	eafffed6 	b	1287c <_vfiprintf_r+0x3c4>
   12d20:	e5d63000 	ldrb	r3, [r6]
   12d24:	e3a01001 	mov	r1, #1
   12d28:	e3a0002b 	mov	r0, #43	; 0x2b
   12d2c:	eafffe36 	b	1260c <_vfiprintf_r+0x154>
   12d30:	e5d63000 	ldrb	r3, [r6]
   12d34:	e353002a 	cmp	r3, #42	; 0x2a
   12d38:	e2864001 	add	r4, r6, #1
   12d3c:	0a000329 	beq	139e8 <_vfiprintf_r+0x1530>
   12d40:	e2432030 	sub	r2, r3, #48	; 0x30
   12d44:	e3520009 	cmp	r2, #9
   12d48:	83a02000 	movhi	r2, #0
   12d4c:	81a06004 	movhi	r6, r4
   12d50:	858d2010 	strhi	r2, [sp, #16]
   12d54:	8afffe2d 	bhi	12610 <_vfiprintf_r+0x158>
   12d58:	e3a0e000 	mov	lr, #0
   12d5c:	e4d43001 	ldrb	r3, [r4], #1
   12d60:	e08ee10e 	add	lr, lr, lr, lsl #2
   12d64:	e082e08e 	add	lr, r2, lr, lsl #1
   12d68:	e2432030 	sub	r2, r3, #48	; 0x30
   12d6c:	e3520009 	cmp	r2, #9
   12d70:	9afffff9 	bls	12d5c <_vfiprintf_r+0x8a4>
   12d74:	e18e2fce 	orr	r2, lr, lr, asr #31
   12d78:	e58d2010 	str	r2, [sp, #16]
   12d7c:	e1a06004 	mov	r6, r4
   12d80:	eafffe22 	b	12610 <_vfiprintf_r+0x158>
   12d84:	e3a03001 	mov	r3, #1
   12d88:	e3a02000 	mov	r2, #0
   12d8c:	e1a01003 	mov	r1, r3
   12d90:	e5cd203f 	strb	r2, [sp, #63]	; 0x3f
   12d94:	e1a02001 	mov	r2, r1
   12d98:	e59d0020 	ldr	r0, [sp, #32]
   12d9c:	e58d3008 	str	r3, [sp, #8]
   12da0:	e5903000 	ldr	r3, [r0]
   12da4:	e5cd3050 	strb	r3, [sp, #80]	; 0x50
   12da8:	e2803004 	add	r3, r0, #4
   12dac:	e58d3020 	str	r3, [sp, #32]
   12db0:	e28d3050 	add	r3, sp, #80	; 0x50
   12db4:	e58dc024 	str	ip, [sp, #36]	; 0x24
   12db8:	e58d1018 	str	r1, [sp, #24]
   12dbc:	e58d302c 	str	r3, [sp, #44]	; 0x2c
   12dc0:	e3a03000 	mov	r3, #0
   12dc4:	e58d3010 	str	r3, [sp, #16]
   12dc8:	eafffec2 	b	128d8 <_vfiprintf_r+0x420>
   12dcc:	e3510000 	cmp	r1, #0
   12dd0:	15cd003f 	strbne	r0, [sp, #63]	; 0x3f
   12dd4:	e3150020 	tst	r5, #32
   12dd8:	e58dc024 	str	ip, [sp, #36]	; 0x24
   12ddc:	1affff50 	bne	12b24 <_vfiprintf_r+0x66c>
   12de0:	e59d0020 	ldr	r0, [sp, #32]
   12de4:	e3150010 	tst	r5, #16
   12de8:	e1a03000 	mov	r3, r0
   12dec:	1a000001 	bne	12df8 <_vfiprintf_r+0x940>
   12df0:	e3150040 	tst	r5, #64	; 0x40
   12df4:	1a0002c3 	bne	13908 <_vfiprintf_r+0x1450>
   12df8:	e5933000 	ldr	r3, [r3]
   12dfc:	e1a01003 	mov	r1, r3
   12e00:	e1a02fc3 	asr	r2, r3, #31
   12e04:	e1a03002 	mov	r3, r2
   12e08:	e1a02001 	mov	r2, r1
   12e0c:	e2801004 	add	r1, r0, #4
   12e10:	e58d2008 	str	r2, [sp, #8]
   12e14:	e58d300c 	str	r3, [sp, #12]
   12e18:	e58d1020 	str	r1, [sp, #32]
   12e1c:	eaffff48 	b	12b44 <_vfiprintf_r+0x68c>
   12e20:	e3500000 	cmp	r0, #0
   12e24:	e5d63000 	ldrb	r3, [r6]
   12e28:	03a01001 	moveq	r1, #1
   12e2c:	03a00020 	moveq	r0, #32
   12e30:	eafffdf5 	b	1260c <_vfiprintf_r+0x154>
   12e34:	e3855001 	orr	r5, r5, #1
   12e38:	e5d63000 	ldrb	r3, [r6]
   12e3c:	eafffdf2 	b	1260c <_vfiprintf_r+0x154>
   12e40:	e3510000 	cmp	r1, #0
   12e44:	15cd003f 	strbne	r0, [sp, #63]	; 0x3f
   12e48:	e3150020 	tst	r5, #32
   12e4c:	e58dc024 	str	ip, [sp, #36]	; 0x24
   12e50:	e59f26ec 	ldr	r2, [pc, #1772]	; 13544 <_vfiprintf_r+0x108c>
   12e54:	1affff9e 	bne	12cd4 <_vfiprintf_r+0x81c>
   12e58:	e3150010 	tst	r5, #16
   12e5c:	0a00025b 	beq	137d0 <_vfiprintf_r+0x1318>
   12e60:	e59d1020 	ldr	r1, [sp, #32]
   12e64:	e5910000 	ldr	r0, [r1]
   12e68:	e2811004 	add	r1, r1, #4
   12e6c:	e58d1020 	str	r1, [sp, #32]
   12e70:	e3a01000 	mov	r1, #0
   12e74:	eaffff9c 	b	12cec <_vfiprintf_r+0x834>
   12e78:	e3855040 	orr	r5, r5, #64	; 0x40
   12e7c:	e5d63000 	ldrb	r3, [r6]
   12e80:	eafffde1 	b	1260c <_vfiprintf_r+0x154>
   12e84:	e5d63000 	ldrb	r3, [r6]
   12e88:	e353006c 	cmp	r3, #108	; 0x6c
   12e8c:	05d63001 	ldrbeq	r3, [r6, #1]
   12e90:	03855020 	orreq	r5, r5, #32
   12e94:	02866001 	addeq	r6, r6, #1
   12e98:	13855010 	orrne	r5, r5, #16
   12e9c:	eafffdda 	b	1260c <_vfiprintf_r+0x154>
   12ea0:	e3510000 	cmp	r1, #0
   12ea4:	15cd003f 	strbne	r0, [sp, #63]	; 0x3f
   12ea8:	e3150020 	tst	r5, #32
   12eac:	0a000235 	beq	13788 <_vfiprintf_r+0x12d0>
   12eb0:	e59d3020 	ldr	r3, [sp, #32]
   12eb4:	e59d2014 	ldr	r2, [sp, #20]
   12eb8:	e5931000 	ldr	r1, [r3]
   12ebc:	e2833004 	add	r3, r3, #4
   12ec0:	e58d3020 	str	r3, [sp, #32]
   12ec4:	e1a03fc2 	asr	r3, r2, #31
   12ec8:	e881000c 	stm	r1, {r2, r3}
   12ecc:	eafffda8 	b	12574 <_vfiprintf_r+0xbc>
   12ed0:	e3510000 	cmp	r1, #0
   12ed4:	15cd003f 	strbne	r0, [sp, #63]	; 0x3f
   12ed8:	e2153020 	ands	r3, r5, #32
   12edc:	e58dc024 	str	ip, [sp, #36]	; 0x24
   12ee0:	0affff31 	beq	12bac <_vfiprintf_r+0x6f4>
   12ee4:	e3a01000 	mov	r1, #0
   12ee8:	e59d3020 	ldr	r3, [sp, #32]
   12eec:	e59d2010 	ldr	r2, [sp, #16]
   12ef0:	e2838007 	add	r8, r3, #7
   12ef4:	e3c83007 	bic	r3, r8, #7
   12ef8:	e1520001 	cmp	r2, r1
   12efc:	e2832008 	add	r2, r3, #8
   12f00:	e58d2020 	str	r2, [sp, #32]
   12f04:	e5cd103f 	strb	r1, [sp, #63]	; 0x3f
   12f08:	e893000c 	ldm	r3, {r2, r3}
   12f0c:	ba000005 	blt	12f28 <_vfiprintf_r+0xa70>
   12f10:	e59d0010 	ldr	r0, [sp, #16]
   12f14:	e1821003 	orr	r1, r2, r3
   12f18:	e3510000 	cmp	r1, #0
   12f1c:	03500000 	cmpeq	r0, #0
   12f20:	e3c55080 	bic	r5, r5, #128	; 0x80
   12f24:	0a000178 	beq	1350c <_vfiprintf_r+0x1054>
   12f28:	e1a0000b 	mov	r0, fp
   12f2c:	e1a0c1a2 	lsr	ip, r2, #3
   12f30:	e18cce83 	orr	ip, ip, r3, lsl #29
   12f34:	e1a0e1a3 	lsr	lr, r3, #3
   12f38:	e2021007 	and	r1, r2, #7
   12f3c:	e1a0300e 	mov	r3, lr
   12f40:	e1a0200c 	mov	r2, ip
   12f44:	e2811030 	add	r1, r1, #48	; 0x30
   12f48:	e192c003 	orrs	ip, r2, r3
   12f4c:	e5601001 	strb	r1, [r0, #-1]!
   12f50:	1afffff5 	bne	12f2c <_vfiprintf_r+0xa74>
   12f54:	e3510030 	cmp	r1, #48	; 0x30
   12f58:	03a04000 	moveq	r4, #0
   12f5c:	12054001 	andne	r4, r5, #1
   12f60:	e3540000 	cmp	r4, #0
   12f64:	13a03030 	movne	r3, #48	; 0x30
   12f68:	12402001 	subne	r2, r0, #1
   12f6c:	0060300b 	rsbeq	r3, r0, fp
   12f70:	15403001 	strbne	r3, [r0, #-1]
   12f74:	1062300b 	rsbne	r3, r2, fp
   12f78:	058d3018 	streq	r3, [sp, #24]
   12f7c:	058d002c 	streq	r0, [sp, #44]	; 0x2c
   12f80:	158d202c 	strne	r2, [sp, #44]	; 0x2c
   12f84:	158d3018 	strne	r3, [sp, #24]
   12f88:	13a04000 	movne	r4, #0
   12f8c:	eafffe49 	b	128b8 <_vfiprintf_r+0x400>
   12f90:	e3510000 	cmp	r1, #0
   12f94:	15cd003f 	strbne	r0, [sp, #63]	; 0x3f
   12f98:	e2153020 	ands	r3, r5, #32
   12f9c:	e58dc024 	str	ip, [sp, #36]	; 0x24
   12fa0:	0affff1f 	beq	12c24 <_vfiprintf_r+0x76c>
   12fa4:	e3a04000 	mov	r4, #0
   12fa8:	e59d3020 	ldr	r3, [sp, #32]
   12fac:	e59d2010 	ldr	r2, [sp, #16]
   12fb0:	e2838007 	add	r8, r3, #7
   12fb4:	e3c83007 	bic	r3, r8, #7
   12fb8:	e1520004 	cmp	r2, r4
   12fbc:	e2832008 	add	r2, r3, #8
   12fc0:	e58d2020 	str	r2, [sp, #32]
   12fc4:	e893000c 	ldm	r3, {r2, r3}
   12fc8:	e5cd403f 	strb	r4, [sp, #63]	; 0x3f
   12fcc:	e58d2008 	str	r2, [sp, #8]
   12fd0:	e58d300c 	str	r3, [sp, #12]
   12fd4:	baffff2c 	blt	12c8c <_vfiprintf_r+0x7d4>
   12fd8:	e28d3008 	add	r3, sp, #8
   12fdc:	e893000c 	ldm	r3, {r2, r3}
   12fe0:	e1823003 	orr	r3, r2, r3
   12fe4:	e59d2010 	ldr	r2, [sp, #16]
   12fe8:	e3530000 	cmp	r3, #0
   12fec:	03520000 	cmpeq	r2, #0
   12ff0:	e3c55080 	bic	r5, r5, #128	; 0x80
   12ff4:	13a03001 	movne	r3, #1
   12ff8:	03a03000 	moveq	r3, #0
   12ffc:	1affff22 	bne	12c8c <_vfiprintf_r+0x7d4>
   13000:	e1a04003 	mov	r4, r3
   13004:	e3a03000 	mov	r3, #0
   13008:	e58db02c 	str	fp, [sp, #44]	; 0x2c
   1300c:	e58d3010 	str	r3, [sp, #16]
   13010:	e58d3018 	str	r3, [sp, #24]
   13014:	eafffe27 	b	128b8 <_vfiprintf_r+0x400>
   13018:	e3855020 	orr	r5, r5, #32
   1301c:	e5d63000 	ldrb	r3, [r6]
   13020:	eafffd79 	b	1260c <_vfiprintf_r+0x154>
   13024:	e3a04000 	mov	r4, #0
   13028:	e59d3020 	ldr	r3, [sp, #32]
   1302c:	e5932000 	ldr	r2, [r3]
   13030:	e1520004 	cmp	r2, r4
   13034:	e2838004 	add	r8, r3, #4
   13038:	e58dc024 	str	ip, [sp, #36]	; 0x24
   1303c:	e58d202c 	str	r2, [sp, #44]	; 0x2c
   13040:	e5cd403f 	strb	r4, [sp, #63]	; 0x3f
   13044:	e59d3010 	ldr	r3, [sp, #16]
   13048:	0a00024c 	beq	13980 <_vfiprintf_r+0x14c8>
   1304c:	e3530000 	cmp	r3, #0
   13050:	ba000232 	blt	13920 <_vfiprintf_r+0x1468>
   13054:	e1a02003 	mov	r2, r3
   13058:	e1a01004 	mov	r1, r4
   1305c:	e59d002c 	ldr	r0, [sp, #44]	; 0x2c
   13060:	ebffe491 	bl	c2ac <memchr>
   13064:	e3500000 	cmp	r0, #0
   13068:	0a000256 	beq	139c8 <_vfiprintf_r+0x1510>
   1306c:	e59d302c 	ldr	r3, [sp, #44]	; 0x2c
   13070:	e0633000 	rsb	r3, r3, r0
   13074:	e58d4010 	str	r4, [sp, #16]
   13078:	e58d3018 	str	r3, [sp, #24]
   1307c:	e58d8020 	str	r8, [sp, #32]
   13080:	e5dd403f 	ldrb	r4, [sp, #63]	; 0x3f
   13084:	eafffe0b 	b	128b8 <_vfiprintf_r+0x400>
   13088:	e3510000 	cmp	r1, #0
   1308c:	15cd003f 	strbne	r0, [sp, #63]	; 0x3f
   13090:	e3530000 	cmp	r3, #0
   13094:	e58dc024 	str	ip, [sp, #36]	; 0x24
   13098:	0a000085 	beq	132b4 <_vfiprintf_r+0xdfc>
   1309c:	e3a01001 	mov	r1, #1
   130a0:	e3a02000 	mov	r2, #0
   130a4:	e5cd3050 	strb	r3, [sp, #80]	; 0x50
   130a8:	e28d3050 	add	r3, sp, #80	; 0x50
   130ac:	e58d1008 	str	r1, [sp, #8]
   130b0:	e5cd203f 	strb	r2, [sp, #63]	; 0x3f
   130b4:	e58d1018 	str	r1, [sp, #24]
   130b8:	e58d302c 	str	r3, [sp, #44]	; 0x2c
   130bc:	eaffff3f 	b	12dc0 <_vfiprintf_r+0x908>
   130c0:	e28d2044 	add	r2, sp, #68	; 0x44
   130c4:	e59d1004 	ldr	r1, [sp, #4]
   130c8:	e59d001c 	ldr	r0, [sp, #28]
   130cc:	ebfffcc8 	bl	123f4 <__sprint_r.part.0>
   130d0:	e3500000 	cmp	r0, #0
   130d4:	1a00007c 	bne	132cc <_vfiprintf_r+0xe14>
   130d8:	e59dc048 	ldr	ip, [sp, #72]	; 0x48
   130dc:	e1a0e00b 	mov	lr, fp
   130e0:	e59d204c 	ldr	r2, [sp, #76]	; 0x4c
   130e4:	e28c0001 	add	r0, ip, #1
   130e8:	eafffe14 	b	12940 <_vfiprintf_r+0x488>
   130ec:	e28d0048 	add	r0, sp, #72	; 0x48
   130f0:	e8900005 	ldm	r0, {r0, r2}
   130f4:	e280c001 	add	ip, r0, #1
   130f8:	e5dd103f 	ldrb	r1, [sp, #63]	; 0x3f
   130fc:	e3510000 	cmp	r1, #0
   13100:	0afffe3b 	beq	129f4 <_vfiprintf_r+0x53c>
   13104:	e3a01001 	mov	r1, #1
   13108:	e28d003f 	add	r0, sp, #63	; 0x3f
   1310c:	e0822001 	add	r2, r2, r1
   13110:	e35c0007 	cmp	ip, #7
   13114:	e58d204c 	str	r2, [sp, #76]	; 0x4c
   13118:	e58dc048 	str	ip, [sp, #72]	; 0x48
   1311c:	e8890003 	stm	r9, {r0, r1}
   13120:	dafffe30 	ble	129e8 <_vfiprintf_r+0x530>
   13124:	e3520000 	cmp	r2, #0
   13128:	1a000122 	bne	135b8 <_vfiprintf_r+0x1100>
   1312c:	e3530000 	cmp	r3, #0
   13130:	1a0000cf 	bne	13474 <_vfiprintf_r+0xfbc>
   13134:	e1a0c001 	mov	ip, r1
   13138:	e1a00002 	mov	r0, r2
   1313c:	e1a0900b 	mov	r9, fp
   13140:	e59d3028 	ldr	r3, [sp, #40]	; 0x28
   13144:	e3530080 	cmp	r3, #128	; 0x80
   13148:	0afffe3c 	beq	12a40 <_vfiprintf_r+0x588>
   1314c:	e59d3010 	ldr	r3, [sp, #16]
   13150:	e59d1018 	ldr	r1, [sp, #24]
   13154:	e0614003 	rsb	r4, r1, r3
   13158:	e3540000 	cmp	r4, #0
   1315c:	da00006c 	ble	13314 <_vfiprintf_r+0xe5c>
   13160:	e3540010 	cmp	r4, #16
   13164:	d59f33d0 	ldrle	r3, [pc, #976]	; 1353c <_vfiprintf_r+0x1084>
   13168:	d58d3028 	strle	r3, [sp, #40]	; 0x28
   1316c:	da00001d 	ble	131e8 <_vfiprintf_r+0xd30>
   13170:	e59f33c4 	ldr	r3, [pc, #964]	; 1353c <_vfiprintf_r+0x1084>
   13174:	e1a01009 	mov	r1, r9
   13178:	e3a08010 	mov	r8, #16
   1317c:	e1a09004 	mov	r9, r4
   13180:	e58d3028 	str	r3, [sp, #40]	; 0x28
   13184:	e59d401c 	ldr	r4, [sp, #28]
   13188:	ea000005 	b	131a4 <_vfiprintf_r+0xcec>
   1318c:	e280c002 	add	ip, r0, #2
   13190:	e1a00003 	mov	r0, r3
   13194:	e2811008 	add	r1, r1, #8
   13198:	e2499010 	sub	r9, r9, #16
   1319c:	e3590010 	cmp	r9, #16
   131a0:	da00000e 	ble	131e0 <_vfiprintf_r+0xd28>
   131a4:	e2803001 	add	r3, r0, #1
   131a8:	e2822010 	add	r2, r2, #16
   131ac:	e3530007 	cmp	r3, #7
   131b0:	e58d204c 	str	r2, [sp, #76]	; 0x4c
   131b4:	e8810180 	stm	r1, {r7, r8}
   131b8:	e58d3048 	str	r3, [sp, #72]	; 0x48
   131bc:	dafffff2 	ble	1318c <_vfiprintf_r+0xcd4>
   131c0:	e3520000 	cmp	r2, #0
   131c4:	1a00002f 	bne	13288 <_vfiprintf_r+0xdd0>
   131c8:	e2499010 	sub	r9, r9, #16
   131cc:	e3590010 	cmp	r9, #16
   131d0:	e3a0c001 	mov	ip, #1
   131d4:	e1a00002 	mov	r0, r2
   131d8:	e1a0100b 	mov	r1, fp
   131dc:	cafffff0 	bgt	131a4 <_vfiprintf_r+0xcec>
   131e0:	e1a04009 	mov	r4, r9
   131e4:	e1a09001 	mov	r9, r1
   131e8:	e59d3028 	ldr	r3, [sp, #40]	; 0x28
   131ec:	e35c0007 	cmp	ip, #7
   131f0:	e0822004 	add	r2, r2, r4
   131f4:	e8890018 	stm	r9, {r3, r4}
   131f8:	e58dc048 	str	ip, [sp, #72]	; 0x48
   131fc:	e58d204c 	str	r2, [sp, #76]	; 0x4c
   13200:	d2899008 	addle	r9, r9, #8
   13204:	d28cc001 	addle	ip, ip, #1
   13208:	da000041 	ble	13314 <_vfiprintf_r+0xe5c>
   1320c:	e3520000 	cmp	r2, #0
   13210:	1a000035 	bne	132ec <_vfiprintf_r+0xe34>
   13214:	e3a03001 	mov	r3, #1
   13218:	e1a0900b 	mov	r9, fp
   1321c:	e59d2018 	ldr	r2, [sp, #24]
   13220:	e59d102c 	ldr	r1, [sp, #44]	; 0x2c
   13224:	e58d207c 	str	r2, [sp, #124]	; 0x7c
   13228:	e58d204c 	str	r2, [sp, #76]	; 0x4c
   1322c:	e58d1078 	str	r1, [sp, #120]	; 0x78
   13230:	e58d3048 	str	r3, [sp, #72]	; 0x48
   13234:	e2899008 	add	r9, r9, #8
   13238:	e3150004 	tst	r5, #4
   1323c:	0a000004 	beq	13254 <_vfiprintf_r+0xd9c>
   13240:	e59d3024 	ldr	r3, [sp, #36]	; 0x24
   13244:	e59d1008 	ldr	r1, [sp, #8]
   13248:	e0614003 	rsb	r4, r1, r3
   1324c:	e3540000 	cmp	r4, #0
   13250:	ca000042 	bgt	13360 <_vfiprintf_r+0xea8>
   13254:	e59d3014 	ldr	r3, [sp, #20]
   13258:	e59d1024 	ldr	r1, [sp, #36]	; 0x24
   1325c:	e59d0008 	ldr	r0, [sp, #8]
   13260:	e1510000 	cmp	r1, r0
   13264:	a0833001 	addge	r3, r3, r1
   13268:	b0833000 	addlt	r3, r3, r0
   1326c:	e3520000 	cmp	r2, #0
   13270:	e58d3014 	str	r3, [sp, #20]
   13274:	1a0000c8 	bne	1359c <_vfiprintf_r+0x10e4>
   13278:	e3a03000 	mov	r3, #0
   1327c:	e1a0900b 	mov	r9, fp
   13280:	e58d3048 	str	r3, [sp, #72]	; 0x48
   13284:	eafffcba 	b	12574 <_vfiprintf_r+0xbc>
   13288:	e28d2044 	add	r2, sp, #68	; 0x44
   1328c:	e59d1004 	ldr	r1, [sp, #4]
   13290:	e1a00004 	mov	r0, r4
   13294:	ebfffc56 	bl	123f4 <__sprint_r.part.0>
   13298:	e3500000 	cmp	r0, #0
   1329c:	1a00000a 	bne	132cc <_vfiprintf_r+0xe14>
   132a0:	e28d0048 	add	r0, sp, #72	; 0x48
   132a4:	e8900005 	ldm	r0, {r0, r2}
   132a8:	e1a0100b 	mov	r1, fp
   132ac:	e280c001 	add	ip, r0, #1
   132b0:	eaffffb8 	b	13198 <_vfiprintf_r+0xce0>
   132b4:	e59d304c 	ldr	r3, [sp, #76]	; 0x4c
   132b8:	e3530000 	cmp	r3, #0
   132bc:	159d001c 	ldrne	r0, [sp, #28]
   132c0:	128d2044 	addne	r2, sp, #68	; 0x44
   132c4:	159d1004 	ldrne	r1, [sp, #4]
   132c8:	1bfffc49 	blne	123f4 <__sprint_r.part.0>
   132cc:	e59d3004 	ldr	r3, [sp, #4]
   132d0:	e1d330bc 	ldrh	r3, [r3, #12]
   132d4:	e3130040 	tst	r3, #64	; 0x40
   132d8:	1a000151 	bne	13824 <_vfiprintf_r+0x136c>
   132dc:	e59d0014 	ldr	r0, [sp, #20]
   132e0:	e28dd0bc 	add	sp, sp, #188	; 0xbc
   132e4:	e8bd4ff0 	pop	{r4, r5, r6, r7, r8, r9, sl, fp, lr}
   132e8:	e12fff1e 	bx	lr
   132ec:	e28d2044 	add	r2, sp, #68	; 0x44
   132f0:	e59d1004 	ldr	r1, [sp, #4]
   132f4:	e59d001c 	ldr	r0, [sp, #28]
   132f8:	ebfffc3d 	bl	123f4 <__sprint_r.part.0>
   132fc:	e3500000 	cmp	r0, #0
   13300:	1afffff1 	bne	132cc <_vfiprintf_r+0xe14>
   13304:	e1a0900b 	mov	r9, fp
   13308:	e59dc048 	ldr	ip, [sp, #72]	; 0x48
   1330c:	e59d204c 	ldr	r2, [sp, #76]	; 0x4c
   13310:	e28cc001 	add	ip, ip, #1
   13314:	e59d3018 	ldr	r3, [sp, #24]
   13318:	e59d102c 	ldr	r1, [sp, #44]	; 0x2c
   1331c:	e0832002 	add	r2, r3, r2
   13320:	e35c0007 	cmp	ip, #7
   13324:	e58d204c 	str	r2, [sp, #76]	; 0x4c
   13328:	e889000a 	stm	r9, {r1, r3}
   1332c:	e58dc048 	str	ip, [sp, #72]	; 0x48
   13330:	daffffbf 	ble	13234 <_vfiprintf_r+0xd7c>
   13334:	e3520000 	cmp	r2, #0
   13338:	1a000086 	bne	13558 <_vfiprintf_r+0x10a0>
   1333c:	e3150004 	tst	r5, #4
   13340:	e58d2048 	str	r2, [sp, #72]	; 0x48
   13344:	0a00002c 	beq	133fc <_vfiprintf_r+0xf44>
   13348:	e59d3024 	ldr	r3, [sp, #36]	; 0x24
   1334c:	e59d1008 	ldr	r1, [sp, #8]
   13350:	e0614003 	rsb	r4, r1, r3
   13354:	e3540000 	cmp	r4, #0
   13358:	c1a0900b 	movgt	r9, fp
   1335c:	da000026 	ble	133fc <_vfiprintf_r+0xf44>
   13360:	e3540010 	cmp	r4, #16
   13364:	da00018e 	ble	139a4 <_vfiprintf_r+0x14ec>
   13368:	e59f31d8 	ldr	r3, [pc, #472]	; 13548 <_vfiprintf_r+0x1090>
   1336c:	e3a05010 	mov	r5, #16
   13370:	e59d1048 	ldr	r1, [sp, #72]	; 0x48
   13374:	e58d3030 	str	r3, [sp, #48]	; 0x30
   13378:	e59d801c 	ldr	r8, [sp, #28]
   1337c:	ea000005 	b	13398 <_vfiprintf_r+0xee0>
   13380:	e2810002 	add	r0, r1, #2
   13384:	e1a01003 	mov	r1, r3
   13388:	e2899008 	add	r9, r9, #8
   1338c:	e2444010 	sub	r4, r4, #16
   13390:	e3540010 	cmp	r4, #16
   13394:	da00000f 	ble	133d8 <_vfiprintf_r+0xf20>
   13398:	e2813001 	add	r3, r1, #1
   1339c:	e2822010 	add	r2, r2, #16
   133a0:	e3530007 	cmp	r3, #7
   133a4:	e58d204c 	str	r2, [sp, #76]	; 0x4c
   133a8:	e589a000 	str	sl, [r9]
   133ac:	e5895004 	str	r5, [r9, #4]
   133b0:	e58d3048 	str	r3, [sp, #72]	; 0x48
   133b4:	dafffff1 	ble	13380 <_vfiprintf_r+0xec8>
   133b8:	e3520000 	cmp	r2, #0
   133bc:	1a000016 	bne	1341c <_vfiprintf_r+0xf64>
   133c0:	e2444010 	sub	r4, r4, #16
   133c4:	e3540010 	cmp	r4, #16
   133c8:	e3a00001 	mov	r0, #1
   133cc:	e1a01002 	mov	r1, r2
   133d0:	e1a0900b 	mov	r9, fp
   133d4:	caffffef 	bgt	13398 <_vfiprintf_r+0xee0>
   133d8:	e59d3030 	ldr	r3, [sp, #48]	; 0x30
   133dc:	e0822004 	add	r2, r2, r4
   133e0:	e3500007 	cmp	r0, #7
   133e4:	e58d204c 	str	r2, [sp, #76]	; 0x4c
   133e8:	e8890018 	stm	r9, {r3, r4}
   133ec:	e58d0048 	str	r0, [sp, #72]	; 0x48
   133f0:	daffff97 	ble	13254 <_vfiprintf_r+0xd9c>
   133f4:	e3520000 	cmp	r2, #0
   133f8:	1a00010b 	bne	1382c <_vfiprintf_r+0x1374>
   133fc:	e59d3014 	ldr	r3, [sp, #20]
   13400:	e59d2024 	ldr	r2, [sp, #36]	; 0x24
   13404:	e59d1008 	ldr	r1, [sp, #8]
   13408:	e1520001 	cmp	r2, r1
   1340c:	a0833002 	addge	r3, r3, r2
   13410:	b0833001 	addlt	r3, r3, r1
   13414:	e58d3014 	str	r3, [sp, #20]
   13418:	eaffff96 	b	13278 <_vfiprintf_r+0xdc0>
   1341c:	e28d2044 	add	r2, sp, #68	; 0x44
   13420:	e59d1004 	ldr	r1, [sp, #4]
   13424:	e1a00008 	mov	r0, r8
   13428:	ebfffbf1 	bl	123f4 <__sprint_r.part.0>
   1342c:	e3500000 	cmp	r0, #0
   13430:	1affffa5 	bne	132cc <_vfiprintf_r+0xe14>
   13434:	e28d1048 	add	r1, sp, #72	; 0x48
   13438:	e8910006 	ldm	r1, {r1, r2}
   1343c:	e1a0900b 	mov	r9, fp
   13440:	e2810001 	add	r0, r1, #1
   13444:	eaffffd0 	b	1338c <_vfiprintf_r+0xed4>
   13448:	e28d2044 	add	r2, sp, #68	; 0x44
   1344c:	e59d1004 	ldr	r1, [sp, #4]
   13450:	e1a00004 	mov	r0, r4
   13454:	ebfffbe6 	bl	123f4 <__sprint_r.part.0>
   13458:	e3500000 	cmp	r0, #0
   1345c:	1affff9a 	bne	132cc <_vfiprintf_r+0xe14>
   13460:	e28d0048 	add	r0, sp, #72	; 0x48
   13464:	e8900005 	ldm	r0, {r0, r2}
   13468:	e1a0100b 	mov	r1, fp
   1346c:	e280e001 	add	lr, r0, #1
   13470:	eafffd83 	b	12a84 <_vfiprintf_r+0x5cc>
   13474:	e3a02002 	mov	r2, #2
   13478:	e1a0c001 	mov	ip, r1
   1347c:	e1a0900b 	mov	r9, fp
   13480:	e28d3040 	add	r3, sp, #64	; 0x40
   13484:	e58d207c 	str	r2, [sp, #124]	; 0x7c
   13488:	e58d3078 	str	r3, [sp, #120]	; 0x78
   1348c:	e1a0000c 	mov	r0, ip
   13490:	e2899008 	add	r9, r9, #8
   13494:	e28cc001 	add	ip, ip, #1
   13498:	eaffff28 	b	13140 <_vfiprintf_r+0xc88>
   1349c:	e59de010 	ldr	lr, [sp, #16]
   134a0:	e35e0000 	cmp	lr, #0
   134a4:	e5cdc03f 	strb	ip, [sp, #63]	; 0x3f
   134a8:	bafffcf3 	blt	1287c <_vfiprintf_r+0x3c4>
   134ac:	e1803001 	orr	r3, r0, r1
   134b0:	e3530000 	cmp	r3, #0
   134b4:	035e0000 	cmpeq	lr, #0
   134b8:	e1a0c00e 	mov	ip, lr
   134bc:	13a04001 	movne	r4, #1
   134c0:	03a04000 	moveq	r4, #0
   134c4:	e3c55080 	bic	r5, r5, #128	; 0x80
   134c8:	1afffceb 	bne	1287c <_vfiprintf_r+0x3c4>
   134cc:	eafffdab 	b	12b80 <_vfiprintf_r+0x6c8>
   134d0:	e5cd303f 	strb	r3, [sp, #63]	; 0x3f
   134d4:	e3a03000 	mov	r3, #0
   134d8:	e59d1020 	ldr	r1, [sp, #32]
   134dc:	e59d0010 	ldr	r0, [sp, #16]
   134e0:	e5912000 	ldr	r2, [r1]
   134e4:	e3500000 	cmp	r0, #0
   134e8:	e2818004 	add	r8, r1, #4
   134ec:	a1821003 	orrge	r1, r2, r3
   134f0:	bafffdba 	blt	12be0 <_vfiprintf_r+0x728>
   134f4:	e59d0010 	ldr	r0, [sp, #16]
   134f8:	e3500000 	cmp	r0, #0
   134fc:	03510000 	cmpeq	r1, #0
   13500:	e58d8020 	str	r8, [sp, #32]
   13504:	e3c55080 	bic	r5, r5, #128	; 0x80
   13508:	1afffe86 	bne	12f28 <_vfiprintf_r+0xa70>
   1350c:	e2154001 	ands	r4, r5, #1
   13510:	058db02c 	streq	fp, [sp, #44]	; 0x2c
   13514:	058d4018 	streq	r4, [sp, #24]
   13518:	0afffce6 	beq	128b8 <_vfiprintf_r+0x400>
   1351c:	e3a03030 	mov	r3, #48	; 0x30
   13520:	e59d2034 	ldr	r2, [sp, #52]	; 0x34
   13524:	e5cd3077 	strb	r3, [sp, #119]	; 0x77
   13528:	e28d3077 	add	r3, sp, #119	; 0x77
   1352c:	e58d2018 	str	r2, [sp, #24]
   13530:	e3a04000 	mov	r4, #0
   13534:	e58d302c 	str	r3, [sp, #44]	; 0x2c
   13538:	eafffcde 	b	128b8 <_vfiprintf_r+0x400>
   1353c:	00016830 	andeq	r6, r1, r0, lsr r8
   13540:	0001667c 	andeq	r6, r1, ip, ror r6
   13544:	00016690 	muleq	r1, r0, r6
   13548:	00016840 	andeq	r6, r1, r0, asr #16
   1354c:	000166a4 	andeq	r6, r1, r4, lsr #13
   13550:	00016840 	andeq	r6, r1, r0, asr #16
   13554:	00016830 	andeq	r6, r1, r0, lsr r8
   13558:	e28d2044 	add	r2, sp, #68	; 0x44
   1355c:	e59d1004 	ldr	r1, [sp, #4]
   13560:	e59d001c 	ldr	r0, [sp, #28]
   13564:	ebfffba2 	bl	123f4 <__sprint_r.part.0>
   13568:	e3500000 	cmp	r0, #0
   1356c:	1affff56 	bne	132cc <_vfiprintf_r+0xe14>
   13570:	e1a0900b 	mov	r9, fp
   13574:	e59d204c 	ldr	r2, [sp, #76]	; 0x4c
   13578:	eaffff2e 	b	13238 <_vfiprintf_r+0xd80>
   1357c:	e28d2044 	add	r2, sp, #68	; 0x44
   13580:	e59d1004 	ldr	r1, [sp, #4]
   13584:	e59d001c 	ldr	r0, [sp, #28]
   13588:	ebfffb99 	bl	123f4 <__sprint_r.part.0>
   1358c:	e3500000 	cmp	r0, #0
   13590:	1affff4d 	bne	132cc <_vfiprintf_r+0xe14>
   13594:	e1a0900b 	mov	r9, fp
   13598:	eafffc0b 	b	125cc <_vfiprintf_r+0x114>
   1359c:	e28d2044 	add	r2, sp, #68	; 0x44
   135a0:	e59d1004 	ldr	r1, [sp, #4]
   135a4:	e59d001c 	ldr	r0, [sp, #28]
   135a8:	ebfffb91 	bl	123f4 <__sprint_r.part.0>
   135ac:	e3500000 	cmp	r0, #0
   135b0:	0affff30 	beq	13278 <_vfiprintf_r+0xdc0>
   135b4:	eaffff44 	b	132cc <_vfiprintf_r+0xe14>
   135b8:	e28d2044 	add	r2, sp, #68	; 0x44
   135bc:	e59d1004 	ldr	r1, [sp, #4]
   135c0:	e59d001c 	ldr	r0, [sp, #28]
   135c4:	e58d3030 	str	r3, [sp, #48]	; 0x30
   135c8:	ebfffb89 	bl	123f4 <__sprint_r.part.0>
   135cc:	e3500000 	cmp	r0, #0
   135d0:	1affff3d 	bne	132cc <_vfiprintf_r+0xe14>
   135d4:	e28d0048 	add	r0, sp, #72	; 0x48
   135d8:	e8900005 	ldm	r0, {r0, r2}
   135dc:	e1a0900b 	mov	r9, fp
   135e0:	e280c001 	add	ip, r0, #1
   135e4:	e59d3030 	ldr	r3, [sp, #48]	; 0x30
   135e8:	eafffd01 	b	129f4 <_vfiprintf_r+0x53c>
   135ec:	e28d2044 	add	r2, sp, #68	; 0x44
   135f0:	e59d1004 	ldr	r1, [sp, #4]
   135f4:	e59d001c 	ldr	r0, [sp, #28]
   135f8:	ebfffb7d 	bl	123f4 <__sprint_r.part.0>
   135fc:	e3500000 	cmp	r0, #0
   13600:	1affff31 	bne	132cc <_vfiprintf_r+0xe14>
   13604:	e28d0048 	add	r0, sp, #72	; 0x48
   13608:	e8900005 	ldm	r0, {r0, r2}
   1360c:	e1a0900b 	mov	r9, fp
   13610:	e280c001 	add	ip, r0, #1
   13614:	eafffec9 	b	13140 <_vfiprintf_r+0xc88>
   13618:	e3520000 	cmp	r2, #0
   1361c:	1a0000c6 	bne	1393c <_vfiprintf_r+0x1484>
   13620:	e3a0c001 	mov	ip, #1
   13624:	e1a00002 	mov	r0, r2
   13628:	e1a0900b 	mov	r9, fp
   1362c:	eafffec6 	b	1314c <_vfiprintf_r+0xc94>
   13630:	e3a0c000 	mov	ip, #0
   13634:	e3a0e030 	mov	lr, #48	; 0x30
   13638:	e59d4010 	ldr	r4, [sp, #16]
   1363c:	e154000c 	cmp	r4, ip
   13640:	e5cd3041 	strb	r3, [sp, #65]	; 0x41
   13644:	a3c53080 	bicge	r3, r5, #128	; 0x80
   13648:	e5cde040 	strb	lr, [sp, #64]	; 0x40
   1364c:	e5cdc03f 	strb	ip, [sp, #63]	; 0x3f
   13650:	b3855002 	orrlt	r5, r5, #2
   13654:	a3835002 	orrge	r5, r3, #2
   13658:	eafffc87 	b	1287c <_vfiprintf_r+0x3c4>
   1365c:	e59d1020 	ldr	r1, [sp, #32]
   13660:	e59d0010 	ldr	r0, [sp, #16]
   13664:	e5912000 	ldr	r2, [r1]
   13668:	e3500000 	cmp	r0, #0
   1366c:	e2818004 	add	r8, r1, #4
   13670:	e1a00002 	mov	r0, r2
   13674:	e3a01000 	mov	r1, #0
   13678:	e5cd303f 	strb	r3, [sp, #63]	; 0x3f
   1367c:	e58d0008 	str	r0, [sp, #8]
   13680:	e58d100c 	str	r1, [sp, #12]
   13684:	b58d8020 	strlt	r8, [sp, #32]
   13688:	b1a04003 	movlt	r4, r3
   1368c:	bafffd7e 	blt	12c8c <_vfiprintf_r+0x7d4>
   13690:	e28d2008 	add	r2, sp, #8
   13694:	e8920006 	ldm	r2, {r1, r2}
   13698:	e1812002 	orr	r2, r1, r2
   1369c:	e59d1010 	ldr	r1, [sp, #16]
   136a0:	e3520000 	cmp	r2, #0
   136a4:	03510000 	cmpeq	r1, #0
   136a8:	e58d8020 	str	r8, [sp, #32]
   136ac:	13a04001 	movne	r4, #1
   136b0:	03a04000 	moveq	r4, #0
   136b4:	e3c55080 	bic	r5, r5, #128	; 0x80
   136b8:	0afffd30 	beq	12b80 <_vfiprintf_r+0x6c8>
   136bc:	e1a04003 	mov	r4, r3
   136c0:	eafffd71 	b	12c8c <_vfiprintf_r+0x7d4>
   136c4:	e58d5018 	str	r5, [sp, #24]
   136c8:	e1a0500b 	mov	r5, fp
   136cc:	e58d9028 	str	r9, [sp, #40]	; 0x28
   136d0:	e28d9008 	add	r9, sp, #8
   136d4:	e8990300 	ldm	r9, {r8, r9}
   136d8:	e1a00008 	mov	r0, r8
   136dc:	e1a01009 	mov	r1, r9
   136e0:	e3a0200a 	mov	r2, #10
   136e4:	e3a03000 	mov	r3, #0
   136e8:	eb000a9e 	bl	16168 <__aeabi_uldivmod>
   136ec:	e2822030 	add	r2, r2, #48	; 0x30
   136f0:	e5652001 	strb	r2, [r5, #-1]!
   136f4:	e1a00008 	mov	r0, r8
   136f8:	e1a01009 	mov	r1, r9
   136fc:	e3a03000 	mov	r3, #0
   13700:	e3a0200a 	mov	r2, #10
   13704:	eb000a97 	bl	16168 <__aeabi_uldivmod>
   13708:	e1a08000 	mov	r8, r0
   1370c:	e1a09001 	mov	r9, r1
   13710:	e1983009 	orrs	r3, r8, r9
   13714:	1affffef 	bne	136d8 <_vfiprintf_r+0x1220>
   13718:	e1a03005 	mov	r3, r5
   1371c:	e063300b 	rsb	r3, r3, fp
   13720:	e58d502c 	str	r5, [sp, #44]	; 0x2c
   13724:	e59d9028 	ldr	r9, [sp, #40]	; 0x28
   13728:	e59d5018 	ldr	r5, [sp, #24]
   1372c:	e58d3018 	str	r3, [sp, #24]
   13730:	eafffc60 	b	128b8 <_vfiprintf_r+0x400>
   13734:	e3a0402d 	mov	r4, #45	; 0x2d
   13738:	e28d3008 	add	r3, sp, #8
   1373c:	e893000c 	ldm	r3, {r2, r3}
   13740:	e2722000 	rsbs	r2, r2, #0
   13744:	e2e33000 	rsc	r3, r3, #0
   13748:	e58d2008 	str	r2, [sp, #8]
   1374c:	e58d300c 	str	r3, [sp, #12]
   13750:	e59d3010 	ldr	r3, [sp, #16]
   13754:	e3530000 	cmp	r3, #0
   13758:	e5cd403f 	strb	r4, [sp, #63]	; 0x3f
   1375c:	a3c55080 	bicge	r5, r5, #128	; 0x80
   13760:	eafffd49 	b	12c8c <_vfiprintf_r+0x7d4>
   13764:	e3530000 	cmp	r3, #0
   13768:	0a000037 	beq	1384c <_vfiprintf_r+0x1394>
   1376c:	e3a02002 	mov	r2, #2
   13770:	e28d3040 	add	r3, sp, #64	; 0x40
   13774:	e58d207c 	str	r2, [sp, #124]	; 0x7c
   13778:	e58d3078 	str	r3, [sp, #120]	; 0x78
   1377c:	e3a0c001 	mov	ip, #1
   13780:	e1a0900b 	mov	r9, fp
   13784:	eaffff40 	b	1348c <_vfiprintf_r+0xfd4>
   13788:	e3150010 	tst	r5, #16
   1378c:	1a000008 	bne	137b4 <_vfiprintf_r+0x12fc>
   13790:	e3150040 	tst	r5, #64	; 0x40
   13794:	0a000006 	beq	137b4 <_vfiprintf_r+0x12fc>
   13798:	e59d2020 	ldr	r2, [sp, #32]
   1379c:	e5923000 	ldr	r3, [r2]
   137a0:	e2822004 	add	r2, r2, #4
   137a4:	e58d2020 	str	r2, [sp, #32]
   137a8:	e1dd21b4 	ldrh	r2, [sp, #20]
   137ac:	e1c320b0 	strh	r2, [r3]
   137b0:	eafffb6f 	b	12574 <_vfiprintf_r+0xbc>
   137b4:	e59d2020 	ldr	r2, [sp, #32]
   137b8:	e5923000 	ldr	r3, [r2]
   137bc:	e2822004 	add	r2, r2, #4
   137c0:	e58d2020 	str	r2, [sp, #32]
   137c4:	e59d2014 	ldr	r2, [sp, #20]
   137c8:	e5832000 	str	r2, [r3]
   137cc:	eafffb68 	b	12574 <_vfiprintf_r+0xbc>
   137d0:	e3150040 	tst	r5, #64	; 0x40
   137d4:	0a000045 	beq	138f0 <_vfiprintf_r+0x1438>
   137d8:	e59d1020 	ldr	r1, [sp, #32]
   137dc:	e1d100b0 	ldrh	r0, [r1]
   137e0:	e2811004 	add	r1, r1, #4
   137e4:	e58d1020 	str	r1, [sp, #32]
   137e8:	e3a01000 	mov	r1, #0
   137ec:	eafffd3e 	b	12cec <_vfiprintf_r+0x834>
   137f0:	e28d2044 	add	r2, sp, #68	; 0x44
   137f4:	e59d1004 	ldr	r1, [sp, #4]
   137f8:	e59d001c 	ldr	r0, [sp, #28]
   137fc:	e58d3030 	str	r3, [sp, #48]	; 0x30
   13800:	ebfffafb 	bl	123f4 <__sprint_r.part.0>
   13804:	e3500000 	cmp	r0, #0
   13808:	1afffeaf 	bne	132cc <_vfiprintf_r+0xe14>
   1380c:	e28d0048 	add	r0, sp, #72	; 0x48
   13810:	e8900005 	ldm	r0, {r0, r2}
   13814:	e1a0900b 	mov	r9, fp
   13818:	e280c001 	add	ip, r0, #1
   1381c:	e59d3030 	ldr	r3, [sp, #48]	; 0x30
   13820:	eafffe34 	b	130f8 <_vfiprintf_r+0xc40>
   13824:	e3e00000 	mvn	r0, #0
   13828:	eafffbec 	b	127e0 <_vfiprintf_r+0x328>
   1382c:	e28d2044 	add	r2, sp, #68	; 0x44
   13830:	e59d1004 	ldr	r1, [sp, #4]
   13834:	e59d001c 	ldr	r0, [sp, #28]
   13838:	ebfffaed 	bl	123f4 <__sprint_r.part.0>
   1383c:	e3500000 	cmp	r0, #0
   13840:	1afffea1 	bne	132cc <_vfiprintf_r+0xe14>
   13844:	e59d204c 	ldr	r2, [sp, #76]	; 0x4c
   13848:	eafffe81 	b	13254 <_vfiprintf_r+0xd9c>
   1384c:	e1a00002 	mov	r0, r2
   13850:	e3a0c001 	mov	ip, #1
   13854:	e1a0900b 	mov	r9, fp
   13858:	eafffe3b 	b	1314c <_vfiprintf_r+0xc94>
   1385c:	e59d0010 	ldr	r0, [sp, #16]
   13860:	e59d1020 	ldr	r1, [sp, #32]
   13864:	e3500000 	cmp	r0, #0
   13868:	e5cd303f 	strb	r3, [sp, #63]	; 0x3f
   1386c:	e5912000 	ldr	r2, [r1]
   13870:	e2818004 	add	r8, r1, #4
   13874:	e3a03000 	mov	r3, #0
   13878:	bafffcd8 	blt	12be0 <_vfiprintf_r+0x728>
   1387c:	13a01001 	movne	r1, #1
   13880:	03a01000 	moveq	r1, #0
   13884:	e1920003 	orrs	r0, r2, r3
   13888:	13811001 	orrne	r1, r1, #1
   1388c:	e3510000 	cmp	r1, #0
   13890:	e58d8020 	str	r8, [sp, #32]
   13894:	e3c55080 	bic	r5, r5, #128	; 0x80
   13898:	1afffda2 	bne	12f28 <_vfiprintf_r+0xa70>
   1389c:	eaffff1a 	b	1350c <_vfiprintf_r+0x1054>
   138a0:	e59d2020 	ldr	r2, [sp, #32]
   138a4:	e59d1010 	ldr	r1, [sp, #16]
   138a8:	e5923000 	ldr	r3, [r2]
   138ac:	e3510000 	cmp	r1, #0
   138b0:	e2828004 	add	r8, r2, #4
   138b4:	e1a01003 	mov	r1, r3
   138b8:	e3a02000 	mov	r2, #0
   138bc:	e5cd403f 	strb	r4, [sp, #63]	; 0x3f
   138c0:	e58d1008 	str	r1, [sp, #8]
   138c4:	e58d200c 	str	r2, [sp, #12]
   138c8:	ba000044 	blt	139e0 <_vfiprintf_r+0x1528>
   138cc:	13a03001 	movne	r3, #1
   138d0:	03a03000 	moveq	r3, #0
   138d4:	e1912002 	orrs	r2, r1, r2
   138d8:	13833001 	orrne	r3, r3, #1
   138dc:	e3530000 	cmp	r3, #0
   138e0:	e58d8020 	str	r8, [sp, #32]
   138e4:	e3c55080 	bic	r5, r5, #128	; 0x80
   138e8:	1afffce7 	bne	12c8c <_vfiprintf_r+0x7d4>
   138ec:	eafffdc3 	b	13000 <_vfiprintf_r+0xb48>
   138f0:	e59dc020 	ldr	ip, [sp, #32]
   138f4:	e59c0000 	ldr	r0, [ip]
   138f8:	e28cc004 	add	ip, ip, #4
   138fc:	e3a01000 	mov	r1, #0
   13900:	e58dc020 	str	ip, [sp, #32]
   13904:	eafffcf8 	b	12cec <_vfiprintf_r+0x834>
   13908:	e1d030f0 	ldrsh	r3, [r0]
   1390c:	eafffd3a 	b	12dfc <_vfiprintf_r+0x944>
   13910:	e3855002 	orr	r5, r5, #2
   13914:	e58d8020 	str	r8, [sp, #32]
   13918:	e51f23dc 	ldr	r2, [pc, #-988]	; 13544 <_vfiprintf_r+0x108c>
   1391c:	eafffbd6 	b	1287c <_vfiprintf_r+0x3c4>
   13920:	e59d002c 	ldr	r0, [sp, #44]	; 0x2c
   13924:	e58d4010 	str	r4, [sp, #16]
   13928:	e58d8020 	str	r8, [sp, #32]
   1392c:	ebffe575 	bl	cf08 <strlen>
   13930:	e5dd403f 	ldrb	r4, [sp, #63]	; 0x3f
   13934:	e58d0018 	str	r0, [sp, #24]
   13938:	eafffbde 	b	128b8 <_vfiprintf_r+0x400>
   1393c:	e28d2044 	add	r2, sp, #68	; 0x44
   13940:	e59d1004 	ldr	r1, [sp, #4]
   13944:	e59d001c 	ldr	r0, [sp, #28]
   13948:	ebfffaa9 	bl	123f4 <__sprint_r.part.0>
   1394c:	e3500000 	cmp	r0, #0
   13950:	1afffe5d 	bne	132cc <_vfiprintf_r+0xe14>
   13954:	e28d0048 	add	r0, sp, #72	; 0x48
   13958:	e8900005 	ldm	r0, {r0, r2}
   1395c:	e1a0900b 	mov	r9, fp
   13960:	e280c001 	add	ip, r0, #1
   13964:	eafffdf8 	b	1314c <_vfiprintf_r+0xc94>
   13968:	e28d0048 	add	r0, sp, #72	; 0x48
   1396c:	e8900005 	ldm	r0, {r0, r2}
   13970:	e51f1430 	ldr	r1, [pc, #-1072]	; 13548 <_vfiprintf_r+0x1090>
   13974:	e2800001 	add	r0, r0, #1
   13978:	e58d1030 	str	r1, [sp, #48]	; 0x30
   1397c:	eafffc05 	b	12998 <_vfiprintf_r+0x4e0>
   13980:	e3530006 	cmp	r3, #6
   13984:	23a03006 	movcs	r3, #6
   13988:	e58d3018 	str	r3, [sp, #24]
   1398c:	e1c33fc3 	bic	r3, r3, r3, asr #31
   13990:	e58d3008 	str	r3, [sp, #8]
   13994:	e51f3450 	ldr	r3, [pc, #-1104]	; 1354c <_vfiprintf_r+0x1094>
   13998:	e58d8020 	str	r8, [sp, #32]
   1399c:	e58d302c 	str	r3, [sp, #44]	; 0x2c
   139a0:	eafffd06 	b	12dc0 <_vfiprintf_r+0x908>
   139a4:	e59d0048 	ldr	r0, [sp, #72]	; 0x48
   139a8:	e51f3460 	ldr	r3, [pc, #-1120]	; 13550 <_vfiprintf_r+0x1098>
   139ac:	e2800001 	add	r0, r0, #1
   139b0:	e58d3030 	str	r3, [sp, #48]	; 0x30
   139b4:	eafffe87 	b	133d8 <_vfiprintf_r+0xf20>
   139b8:	e51f346c 	ldr	r3, [pc, #-1132]	; 13554 <_vfiprintf_r+0x109c>
   139bc:	e1a0e00c 	mov	lr, ip
   139c0:	e58d3028 	str	r3, [sp, #40]	; 0x28
   139c4:	eafffc42 	b	12ad4 <_vfiprintf_r+0x61c>
   139c8:	e59d3010 	ldr	r3, [sp, #16]
   139cc:	e58d8020 	str	r8, [sp, #32]
   139d0:	e58d3018 	str	r3, [sp, #24]
   139d4:	e58d0010 	str	r0, [sp, #16]
   139d8:	e5dd403f 	ldrb	r4, [sp, #63]	; 0x3f
   139dc:	eafffbb5 	b	128b8 <_vfiprintf_r+0x400>
   139e0:	e58d8020 	str	r8, [sp, #32]
   139e4:	eafffca8 	b	12c8c <_vfiprintf_r+0x7d4>
   139e8:	e59d3020 	ldr	r3, [sp, #32]
   139ec:	e5932000 	ldr	r2, [r3]
   139f0:	e58d2010 	str	r2, [sp, #16]
   139f4:	e3520000 	cmp	r2, #0
   139f8:	e2832004 	add	r2, r3, #4
   139fc:	e58d2020 	str	r2, [sp, #32]
   13a00:	e5d63001 	ldrb	r3, [r6, #1]
   13a04:	e1a06004 	mov	r6, r4
   13a08:	aafffaff 	bge	1260c <_vfiprintf_r+0x154>
   13a0c:	eafffafc 	b	12604 <_vfiprintf_r+0x14c>
   13a10:	e5dd403f 	ldrb	r4, [sp, #63]	; 0x3f
   13a14:	eafffc9c 	b	12c8c <_vfiprintf_r+0x7d4>

00013a18 <vfiprintf>:
   13a18:	e59fc010 	ldr	ip, [pc, #16]	; 13a30 <vfiprintf+0x18>
   13a1c:	e1a03002 	mov	r3, r2
   13a20:	e1a02001 	mov	r2, r1
   13a24:	e1a01000 	mov	r1, r0
   13a28:	e59c0000 	ldr	r0, [ip]
   13a2c:	eafffaa1 	b	124b8 <_vfiprintf_r>
   13a30:	00016fb8 			; <UNDEFINED> instruction: 0x00016fb8

00013a34 <__sbprintf>:
   13a34:	e92d40f0 	push	{r4, r5, r6, r7, lr}
   13a38:	e1a04001 	mov	r4, r1
   13a3c:	e3a0cb01 	mov	ip, #1024	; 0x400
   13a40:	e3a0e000 	mov	lr, #0
   13a44:	e5946064 	ldr	r6, [r4, #100]	; 0x64
   13a48:	e24dde46 	sub	sp, sp, #1120	; 0x460
   13a4c:	e24dd00c 	sub	sp, sp, #12
   13a50:	e1d110bc 	ldrh	r1, [r1, #12]
   13a54:	e58d6064 	str	r6, [sp, #100]	; 0x64
   13a58:	e594601c 	ldr	r6, [r4, #28]
   13a5c:	e1d470be 	ldrh	r7, [r4, #14]
   13a60:	e3c11002 	bic	r1, r1, #2
   13a64:	e58d601c 	str	r6, [sp, #28]
   13a68:	e5946024 	ldr	r6, [r4, #36]	; 0x24
   13a6c:	e1cd10bc 	strh	r1, [sp, #12]
   13a70:	e58dc008 	str	ip, [sp, #8]
   13a74:	e58dc014 	str	ip, [sp, #20]
   13a78:	e1a0100d 	mov	r1, sp
   13a7c:	e28dc068 	add	ip, sp, #104	; 0x68
   13a80:	e1cd70be 	strh	r7, [sp, #14]
   13a84:	e58d6024 	str	r6, [sp, #36]	; 0x24
   13a88:	e58de018 	str	lr, [sp, #24]
   13a8c:	e58dc000 	str	ip, [sp]
   13a90:	e58dc010 	str	ip, [sp, #16]
   13a94:	e1a07000 	mov	r7, r0
   13a98:	ebfffa86 	bl	124b8 <_vfiprintf_r>
   13a9c:	e2506000 	subs	r6, r0, #0
   13aa0:	ba000004 	blt	13ab8 <__sbprintf+0x84>
   13aa4:	e1a0100d 	mov	r1, sp
   13aa8:	e1a00007 	mov	r0, r7
   13aac:	ebffdba2 	bl	a93c <_fflush_r>
   13ab0:	e3500000 	cmp	r0, #0
   13ab4:	13e06000 	mvnne	r6, #0
   13ab8:	e1a00006 	mov	r0, r6
   13abc:	e1dd30bc 	ldrh	r3, [sp, #12]
   13ac0:	e3130040 	tst	r3, #64	; 0x40
   13ac4:	11d430bc 	ldrhne	r3, [r4, #12]
   13ac8:	13833040 	orrne	r3, r3, #64	; 0x40
   13acc:	11c430bc 	strhne	r3, [r4, #12]
   13ad0:	e28dde46 	add	sp, sp, #1120	; 0x460
   13ad4:	e28dd00c 	add	sp, sp, #12
   13ad8:	e8bd40f0 	pop	{r4, r5, r6, r7, lr}
   13adc:	e12fff1e 	bx	lr

00013ae0 <_calloc_r>:
   13ae0:	e92d4010 	push	{r4, lr}
   13ae4:	e0010192 	mul	r1, r2, r1
   13ae8:	ebffe005 	bl	bb04 <_malloc_r>
   13aec:	e2504000 	subs	r4, r0, #0
   13af0:	0a000018 	beq	13b58 <_calloc_r+0x78>
   13af4:	e5142004 	ldr	r2, [r4, #-4]
   13af8:	e3c22003 	bic	r2, r2, #3
   13afc:	e2422004 	sub	r2, r2, #4
   13b00:	e3520024 	cmp	r2, #36	; 0x24
   13b04:	8a000016 	bhi	13b64 <_calloc_r+0x84>
   13b08:	e3520013 	cmp	r2, #19
   13b0c:	91a02004 	movls	r2, r4
   13b10:	9a00000c 	bls	13b48 <_calloc_r+0x68>
   13b14:	e3a03000 	mov	r3, #0
   13b18:	e352001b 	cmp	r2, #27
   13b1c:	e5843000 	str	r3, [r4]
   13b20:	e5843004 	str	r3, [r4, #4]
   13b24:	92842008 	addls	r2, r4, #8
   13b28:	9a000006 	bls	13b48 <_calloc_r+0x68>
   13b2c:	e3520024 	cmp	r2, #36	; 0x24
   13b30:	e5843008 	str	r3, [r4, #8]
   13b34:	e584300c 	str	r3, [r4, #12]
   13b38:	05843010 	streq	r3, [r4, #16]
   13b3c:	05843014 	streq	r3, [r4, #20]
   13b40:	12842010 	addne	r2, r4, #16
   13b44:	02842018 	addeq	r2, r4, #24
   13b48:	e3a03000 	mov	r3, #0
   13b4c:	e5823000 	str	r3, [r2]
   13b50:	e5823004 	str	r3, [r2, #4]
   13b54:	e5823008 	str	r3, [r2, #8]
   13b58:	e1a00004 	mov	r0, r4
   13b5c:	e8bd4010 	pop	{r4, lr}
   13b60:	e12fff1e 	bx	lr
   13b64:	e3a01000 	mov	r1, #0
   13b68:	ebffe250 	bl	c4b0 <memset>
   13b6c:	e1a00004 	mov	r0, r4
   13b70:	e8bd4010 	pop	{r4, lr}
   13b74:	e12fff1e 	bx	lr

00013b78 <__fputwc>:
   13b78:	e92d41f0 	push	{r4, r5, r6, r7, r8, lr}
   13b7c:	e24dd008 	sub	sp, sp, #8
   13b80:	e1a07000 	mov	r7, r0
   13b84:	e1a06001 	mov	r6, r1
   13b88:	e1a04002 	mov	r4, r2
   13b8c:	eb000085 	bl	13da8 <__locale_mb_cur_max>
   13b90:	e3500001 	cmp	r0, #1
   13b94:	0a000030 	beq	13c5c <__fputwc+0xe4>
   13b98:	e284305c 	add	r3, r4, #92	; 0x5c
   13b9c:	e1a02006 	mov	r2, r6
   13ba0:	e28d1004 	add	r1, sp, #4
   13ba4:	e1a00007 	mov	r0, r7
   13ba8:	eb00010a 	bl	13fd8 <_wcrtomb_r>
   13bac:	e3700001 	cmn	r0, #1
   13bb0:	e1a08000 	mov	r8, r0
   13bb4:	0a000022 	beq	13c44 <__fputwc+0xcc>
   13bb8:	e3500000 	cmp	r0, #0
   13bbc:	15dd1004 	ldrbne	r1, [sp, #4]
   13bc0:	0a00002c 	beq	13c78 <__fputwc+0x100>
   13bc4:	e3a05000 	mov	r5, #0
   13bc8:	ea000008 	b	13bf0 <__fputwc+0x78>
   13bcc:	e5943000 	ldr	r3, [r4]
   13bd0:	e2832001 	add	r2, r3, #1
   13bd4:	e5842000 	str	r2, [r4]
   13bd8:	e5c31000 	strb	r1, [r3]
   13bdc:	e2855001 	add	r5, r5, #1
   13be0:	e1550008 	cmp	r5, r8
   13be4:	2a000023 	bcs	13c78 <__fputwc+0x100>
   13be8:	e28d3004 	add	r3, sp, #4
   13bec:	e7d31005 	ldrb	r1, [r3, r5]
   13bf0:	e5943008 	ldr	r3, [r4, #8]
   13bf4:	e2433001 	sub	r3, r3, #1
   13bf8:	e3530000 	cmp	r3, #0
   13bfc:	e5843008 	str	r3, [r4, #8]
   13c00:	aafffff1 	bge	13bcc <__fputwc+0x54>
   13c04:	e5942018 	ldr	r2, [r4, #24]
   13c08:	e1530002 	cmp	r3, r2
   13c0c:	b3a03000 	movlt	r3, #0
   13c10:	a3a03001 	movge	r3, #1
   13c14:	e351000a 	cmp	r1, #10
   13c18:	03a03000 	moveq	r3, #0
   13c1c:	e3530000 	cmp	r3, #0
   13c20:	1affffe9 	bne	13bcc <__fputwc+0x54>
   13c24:	e1a02004 	mov	r2, r4
   13c28:	e1a00007 	mov	r0, r7
   13c2c:	eb000097 	bl	13e90 <__swbuf_r>
   13c30:	e3700001 	cmn	r0, #1
   13c34:	1affffe8 	bne	13bdc <__fputwc+0x64>
   13c38:	e28dd008 	add	sp, sp, #8
   13c3c:	e8bd41f0 	pop	{r4, r5, r6, r7, r8, lr}
   13c40:	e12fff1e 	bx	lr
   13c44:	e1d430bc 	ldrh	r3, [r4, #12]
   13c48:	e3833040 	orr	r3, r3, #64	; 0x40
   13c4c:	e1c430bc 	strh	r3, [r4, #12]
   13c50:	e28dd008 	add	sp, sp, #8
   13c54:	e8bd41f0 	pop	{r4, r5, r6, r7, r8, lr}
   13c58:	e12fff1e 	bx	lr
   13c5c:	e2463001 	sub	r3, r6, #1
   13c60:	e35300fe 	cmp	r3, #254	; 0xfe
   13c64:	8affffcb 	bhi	13b98 <__fputwc+0x20>
   13c68:	e20610ff 	and	r1, r6, #255	; 0xff
   13c6c:	e1a08000 	mov	r8, r0
   13c70:	e5cd1004 	strb	r1, [sp, #4]
   13c74:	eaffffd2 	b	13bc4 <__fputwc+0x4c>
   13c78:	e1a00006 	mov	r0, r6
   13c7c:	e28dd008 	add	sp, sp, #8
   13c80:	e8bd41f0 	pop	{r4, r5, r6, r7, r8, lr}
   13c84:	e12fff1e 	bx	lr

00013c88 <_fputwc_r>:
   13c88:	e1d230fc 	ldrsh	r3, [r2, #12]
   13c8c:	e3130a02 	tst	r3, #8192	; 0x2000
   13c90:	0592c064 	ldreq	ip, [r2, #100]	; 0x64
   13c94:	03833a02 	orreq	r3, r3, #8192	; 0x2000
   13c98:	038cca02 	orreq	ip, ip, #8192	; 0x2000
   13c9c:	01c230bc 	strheq	r3, [r2, #12]
   13ca0:	0582c064 	streq	ip, [r2, #100]	; 0x64
   13ca4:	eaffffb3 	b	13b78 <__fputwc>

00013ca8 <fputwc>:
   13ca8:	e59f305c 	ldr	r3, [pc, #92]	; 13d0c <fputwc+0x64>
   13cac:	e92d4070 	push	{r4, r5, r6, lr}
   13cb0:	e5935000 	ldr	r5, [r3]
   13cb4:	e3550000 	cmp	r5, #0
   13cb8:	e1a06000 	mov	r6, r0
   13cbc:	e1a04001 	mov	r4, r1
   13cc0:	0a000002 	beq	13cd0 <fputwc+0x28>
   13cc4:	e5953038 	ldr	r3, [r5, #56]	; 0x38
   13cc8:	e3530000 	cmp	r3, #0
   13ccc:	0a00000b 	beq	13d00 <fputwc+0x58>
   13cd0:	e1d430fc 	ldrsh	r3, [r4, #12]
   13cd4:	e3130a02 	tst	r3, #8192	; 0x2000
   13cd8:	05942064 	ldreq	r2, [r4, #100]	; 0x64
   13cdc:	03833a02 	orreq	r3, r3, #8192	; 0x2000
   13ce0:	03822a02 	orreq	r2, r2, #8192	; 0x2000
   13ce4:	05842064 	streq	r2, [r4, #100]	; 0x64
   13ce8:	01c430bc 	strheq	r3, [r4, #12]
   13cec:	e1a02004 	mov	r2, r4
   13cf0:	e1a01006 	mov	r1, r6
   13cf4:	e1a00005 	mov	r0, r5
   13cf8:	e8bd4070 	pop	{r4, r5, r6, lr}
   13cfc:	eaffff9d 	b	13b78 <__fputwc>
   13d00:	e1a00005 	mov	r0, r5
   13d04:	ebffdc3a 	bl	adf4 <__sinit>
   13d08:	eafffff0 	b	13cd0 <fputwc+0x28>
   13d0c:	00016fb8 			; <UNDEFINED> instruction: 0x00016fb8

00013d10 <__get_current_locale>:
   13d10:	e59f3014 	ldr	r3, [pc, #20]	; 13d2c <__get_current_locale+0x1c>
   13d14:	e5932000 	ldr	r2, [r3]
   13d18:	e5920034 	ldr	r0, [r2, #52]	; 0x34
   13d1c:	e59f300c 	ldr	r3, [pc, #12]	; 13d30 <__get_current_locale+0x20>
   13d20:	e3500000 	cmp	r0, #0
   13d24:	01a00003 	moveq	r0, r3
   13d28:	e12fff1e 	bx	lr
   13d2c:	00016fb8 			; <UNDEFINED> instruction: 0x00016fb8
   13d30:	000173cc 	andeq	r7, r1, ip, asr #7

00013d34 <_setlocale_r>:
   13d34:	e3520000 	cmp	r2, #0
   13d38:	0a000015 	beq	13d94 <_setlocale_r+0x60>
   13d3c:	e92d4010 	push	{r4, lr}
   13d40:	e59f1054 	ldr	r1, [pc, #84]	; 13d9c <_setlocale_r+0x68>
   13d44:	e1a00002 	mov	r0, r2
   13d48:	e1a04002 	mov	r4, r2
   13d4c:	ebffe3e4 	bl	cce4 <strcmp>
   13d50:	e3500000 	cmp	r0, #0
   13d54:	1a000002 	bne	13d64 <_setlocale_r+0x30>
   13d58:	e59f0040 	ldr	r0, [pc, #64]	; 13da0 <_setlocale_r+0x6c>
   13d5c:	e8bd4010 	pop	{r4, lr}
   13d60:	e12fff1e 	bx	lr
   13d64:	e59f1034 	ldr	r1, [pc, #52]	; 13da0 <_setlocale_r+0x6c>
   13d68:	e1a00004 	mov	r0, r4
   13d6c:	ebffe3dc 	bl	cce4 <strcmp>
   13d70:	e3500000 	cmp	r0, #0
   13d74:	0afffff7 	beq	13d58 <_setlocale_r+0x24>
   13d78:	e1a00004 	mov	r0, r4
   13d7c:	e59f1020 	ldr	r1, [pc, #32]	; 13da4 <_setlocale_r+0x70>
   13d80:	ebffe3d7 	bl	cce4 <strcmp>
   13d84:	e3500000 	cmp	r0, #0
   13d88:	0afffff2 	beq	13d58 <_setlocale_r+0x24>
   13d8c:	e3a00000 	mov	r0, #0
   13d90:	eafffff1 	b	13d5c <_setlocale_r+0x28>
   13d94:	e59f0004 	ldr	r0, [pc, #4]	; 13da0 <_setlocale_r+0x6c>
   13d98:	e12fff1e 	bx	lr
   13d9c:	000166c4 	andeq	r6, r1, r4, asr #13
   13da0:	000166c0 	andeq	r6, r1, r0, asr #13
   13da4:	000164f0 	strdeq	r6, [r1], -r0

00013da8 <__locale_mb_cur_max>:
   13da8:	e59f3018 	ldr	r3, [pc, #24]	; 13dc8 <__locale_mb_cur_max+0x20>
   13dac:	e5933000 	ldr	r3, [r3]
   13db0:	e5933034 	ldr	r3, [r3, #52]	; 0x34
   13db4:	e59f2010 	ldr	r2, [pc, #16]	; 13dcc <__locale_mb_cur_max+0x24>
   13db8:	e3530000 	cmp	r3, #0
   13dbc:	01a03002 	moveq	r3, r2
   13dc0:	e5d30128 	ldrb	r0, [r3, #296]	; 0x128
   13dc4:	e12fff1e 	bx	lr
   13dc8:	00016fb8 			; <UNDEFINED> instruction: 0x00016fb8
   13dcc:	000173cc 	andeq	r7, r1, ip, asr #7

00013dd0 <__locale_ctype_ptr_l>:
   13dd0:	e59000ec 	ldr	r0, [r0, #236]	; 0xec
   13dd4:	e12fff1e 	bx	lr

00013dd8 <__locale_ctype_ptr>:
   13dd8:	e59f3014 	ldr	r3, [pc, #20]	; 13df4 <__locale_ctype_ptr+0x1c>
   13ddc:	e92d4010 	push	{r4, lr}
   13de0:	e5930000 	ldr	r0, [r3]
   13de4:	ebffffc9 	bl	13d10 <__get_current_locale>
   13de8:	e8bd4010 	pop	{r4, lr}
   13dec:	e59000ec 	ldr	r0, [r0, #236]	; 0xec
   13df0:	e12fff1e 	bx	lr
   13df4:	00016fb8 			; <UNDEFINED> instruction: 0x00016fb8

00013df8 <setlocale>:
   13df8:	e59f300c 	ldr	r3, [pc, #12]	; 13e0c <setlocale+0x14>
   13dfc:	e1a02001 	mov	r2, r1
   13e00:	e1a01000 	mov	r1, r0
   13e04:	e5930000 	ldr	r0, [r3]
   13e08:	eaffffc9 	b	13d34 <_setlocale_r>
   13e0c:	00016fb8 			; <UNDEFINED> instruction: 0x00016fb8

00013e10 <_mbtowc_r>:
   13e10:	e59fc024 	ldr	ip, [pc, #36]	; 13e3c <_mbtowc_r+0x2c>
   13e14:	e59cc000 	ldr	ip, [ip]
   13e18:	e59cc034 	ldr	ip, [ip, #52]	; 0x34
   13e1c:	e52de004 	push	{lr}		; (str lr, [sp, #-4]!)
   13e20:	e59fe018 	ldr	lr, [pc, #24]	; 13e40 <_mbtowc_r+0x30>
   13e24:	e35c0000 	cmp	ip, #0
   13e28:	01a0c00e 	moveq	ip, lr
   13e2c:	e59ce0e4 	ldr	lr, [ip, #228]	; 0xe4
   13e30:	e1a0c00e 	mov	ip, lr
   13e34:	e49de004 	pop	{lr}		; (ldr lr, [sp], #4)
   13e38:	e12fff1c 	bx	ip
   13e3c:	00016fb8 			; <UNDEFINED> instruction: 0x00016fb8
   13e40:	000173cc 	andeq	r7, r1, ip, asr #7

00013e44 <__ascii_mbtowc>:
   13e44:	e3510000 	cmp	r1, #0
   13e48:	e24dd008 	sub	sp, sp, #8
   13e4c:	028d1004 	addeq	r1, sp, #4
   13e50:	e3520000 	cmp	r2, #0
   13e54:	0a000008 	beq	13e7c <__ascii_mbtowc+0x38>
   13e58:	e3530000 	cmp	r3, #0
   13e5c:	0a000009 	beq	13e88 <__ascii_mbtowc+0x44>
   13e60:	e5d23000 	ldrb	r3, [r2]
   13e64:	e5813000 	str	r3, [r1]
   13e68:	e5d22000 	ldrb	r2, [r2]
   13e6c:	e2920000 	adds	r0, r2, #0
   13e70:	13a00001 	movne	r0, #1
   13e74:	e28dd008 	add	sp, sp, #8
   13e78:	e12fff1e 	bx	lr
   13e7c:	e1a00002 	mov	r0, r2
   13e80:	e28dd008 	add	sp, sp, #8
   13e84:	e12fff1e 	bx	lr
   13e88:	e3e00001 	mvn	r0, #1
   13e8c:	eafffff8 	b	13e74 <__ascii_mbtowc+0x30>

00013e90 <__swbuf_r>:
   13e90:	e92d41f0 	push	{r4, r5, r6, r7, r8, lr}
   13e94:	e2506000 	subs	r6, r0, #0
   13e98:	e1a05001 	mov	r5, r1
   13e9c:	e1a04002 	mov	r4, r2
   13ea0:	0a000002 	beq	13eb0 <__swbuf_r+0x20>
   13ea4:	e5963038 	ldr	r3, [r6, #56]	; 0x38
   13ea8:	e3530000 	cmp	r3, #0
   13eac:	0a000041 	beq	13fb8 <__swbuf_r+0x128>
   13eb0:	e1d410fc 	ldrsh	r1, [r4, #12]
   13eb4:	e5940018 	ldr	r0, [r4, #24]
   13eb8:	e1a03801 	lsl	r3, r1, #16
   13ebc:	e3130702 	tst	r3, #524288	; 0x80000
   13ec0:	e1a02823 	lsr	r2, r3, #16
   13ec4:	e5840008 	str	r0, [r4, #8]
   13ec8:	0a000021 	beq	13f54 <__swbuf_r+0xc4>
   13ecc:	e5943010 	ldr	r3, [r4, #16]
   13ed0:	e3530000 	cmp	r3, #0
   13ed4:	0a00001e 	beq	13f54 <__swbuf_r+0xc4>
   13ed8:	e3120a02 	tst	r2, #8192	; 0x2000
   13edc:	05942064 	ldreq	r2, [r4, #100]	; 0x64
   13ee0:	03c22a02 	biceq	r2, r2, #8192	; 0x2000
   13ee4:	03811a02 	orreq	r1, r1, #8192	; 0x2000
   13ee8:	05842064 	streq	r2, [r4, #100]	; 0x64
   13eec:	e5942000 	ldr	r2, [r4]
   13ef0:	01c410bc 	strheq	r1, [r4, #12]
   13ef4:	e5941014 	ldr	r1, [r4, #20]
   13ef8:	e0633002 	rsb	r3, r3, r2
   13efc:	e1530001 	cmp	r3, r1
   13f00:	e20570ff 	and	r7, r5, #255	; 0xff
   13f04:	b2833001 	addlt	r3, r3, #1
   13f08:	aa000022 	bge	13f98 <__swbuf_r+0x108>
   13f0c:	e5941008 	ldr	r1, [r4, #8]
   13f10:	e2820001 	add	r0, r2, #1
   13f14:	e2411001 	sub	r1, r1, #1
   13f18:	e5841008 	str	r1, [r4, #8]
   13f1c:	e5840000 	str	r0, [r4]
   13f20:	e5c25000 	strb	r5, [r2]
   13f24:	e5942014 	ldr	r2, [r4, #20]
   13f28:	e1520003 	cmp	r2, r3
   13f2c:	0a000012 	beq	13f7c <__swbuf_r+0xec>
   13f30:	e1d430bc 	ldrh	r3, [r4, #12]
   13f34:	e357000a 	cmp	r7, #10
   13f38:	13a03000 	movne	r3, #0
   13f3c:	02033001 	andeq	r3, r3, #1
   13f40:	e3530000 	cmp	r3, #0
   13f44:	1a00000c 	bne	13f7c <__swbuf_r+0xec>
   13f48:	e1a00007 	mov	r0, r7
   13f4c:	e8bd41f0 	pop	{r4, r5, r6, r7, r8, lr}
   13f50:	e12fff1e 	bx	lr
   13f54:	e1a01004 	mov	r1, r4
   13f58:	e1a00006 	mov	r0, r6
   13f5c:	ebffecd0 	bl	f2a4 <__swsetup_r>
   13f60:	e3500000 	cmp	r0, #0
   13f64:	1a000009 	bne	13f90 <__swbuf_r+0x100>
   13f68:	e1d410fc 	ldrsh	r1, [r4, #12]
   13f6c:	e1a02801 	lsl	r2, r1, #16
   13f70:	e5943010 	ldr	r3, [r4, #16]
   13f74:	e1a02822 	lsr	r2, r2, #16
   13f78:	eaffffd6 	b	13ed8 <__swbuf_r+0x48>
   13f7c:	e1a01004 	mov	r1, r4
   13f80:	e1a00006 	mov	r0, r6
   13f84:	ebffda6c 	bl	a93c <_fflush_r>
   13f88:	e3500000 	cmp	r0, #0
   13f8c:	0affffed 	beq	13f48 <__swbuf_r+0xb8>
   13f90:	e3e07000 	mvn	r7, #0
   13f94:	eaffffeb 	b	13f48 <__swbuf_r+0xb8>
   13f98:	e1a01004 	mov	r1, r4
   13f9c:	e1a00006 	mov	r0, r6
   13fa0:	ebffda65 	bl	a93c <_fflush_r>
   13fa4:	e3500000 	cmp	r0, #0
   13fa8:	1afffff8 	bne	13f90 <__swbuf_r+0x100>
   13fac:	e3a03001 	mov	r3, #1
   13fb0:	e5942000 	ldr	r2, [r4]
   13fb4:	eaffffd4 	b	13f0c <__swbuf_r+0x7c>
   13fb8:	ebffdb8d 	bl	adf4 <__sinit>
   13fbc:	eaffffbb 	b	13eb0 <__swbuf_r+0x20>

00013fc0 <__swbuf>:
   13fc0:	e59f300c 	ldr	r3, [pc, #12]	; 13fd4 <__swbuf+0x14>
   13fc4:	e1a02001 	mov	r2, r1
   13fc8:	e1a01000 	mov	r1, r0
   13fcc:	e5930000 	ldr	r0, [r3]
   13fd0:	eaffffae 	b	13e90 <__swbuf_r>
   13fd4:	00016fb8 			; <UNDEFINED> instruction: 0x00016fb8

00013fd8 <_wcrtomb_r>:
   13fd8:	e92d4070 	push	{r4, r5, r6, lr}
   13fdc:	e251c000 	subs	ip, r1, #0
   13fe0:	e24dd010 	sub	sp, sp, #16
   13fe4:	e1a05000 	mov	r5, r0
   13fe8:	e1a06003 	mov	r6, r3
   13fec:	0a000010 	beq	14034 <_wcrtomb_r+0x5c>
   13ff0:	e59fc06c 	ldr	ip, [pc, #108]	; 14064 <_wcrtomb_r+0x8c>
   13ff4:	e59ce000 	ldr	lr, [ip]
   13ff8:	e59e4034 	ldr	r4, [lr, #52]	; 0x34
   13ffc:	e59fc064 	ldr	ip, [pc, #100]	; 14068 <_wcrtomb_r+0x90>
   14000:	e3540000 	cmp	r4, #0
   14004:	01a0400c 	moveq	r4, ip
   14008:	e594c0e0 	ldr	ip, [r4, #224]	; 0xe0
   1400c:	e1a0e00f 	mov	lr, pc
   14010:	e12fff1c 	bx	ip
   14014:	e3700001 	cmn	r0, #1
   14018:	03a02000 	moveq	r2, #0
   1401c:	03a0308a 	moveq	r3, #138	; 0x8a
   14020:	05862000 	streq	r2, [r6]
   14024:	05853000 	streq	r3, [r5]
   14028:	e28dd010 	add	sp, sp, #16
   1402c:	e8bd4070 	pop	{r4, r5, r6, lr}
   14030:	e12fff1e 	bx	lr
   14034:	e59f2028 	ldr	r2, [pc, #40]	; 14064 <_wcrtomb_r+0x8c>
   14038:	e5922000 	ldr	r2, [r2]
   1403c:	e5924034 	ldr	r4, [r2, #52]	; 0x34
   14040:	e59f1020 	ldr	r1, [pc, #32]	; 14068 <_wcrtomb_r+0x90>
   14044:	e3540000 	cmp	r4, #0
   14048:	01a04001 	moveq	r4, r1
   1404c:	e1a0200c 	mov	r2, ip
   14050:	e28d1004 	add	r1, sp, #4
   14054:	e594c0e0 	ldr	ip, [r4, #224]	; 0xe0
   14058:	e1a0e00f 	mov	lr, pc
   1405c:	e12fff1c 	bx	ip
   14060:	eaffffeb 	b	14014 <_wcrtomb_r+0x3c>
   14064:	00016fb8 			; <UNDEFINED> instruction: 0x00016fb8
   14068:	000173cc 	andeq	r7, r1, ip, asr #7

0001406c <wcrtomb>:
   1406c:	e92d4070 	push	{r4, r5, r6, lr}
   14070:	e59f3084 	ldr	r3, [pc, #132]	; 140fc <wcrtomb+0x90>
   14074:	e5935000 	ldr	r5, [r3]
   14078:	e3500000 	cmp	r0, #0
   1407c:	e24dd010 	sub	sp, sp, #16
   14080:	e1a06002 	mov	r6, r2
   14084:	e5954034 	ldr	r4, [r5, #52]	; 0x34
   14088:	e59f3070 	ldr	r3, [pc, #112]	; 14100 <wcrtomb+0x94>
   1408c:	0a000010 	beq	140d4 <wcrtomb+0x68>
   14090:	e3540000 	cmp	r4, #0
   14094:	e1a02001 	mov	r2, r1
   14098:	01a04003 	moveq	r4, r3
   1409c:	e1a01000 	mov	r1, r0
   140a0:	e1a03006 	mov	r3, r6
   140a4:	e1a00005 	mov	r0, r5
   140a8:	e594c0e0 	ldr	ip, [r4, #224]	; 0xe0
   140ac:	e1a0e00f 	mov	lr, pc
   140b0:	e12fff1c 	bx	ip
   140b4:	e3700001 	cmn	r0, #1
   140b8:	03a02000 	moveq	r2, #0
   140bc:	03a0308a 	moveq	r3, #138	; 0x8a
   140c0:	05862000 	streq	r2, [r6]
   140c4:	05853000 	streq	r3, [r5]
   140c8:	e28dd010 	add	sp, sp, #16
   140cc:	e8bd4070 	pop	{r4, r5, r6, lr}
   140d0:	e12fff1e 	bx	lr
   140d4:	e3540000 	cmp	r4, #0
   140d8:	e1a02000 	mov	r2, r0
   140dc:	01a04003 	moveq	r4, r3
   140e0:	e28d1004 	add	r1, sp, #4
   140e4:	e1a03006 	mov	r3, r6
   140e8:	e1a00005 	mov	r0, r5
   140ec:	e594c0e0 	ldr	ip, [r4, #224]	; 0xe0
   140f0:	e1a0e00f 	mov	lr, pc
   140f4:	e12fff1c 	bx	ip
   140f8:	eaffffed 	b	140b4 <wcrtomb+0x48>
   140fc:	00016fb8 			; <UNDEFINED> instruction: 0x00016fb8
   14100:	000173cc 	andeq	r7, r1, ip, asr #7

00014104 <_wctomb_r>:
   14104:	e59fc024 	ldr	ip, [pc, #36]	; 14130 <_wctomb_r+0x2c>
   14108:	e59cc000 	ldr	ip, [ip]
   1410c:	e59cc034 	ldr	ip, [ip, #52]	; 0x34
   14110:	e52de004 	push	{lr}		; (str lr, [sp, #-4]!)
   14114:	e59fe018 	ldr	lr, [pc, #24]	; 14134 <_wctomb_r+0x30>
   14118:	e35c0000 	cmp	ip, #0
   1411c:	01a0c00e 	moveq	ip, lr
   14120:	e59ce0e0 	ldr	lr, [ip, #224]	; 0xe0
   14124:	e1a0c00e 	mov	ip, lr
   14128:	e49de004 	pop	{lr}		; (ldr lr, [sp], #4)
   1412c:	e12fff1c 	bx	ip
   14130:	00016fb8 			; <UNDEFINED> instruction: 0x00016fb8
   14134:	000173cc 	andeq	r7, r1, ip, asr #7

00014138 <__ascii_wctomb>:
   14138:	e3510000 	cmp	r1, #0
   1413c:	0a000005 	beq	14158 <__ascii_wctomb+0x20>
   14140:	e35200ff 	cmp	r2, #255	; 0xff
   14144:	83a0308a 	movhi	r3, #138	; 0x8a
   14148:	95c12000 	strbls	r2, [r1]
   1414c:	83e01000 	mvnhi	r1, #0
   14150:	93a01001 	movls	r1, #1
   14154:	85803000 	strhi	r3, [r0]
   14158:	e1a00001 	mov	r0, r1
   1415c:	e12fff1e 	bx	lr

00014160 <cos>:
   14160:	eeb07b40 	vmov.f64	d7, d0
   14164:	ee173a90 	vmov	r3, s15
   14168:	e52de004 	push	{lr}		; (str lr, [sp, #-4]!)
   1416c:	e59f20b4 	ldr	r2, [pc, #180]	; 14228 <cos+0xc8>
   14170:	e3c33102 	bic	r3, r3, #-2147483648	; 0x80000000
   14174:	e1530002 	cmp	r3, r2
   14178:	e24dd014 	sub	sp, sp, #20
   1417c:	da000014 	ble	141d4 <cos+0x74>
   14180:	e59f20a4 	ldr	r2, [pc, #164]	; 1422c <cos+0xcc>
   14184:	e1530002 	cmp	r3, r2
   14188:	ce300b40 	vsubgt.f64	d0, d0, d0
   1418c:	da000002 	ble	1419c <cos+0x3c>
   14190:	e28dd014 	add	sp, sp, #20
   14194:	e49de004 	pop	{lr}		; (ldr lr, [sp], #4)
   14198:	e12fff1e 	bx	lr
   1419c:	e1a0000d 	mov	r0, sp
   141a0:	eb000242 	bl	14ab0 <__ieee754_rem_pio2>
   141a4:	e2000003 	and	r0, r0, #3
   141a8:	e3500001 	cmp	r0, #1
   141ac:	0a000012 	beq	141fc <cos+0x9c>
   141b0:	e3500002 	cmp	r0, #2
   141b4:	0a00000b 	beq	141e8 <cos+0x88>
   141b8:	e3500000 	cmp	r0, #0
   141bc:	0a000013 	beq	14210 <cos+0xb0>
   141c0:	e3a00001 	mov	r0, #1
   141c4:	ed9d1b02 	vldr	d1, [sp, #8]
   141c8:	ed9d0b00 	vldr	d0, [sp]
   141cc:	eb0005f7 	bl	159b0 <__kernel_sin>
   141d0:	eaffffee 	b	14190 <cos+0x30>
   141d4:	ed9f1b11 	vldr	d1, [pc, #68]	; 14220 <cos+0xc0>
   141d8:	eb000380 	bl	14fe0 <__kernel_cos>
   141dc:	e28dd014 	add	sp, sp, #20
   141e0:	e49de004 	pop	{lr}		; (ldr lr, [sp], #4)
   141e4:	e12fff1e 	bx	lr
   141e8:	ed9d1b02 	vldr	d1, [sp, #8]
   141ec:	ed9d0b00 	vldr	d0, [sp]
   141f0:	eb00037a 	bl	14fe0 <__kernel_cos>
   141f4:	eeb10b40 	vneg.f64	d0, d0
   141f8:	eaffffe4 	b	14190 <cos+0x30>
   141fc:	ed9d1b02 	vldr	d1, [sp, #8]
   14200:	ed9d0b00 	vldr	d0, [sp]
   14204:	eb0005e9 	bl	159b0 <__kernel_sin>
   14208:	eeb10b40 	vneg.f64	d0, d0
   1420c:	eaffffdf 	b	14190 <cos+0x30>
   14210:	ed9d1b02 	vldr	d1, [sp, #8]
   14214:	ed9d0b00 	vldr	d0, [sp]
   14218:	eb000370 	bl	14fe0 <__kernel_cos>
   1421c:	eaffffdb 	b	14190 <cos+0x30>
	...
   14228:	3fe921fb 	svccc	0x00e921fb
   1422c:	7fefffff 	svcvc	0x00efffff

00014230 <sin>:
   14230:	eeb07b40 	vmov.f64	d7, d0
   14234:	ee173a90 	vmov	r3, s15
   14238:	e52de004 	push	{lr}		; (str lr, [sp, #-4]!)
   1423c:	e59f20bc 	ldr	r2, [pc, #188]	; 14300 <sin+0xd0>
   14240:	e3c33102 	bic	r3, r3, #-2147483648	; 0x80000000
   14244:	e1530002 	cmp	r3, r2
   14248:	e24dd014 	sub	sp, sp, #20
   1424c:	da000014 	ble	142a4 <sin+0x74>
   14250:	e59f20ac 	ldr	r2, [pc, #172]	; 14304 <sin+0xd4>
   14254:	e1530002 	cmp	r3, r2
   14258:	ce300b40 	vsubgt.f64	d0, d0, d0
   1425c:	da000002 	ble	1426c <sin+0x3c>
   14260:	e28dd014 	add	sp, sp, #20
   14264:	e49de004 	pop	{lr}		; (ldr lr, [sp], #4)
   14268:	e12fff1e 	bx	lr
   1426c:	e1a0000d 	mov	r0, sp
   14270:	eb00020e 	bl	14ab0 <__ieee754_rem_pio2>
   14274:	e2000003 	and	r0, r0, #3
   14278:	e3500001 	cmp	r0, #1
   1427c:	0a000014 	beq	142d4 <sin+0xa4>
   14280:	e3500002 	cmp	r0, #2
   14284:	0a00000c 	beq	142bc <sin+0x8c>
   14288:	e3500000 	cmp	r0, #0
   1428c:	0a000014 	beq	142e4 <sin+0xb4>
   14290:	ed9d1b02 	vldr	d1, [sp, #8]
   14294:	ed9d0b00 	vldr	d0, [sp]
   14298:	eb000350 	bl	14fe0 <__kernel_cos>
   1429c:	eeb10b40 	vneg.f64	d0, d0
   142a0:	eaffffee 	b	14260 <sin+0x30>
   142a4:	e3a00000 	mov	r0, #0
   142a8:	ed9f1b12 	vldr	d1, [pc, #72]	; 142f8 <sin+0xc8>
   142ac:	eb0005bf 	bl	159b0 <__kernel_sin>
   142b0:	e28dd014 	add	sp, sp, #20
   142b4:	e49de004 	pop	{lr}		; (ldr lr, [sp], #4)
   142b8:	e12fff1e 	bx	lr
   142bc:	e3a00001 	mov	r0, #1
   142c0:	ed9d1b02 	vldr	d1, [sp, #8]
   142c4:	ed9d0b00 	vldr	d0, [sp]
   142c8:	eb0005b8 	bl	159b0 <__kernel_sin>
   142cc:	eeb10b40 	vneg.f64	d0, d0
   142d0:	eaffffe2 	b	14260 <sin+0x30>
   142d4:	ed9d1b02 	vldr	d1, [sp, #8]
   142d8:	ed9d0b00 	vldr	d0, [sp]
   142dc:	eb00033f 	bl	14fe0 <__kernel_cos>
   142e0:	eaffffde 	b	14260 <sin+0x30>
   142e4:	e3a00001 	mov	r0, #1
   142e8:	ed9d1b02 	vldr	d1, [sp, #8]
   142ec:	ed9d0b00 	vldr	d0, [sp]
   142f0:	eb0005ae 	bl	159b0 <__kernel_sin>
   142f4:	eaffffd9 	b	14260 <sin+0x30>
	...
   14300:	3fe921fb 	svccc	0x00e921fb
   14304:	7fefffff 	svcvc	0x00efffff

00014308 <trunc>:
   14308:	ec532b10 	vmov	r2, r3, d0
   1430c:	e1a00083 	lsl	r0, r3, #1
   14310:	e1a00aa0 	lsr	r0, r0, #21
   14314:	e2401fff 	sub	r1, r0, #1020	; 0x3fc
   14318:	e2411003 	sub	r1, r1, #3
   1431c:	e3510013 	cmp	r1, #19
   14320:	e52de004 	push	{lr}		; (str lr, [sp, #-4]!)
   14324:	e1a0c003 	mov	ip, r3
   14328:	ca000009 	bgt	14354 <trunc+0x4c>
   1432c:	e3510000 	cmp	r1, #0
   14330:	e203e102 	and	lr, r3, #-2147483648	; 0x80000000
   14334:	e3a02000 	mov	r2, #0
   14338:	b1a0300e 	movlt	r3, lr
   1433c:	a59f0050 	ldrge	r0, [pc, #80]	; 14394 <trunc+0x8c>
   14340:	a1cc1150 	bicge	r1, ip, r0, asr r1
   14344:	a181300e 	orrge	r3, r1, lr
   14348:	ec432b10 	vmov	d0, r2, r3
   1434c:	e49de004 	pop	{lr}		; (ldr lr, [sp], #4)
   14350:	e12fff1e 	bx	lr
   14354:	e3510033 	cmp	r1, #51	; 0x33
   14358:	da000006 	ble	14378 <trunc+0x70>
   1435c:	e3510b01 	cmp	r1, #1024	; 0x400
   14360:	0c432b17 	vmoveq	d7, r2, r3
   14364:	0e370b07 	vaddeq.f64	d0, d7, d7
   14368:	0afffff7 	beq	1434c <trunc+0x44>
   1436c:	ec432b10 	vmov	d0, r2, r3
   14370:	e49de004 	pop	{lr}		; (ldr lr, [sp], #4)
   14374:	e12fff1e 	bx	lr
   14378:	e3e01000 	mvn	r1, #0
   1437c:	e2400e41 	sub	r0, r0, #1040	; 0x410
   14380:	e2400003 	sub	r0, r0, #3
   14384:	e1c22031 	bic	r2, r2, r1, lsr r0
   14388:	ec432b10 	vmov	d0, r2, r3
   1438c:	e49de004 	pop	{lr}		; (ldr lr, [sp], #4)
   14390:	e12fff1e 	bx	lr
   14394:	000fffff 	strdeq	pc, [pc], -pc	; <UNPREDICTABLE>

00014398 <asin>:
   14398:	e92d4030 	push	{r4, r5, lr}
   1439c:	ed2d8b06 	vpush	{d8-d10}
   143a0:	eeb08b40 	vmov.f64	d8, d0
   143a4:	e24dd02c 	sub	sp, sp, #44	; 0x2c
   143a8:	eb00007e 	bl	145a8 <__ieee754_asin>
   143ac:	eeb48b48 	vcmp.f64	d8, d8
   143b0:	e59f50e0 	ldr	r5, [pc, #224]	; 14498 <asin+0x100>
   143b4:	e1d540d0 	ldrsb	r4, [r5]
   143b8:	e3740001 	cmn	r4, #1
   143bc:	13a04000 	movne	r4, #0
   143c0:	03a04001 	moveq	r4, #1
   143c4:	eef1fa10 	vmrs	APSR_nzcv, fpscr
   143c8:	63844001 	orrvs	r4, r4, #1
   143cc:	e3540000 	cmp	r4, #0
   143d0:	eeb09b40 	vmov.f64	d9, d0
   143d4:	1a00001d 	bne	14450 <asin+0xb8>
   143d8:	eeb00b48 	vmov.f64	d0, d8
   143dc:	eb000646 	bl	15cfc <fabs>
   143e0:	ed9f7b2a 	vldr	d7, [pc, #168]	; 14490 <asin+0xf8>
   143e4:	eeb40bc7 	vcmpe.f64	d0, d7
   143e8:	eef1fa10 	vmrs	APSR_nzcv, fpscr
   143ec:	da000017 	ble	14450 <asin+0xb8>
   143f0:	e3a02001 	mov	r2, #1
   143f4:	e59f30a0 	ldr	r3, [pc, #160]	; 1449c <asin+0x104>
   143f8:	e59f00a0 	ldr	r0, [pc, #160]	; 144a0 <asin+0x108>
   143fc:	e88d000c 	stm	sp, {r2, r3}
   14400:	e58d4020 	str	r4, [sp, #32]
   14404:	ed8d8b04 	vstr	d8, [sp, #16]
   14408:	ed8d8b02 	vstr	d8, [sp, #8]
   1440c:	eb0006a3 	bl	15ea0 <nan>
   14410:	e1d530d0 	ldrsb	r3, [r5]
   14414:	e3530002 	cmp	r3, #2
   14418:	ed8d0b06 	vstr	d0, [sp, #24]
   1441c:	0a000010 	beq	14464 <asin+0xcc>
   14420:	e1a0000d 	mov	r0, sp
   14424:	eb00069b 	bl	15e98 <matherr>
   14428:	e3500000 	cmp	r0, #0
   1442c:	0a00000c 	beq	14464 <asin+0xcc>
   14430:	e59d3020 	ldr	r3, [sp, #32]
   14434:	e3530000 	cmp	r3, #0
   14438:	1a00000f 	bne	1447c <asin+0xe4>
   1443c:	ed9d0b06 	vldr	d0, [sp, #24]
   14440:	e28dd02c 	add	sp, sp, #44	; 0x2c
   14444:	ecbd8b06 	vpop	{d8-d10}
   14448:	e8bd4030 	pop	{r4, r5, lr}
   1444c:	e12fff1e 	bx	lr
   14450:	eeb00b49 	vmov.f64	d0, d9
   14454:	e28dd02c 	add	sp, sp, #44	; 0x2c
   14458:	ecbd8b06 	vpop	{d8-d10}
   1445c:	e8bd4030 	pop	{r4, r5, lr}
   14460:	e12fff1e 	bx	lr
   14464:	ebffd85c 	bl	a5dc <__errno>
   14468:	e3a03021 	mov	r3, #33	; 0x21
   1446c:	e5803000 	str	r3, [r0]
   14470:	e59d3020 	ldr	r3, [sp, #32]
   14474:	e3530000 	cmp	r3, #0
   14478:	0affffef 	beq	1443c <asin+0xa4>
   1447c:	ebffd856 	bl	a5dc <__errno>
   14480:	e59d3020 	ldr	r3, [sp, #32]
   14484:	e5803000 	str	r3, [r0]
   14488:	eaffffeb 	b	1443c <asin+0xa4>
   1448c:	e1a00000 	nop			; (mov r0, r0)
   14490:	00000000 	andeq	r0, r0, r0
   14494:	3ff00000 	svccc	0x00f00000	; IMB
   14498:	00017538 	andeq	r7, r1, r8, lsr r5
   1449c:	000166d0 	ldrdeq	r6, [r1], -r0
   144a0:	000164f0 	strdeq	r6, [r1], -r0

000144a4 <atan2>:
   144a4:	e92d4010 	push	{r4, lr}
   144a8:	eb0000e4 	bl	14840 <__ieee754_atan2>
   144ac:	e8bd4010 	pop	{r4, lr}
   144b0:	e12fff1e 	bx	lr
   144b4:	00000000 	andeq	r0, r0, r0

000144b8 <sqrt>:
   144b8:	e52de004 	push	{lr}		; (str lr, [sp, #-4]!)
   144bc:	ed2d8b02 	vpush	{d8}
   144c0:	eeb08b40 	vmov.f64	d8, d0
   144c4:	e24dd02c 	sub	sp, sp, #44	; 0x2c
   144c8:	eb00023d 	bl	14dc4 <__ieee754_sqrt>
   144cc:	eeb48b48 	vcmp.f64	d8, d8
   144d0:	e59f30c8 	ldr	r3, [pc, #200]	; 145a0 <sqrt+0xe8>
   144d4:	e1d320d0 	ldrsb	r2, [r3]
   144d8:	e3720001 	cmn	r2, #1
   144dc:	13a03000 	movne	r3, #0
   144e0:	03a03001 	moveq	r3, #1
   144e4:	eef1fa10 	vmrs	APSR_nzcv, fpscr
   144e8:	63833001 	orrvs	r3, r3, #1
   144ec:	e3530000 	cmp	r3, #0
   144f0:	1a000003 	bne	14504 <sqrt+0x4c>
   144f4:	eeb58bc0 	vcmpe.f64	d8, #0.0
   144f8:	eef1fa10 	vmrs	APSR_nzcv, fpscr
   144fc:	ed9f7b25 	vldr	d7, [pc, #148]	; 14598 <sqrt+0xe0>
   14500:	4a000003 	bmi	14514 <sqrt+0x5c>
   14504:	e28dd02c 	add	sp, sp, #44	; 0x2c
   14508:	ecbd8b02 	vpop	{d8}
   1450c:	e49de004 	pop	{lr}		; (ldr lr, [sp], #4)
   14510:	e12fff1e 	bx	lr
   14514:	e3a00001 	mov	r0, #1
   14518:	e59f1084 	ldr	r1, [pc, #132]	; 145a4 <sqrt+0xec>
   1451c:	e3520000 	cmp	r2, #0
   14520:	e58d3020 	str	r3, [sp, #32]
   14524:	ed8d8b04 	vstr	d8, [sp, #16]
   14528:	ed8d8b02 	vstr	d8, [sp, #8]
   1452c:	e88d0003 	stm	sp, {r0, r1}
   14530:	0d8d7b06 	vstreq	d7, [sp, #24]
   14534:	1a00000b 	bne	14568 <sqrt+0xb0>
   14538:	e1a0000d 	mov	r0, sp
   1453c:	eb000655 	bl	15e98 <matherr>
   14540:	e3500000 	cmp	r0, #0
   14544:	0a00000b 	beq	14578 <sqrt+0xc0>
   14548:	e59d3020 	ldr	r3, [sp, #32]
   1454c:	e3530000 	cmp	r3, #0
   14550:	1a00000c 	bne	14588 <sqrt+0xd0>
   14554:	ed9d0b06 	vldr	d0, [sp, #24]
   14558:	e28dd02c 	add	sp, sp, #44	; 0x2c
   1455c:	ecbd8b02 	vpop	{d8}
   14560:	e49de004 	pop	{lr}		; (ldr lr, [sp], #4)
   14564:	e12fff1e 	bx	lr
   14568:	ee876b07 	vdiv.f64	d6, d7, d7
   1456c:	e3520002 	cmp	r2, #2
   14570:	ed8d6b06 	vstr	d6, [sp, #24]
   14574:	1affffef 	bne	14538 <sqrt+0x80>
   14578:	ebffd817 	bl	a5dc <__errno>
   1457c:	e3a03021 	mov	r3, #33	; 0x21
   14580:	e5803000 	str	r3, [r0]
   14584:	eaffffef 	b	14548 <sqrt+0x90>
   14588:	ebffd813 	bl	a5dc <__errno>
   1458c:	e59d3020 	ldr	r3, [sp, #32]
   14590:	e5803000 	str	r3, [r0]
   14594:	eaffffee 	b	14554 <sqrt+0x9c>
	...
   145a0:	00017538 	andeq	r7, r1, r8, lsr r5
   145a4:	000166d8 	ldrdeq	r6, [r1], -r8

000145a8 <__ieee754_asin>:
   145a8:	e92d4030 	push	{r4, r5, lr}
   145ac:	ee105a90 	vmov	r5, s1
   145b0:	ed2d8b06 	vpush	{d8-d10}
   145b4:	e59f3274 	ldr	r3, [pc, #628]	; 14830 <__ieee754_asin+0x288>
   145b8:	e3c54102 	bic	r4, r5, #-2147483648	; 0x80000000
   145bc:	e1540003 	cmp	r4, r3
   145c0:	e24dd00c 	sub	sp, sp, #12
   145c4:	da00000e 	ble	14604 <__ieee754_asin+0x5c>
   145c8:	ee103a10 	vmov	r3, s0
   145cc:	e2844103 	add	r4, r4, #-1073741824	; 0xc0000000
   145d0:	e2844601 	add	r4, r4, #1048576	; 0x100000
   145d4:	e1943003 	orrs	r3, r4, r3
   145d8:	0d9f7b74 	vldreq	d7, [pc, #464]	; 147b0 <__ieee754_asin+0x208>
   145dc:	0d9f6b75 	vldreq	d6, [pc, #468]	; 147b8 <__ieee754_asin+0x210>
   145e0:	0e207b07 	vmuleq.f64	d7, d0, d7
   145e4:	1e307b40 	vsubne.f64	d7, d0, d0
   145e8:	0e007b06 	vmlaeq.f64	d7, d0, d6
   145ec:	1e870b07 	vdivne.f64	d0, d7, d7
   145f0:	0eb00b47 	vmoveq.f64	d0, d7
   145f4:	e28dd00c 	add	sp, sp, #12
   145f8:	ecbd8b06 	vpop	{d8-d10}
   145fc:	e8bd4030 	pop	{r4, r5, lr}
   14600:	e12fff1e 	bx	lr
   14604:	e59f3228 	ldr	r3, [pc, #552]	; 14834 <__ieee754_asin+0x28c>
   14608:	e1540003 	cmp	r4, r3
   1460c:	ca000007 	bgt	14630 <__ieee754_asin+0x88>
   14610:	e35405f9 	cmp	r4, #1044381696	; 0x3e400000
   14614:	aa000048 	bge	1473c <__ieee754_asin+0x194>
   14618:	ed9f7b68 	vldr	d7, [pc, #416]	; 147c0 <__ieee754_asin+0x218>
   1461c:	ed9f6b69 	vldr	d6, [pc, #420]	; 147c8 <__ieee754_asin+0x220>
   14620:	ee307b07 	vadd.f64	d7, d0, d7
   14624:	eeb47bc6 	vcmpe.f64	d7, d6
   14628:	eef1fa10 	vmrs	APSR_nzcv, fpscr
   1462c:	cafffff0 	bgt	145f4 <__ieee754_asin+0x4c>
   14630:	eb0005b1 	bl	15cfc <fabs>
   14634:	ed9f5b63 	vldr	d5, [pc, #396]	; 147c8 <__ieee754_asin+0x220>
   14638:	ed9f7b64 	vldr	d7, [pc, #400]	; 147d0 <__ieee754_asin+0x228>
   1463c:	ee350b40 	vsub.f64	d0, d5, d0
   14640:	ed9f6b64 	vldr	d6, [pc, #400]	; 147d8 <__ieee754_asin+0x230>
   14644:	ee208b07 	vmul.f64	d8, d0, d7
   14648:	ed9f7b64 	vldr	d7, [pc, #400]	; 147e0 <__ieee754_asin+0x238>
   1464c:	ed9f4b65 	vldr	d4, [pc, #404]	; 147e8 <__ieee754_asin+0x240>
   14650:	ee087b06 	vmla.f64	d7, d8, d6
   14654:	ed9f2b65 	vldr	d2, [pc, #404]	; 147f0 <__ieee754_asin+0x248>
   14658:	ee174b08 	vnmls.f64	d4, d7, d8
   1465c:	ed9f6b65 	vldr	d6, [pc, #404]	; 147f8 <__ieee754_asin+0x250>
   14660:	ed9f7b66 	vldr	d7, [pc, #408]	; 14800 <__ieee754_asin+0x258>
   14664:	ee046b08 	vmla.f64	d6, d4, d8
   14668:	ee187b02 	vnmls.f64	d7, d8, d2
   1466c:	ed9f4b65 	vldr	d4, [pc, #404]	; 14808 <__ieee754_asin+0x260>
   14670:	ed9f3b66 	vldr	d3, [pc, #408]	; 14810 <__ieee754_asin+0x268>
   14674:	ee074b08 	vmla.f64	d4, d7, d8
   14678:	ed9f7b66 	vldr	d7, [pc, #408]	; 14818 <__ieee754_asin+0x270>
   1467c:	ee163b08 	vnmls.f64	d3, d6, d8
   14680:	ee147b08 	vnmls.f64	d7, d4, d8
   14684:	ed9f6b65 	vldr	d6, [pc, #404]	; 14820 <__ieee754_asin+0x278>
   14688:	ee075b08 	vmla.f64	d5, d7, d8
   1468c:	ee036b08 	vmla.f64	d6, d3, d8
   14690:	eeb00b48 	vmov.f64	d0, d8
   14694:	ee269b08 	vmul.f64	d9, d6, d8
   14698:	eeb0ab45 	vmov.f64	d10, d5
   1469c:	eb0001c8 	bl	14dc4 <__ieee754_sqrt>
   146a0:	e59f3190 	ldr	r3, [pc, #400]	; 14838 <__ieee754_asin+0x290>
   146a4:	e1540003 	cmp	r4, r3
   146a8:	ed8d0b00 	vstr	d0, [sp]
   146ac:	ca000018 	bgt	14714 <__ieee754_asin+0x16c>
   146b0:	e89d000c 	ldm	sp, {r2, r3}
   146b4:	e3a02000 	mov	r2, #0
   146b8:	ed9d6b00 	vldr	d6, [sp]
   146bc:	ec432b17 	vmov	d7, r2, r3
   146c0:	ee366b07 	vadd.f64	d6, d6, d7
   146c4:	ee078b47 	vmls.f64	d8, d7, d7
   146c8:	ee880b06 	vdiv.f64	d0, d8, d6
   146cc:	ed9f5b37 	vldr	d5, [pc, #220]	; 147b0 <__ieee754_asin+0x208>
   146d0:	ee376b07 	vadd.f64	d6, d7, d7
   146d4:	ee300b00 	vadd.f64	d0, d0, d0
   146d8:	ed9d7b00 	vldr	d7, [sp]
   146dc:	ee350b40 	vsub.f64	d0, d5, d0
   146e0:	ee894b0a 	vdiv.f64	d4, d9, d10
   146e4:	ee375b07 	vadd.f64	d5, d7, d7
   146e8:	ed9f7b4e 	vldr	d7, [pc, #312]	; 14828 <__ieee754_asin+0x280>
   146ec:	ee140b05 	vnmls.f64	d0, d4, d5
   146f0:	ee376b46 	vsub.f64	d6, d7, d6
   146f4:	ee300b46 	vsub.f64	d0, d0, d6
   146f8:	ee370b40 	vsub.f64	d0, d7, d0
   146fc:	e3550000 	cmp	r5, #0
   14700:	deb10b40 	vnegle.f64	d0, d0
   14704:	e28dd00c 	add	sp, sp, #12
   14708:	ecbd8b06 	vpop	{d8-d10}
   1470c:	e8bd4030 	pop	{r4, r5, lr}
   14710:	e12fff1e 	bx	lr
   14714:	ee897b0a 	vdiv.f64	d7, d9, d10
   14718:	eeb06b40 	vmov.f64	d6, d0
   1471c:	ee076b00 	vmla.f64	d6, d7, d0
   14720:	eeb07b46 	vmov.f64	d7, d6
   14724:	ed9f6b21 	vldr	d6, [pc, #132]	; 147b0 <__ieee754_asin+0x208>
   14728:	ee370b07 	vadd.f64	d0, d7, d7
   1472c:	ed9f7b21 	vldr	d7, [pc, #132]	; 147b8 <__ieee754_asin+0x210>
   14730:	ee300b46 	vsub.f64	d0, d0, d6
   14734:	ee370b40 	vsub.f64	d0, d7, d0
   14738:	eaffffef 	b	146fc <__ieee754_asin+0x154>
   1473c:	ee207b00 	vmul.f64	d7, d0, d0
   14740:	ed9f6b24 	vldr	d6, [pc, #144]	; 147d8 <__ieee754_asin+0x230>
   14744:	ed9f4b25 	vldr	d4, [pc, #148]	; 147e0 <__ieee754_asin+0x238>
   14748:	ed9f5b26 	vldr	d5, [pc, #152]	; 147e8 <__ieee754_asin+0x240>
   1474c:	ee074b06 	vmla.f64	d4, d7, d6
   14750:	ed9f2b26 	vldr	d2, [pc, #152]	; 147f0 <__ieee754_asin+0x248>
   14754:	ee145b07 	vnmls.f64	d5, d4, d7
   14758:	ed9f6b26 	vldr	d6, [pc, #152]	; 147f8 <__ieee754_asin+0x250>
   1475c:	ed9f4b27 	vldr	d4, [pc, #156]	; 14800 <__ieee754_asin+0x258>
   14760:	ee056b07 	vmla.f64	d6, d5, d7
   14764:	ee174b02 	vnmls.f64	d4, d7, d2
   14768:	ed9f5b26 	vldr	d5, [pc, #152]	; 14808 <__ieee754_asin+0x260>
   1476c:	ed9f3b27 	vldr	d3, [pc, #156]	; 14810 <__ieee754_asin+0x268>
   14770:	ee045b07 	vmla.f64	d5, d4, d7
   14774:	ed9f4b27 	vldr	d4, [pc, #156]	; 14818 <__ieee754_asin+0x270>
   14778:	ee163b07 	vnmls.f64	d3, d6, d7
   1477c:	ee154b07 	vnmls.f64	d4, d5, d7
   14780:	ed9f6b26 	vldr	d6, [pc, #152]	; 14820 <__ieee754_asin+0x278>
   14784:	ed9f5b0f 	vldr	d5, [pc, #60]	; 147c8 <__ieee754_asin+0x220>
   14788:	ee036b07 	vmla.f64	d6, d3, d7
   1478c:	ee045b07 	vmla.f64	d5, d4, d7
   14790:	ee266b07 	vmul.f64	d6, d6, d7
   14794:	eeb07b45 	vmov.f64	d7, d5
   14798:	ee865b07 	vdiv.f64	d5, d6, d7
   1479c:	ee050b00 	vmla.f64	d0, d5, d0
   147a0:	e28dd00c 	add	sp, sp, #12
   147a4:	ecbd8b06 	vpop	{d8-d10}
   147a8:	e8bd4030 	pop	{r4, r5, lr}
   147ac:	e12fff1e 	bx	lr
   147b0:	33145c07 	tstcc	r4, #1792	; 0x700
   147b4:	3c91a626 	ldccc	6, cr10, [r1], {38}	; 0x26
   147b8:	54442d18 	strbpl	r2, [r4], #-3352	; 0xfffff2e8
   147bc:	3ff921fb 	svccc	0x00f921fb
   147c0:	8800759c 	stmdahi	r0, {r2, r3, r4, r7, r8, sl, ip, sp, lr}
   147c4:	7e37e43c 	mrcvc	4, 1, lr, cr7, cr12, {1}
   147c8:	00000000 	andeq	r0, r0, r0
   147cc:	3ff00000 	svccc	0x00f00000	; IMB
   147d0:	00000000 	andeq	r0, r0, r0
   147d4:	3fe00000 	svccc	0x00e00000
   147d8:	0dfdf709 	ldcleq	7, cr15, [sp, #36]!	; 0x24
   147dc:	3f023de1 	svccc	0x00023de1
   147e0:	7501b288 	strvc	fp, [r1, #-648]	; 0xfffffd78
   147e4:	3f49efe0 	svccc	0x0049efe0
   147e8:	b5688f3b 	strblt	r8, [r8, #-3899]!	; 0xfffff0c5
   147ec:	3fa48228 	svccc	0x00a48228
   147f0:	b12e9282 	smlawblt	lr, r2, r2, r9
   147f4:	3fb3b8c5 	svccc	0x00b3b8c5
   147f8:	0e884455 	mcreq	4, 4, r4, cr8, cr5, {2}
   147fc:	3fc9c155 	svccc	0x00c9c155
   14800:	1b8d0159 	blne	fe354d6c <errno+0xfe335538>
   14804:	3fe6066c 	svccc	0x00e6066c
   14808:	9c598ac8 	mrrcls	10, 12, r8, r9, cr8
   1480c:	40002ae5 	andmi	r2, r0, r5, ror #21
   14810:	03eb6f7d 	mvneq	r6, #500	; 0x1f4
   14814:	3fd4d612 	svccc	0x00d4d612
   14818:	1c8a2d4b 	stcne	13, cr2, [sl], {75}	; 0x4b
   1481c:	40033a27 	andmi	r3, r3, r7, lsr #20
   14820:	55555555 	ldrbpl	r5, [r5, #-1365]	; 0xfffffaab
   14824:	3fc55555 	svccc	0x00c55555
   14828:	54442d18 	strbpl	r2, [r4], #-3352	; 0xfffff2e8
   1482c:	3fe921fb 	svccc	0x00e921fb
   14830:	3fefffff 	svccc	0x00efffff
   14834:	3fdfffff 	svccc	0x00dfffff
   14838:	3fef3332 	svccc	0x00ef3332
   1483c:	00000000 	andeq	r0, r0, r0

00014840 <__ieee754_atan2>:
   14840:	e92d43f0 	push	{r4, r5, r6, r7, r8, r9, lr}
   14844:	e24dd014 	sub	sp, sp, #20
   14848:	ed8d0b00 	vstr	d0, [sp]
   1484c:	ed8d1b02 	vstr	d1, [sp, #8]
   14850:	e59dc008 	ldr	ip, [sp, #8]
   14854:	e59d400c 	ldr	r4, [sp, #12]
   14858:	e26c3000 	rsb	r3, ip, #0
   1485c:	e183300c 	orr	r3, r3, ip
   14860:	e3c46102 	bic	r6, r4, #-2147483648	; 0x80000000
   14864:	e59fe23c 	ldr	lr, [pc, #572]	; 14aa8 <__ieee754_atan2+0x268>
   14868:	e1863fa3 	orr	r3, r6, r3, lsr #31
   1486c:	e153000e 	cmp	r3, lr
   14870:	e89d00a0 	ldm	sp, {r5, r7}
   14874:	8a00002e 	bhi	14934 <__ieee754_atan2+0xf4>
   14878:	e2653000 	rsb	r3, r5, #0
   1487c:	e1833005 	orr	r3, r3, r5
   14880:	e3c78102 	bic	r8, r7, #-2147483648	; 0x80000000
   14884:	e1883fa3 	orr	r3, r8, r3, lsr #31
   14888:	e153000e 	cmp	r3, lr
   1488c:	8a000028 	bhi	14934 <__ieee754_atan2+0xf4>
   14890:	e2849103 	add	r9, r4, #-1073741824	; 0xc0000000
   14894:	e2899601 	add	r9, r9, #1048576	; 0x100000
   14898:	e199900c 	orrs	r9, r9, ip
   1489c:	e89d0003 	ldm	sp, {r0, r1}
   148a0:	e28d3008 	add	r3, sp, #8
   148a4:	e893000c 	ldm	r3, {r2, r3}
   148a8:	0a000034 	beq	14980 <__ieee754_atan2+0x140>
   148ac:	e1a09f44 	asr	r9, r4, #30
   148b0:	e1955008 	orrs	r5, r5, r8
   148b4:	e2095002 	and	r5, r9, #2
   148b8:	e1855fa7 	orr	r5, r5, r7, lsr #31
   148bc:	0a000022 	beq	1494c <__ieee754_atan2+0x10c>
   148c0:	e19cc006 	orrs	ip, ip, r6
   148c4:	0a000026 	beq	14964 <__ieee754_atan2+0x124>
   148c8:	e156000e 	cmp	r6, lr
   148cc:	0a000032 	beq	1499c <__ieee754_atan2+0x15c>
   148d0:	e158000e 	cmp	r8, lr
   148d4:	0a000022 	beq	14964 <__ieee754_atan2+0x124>
   148d8:	e0666008 	rsb	r6, r6, r8
   148dc:	e1a06a46 	asr	r6, r6, #20
   148e0:	e356003c 	cmp	r6, #60	; 0x3c
   148e4:	ca000027 	bgt	14988 <__ieee754_atan2+0x148>
   148e8:	e376003c 	cmn	r6, #60	; 0x3c
   148ec:	a3a06000 	movge	r6, #0
   148f0:	b3a06001 	movlt	r6, #1
   148f4:	e016cfa4 	ands	ip, r6, r4, lsr #31
   148f8:	13a02000 	movne	r2, #0
   148fc:	13a03000 	movne	r3, #0
   14900:	0a00003b 	beq	149f4 <__ieee754_atan2+0x1b4>
   14904:	e3550001 	cmp	r5, #1
   14908:	0a000036 	beq	149e8 <__ieee754_atan2+0x1a8>
   1490c:	e3550002 	cmp	r5, #2
   14910:	0a00002e 	beq	149d0 <__ieee754_atan2+0x190>
   14914:	e3550000 	cmp	r5, #0
   14918:	0a00002a 	beq	149c8 <__ieee754_atan2+0x188>
   1491c:	ed9f7b4b 	vldr	d7, [pc, #300]	; 14a50 <__ieee754_atan2+0x210>
   14920:	ec432b15 	vmov	d5, r2, r3
   14924:	ed9f6b4b 	vldr	d6, [pc, #300]	; 14a58 <__ieee754_atan2+0x218>
   14928:	ee357b47 	vsub.f64	d7, d5, d7
   1492c:	ee370b46 	vsub.f64	d0, d7, d6
   14930:	ea000002 	b	14940 <__ieee754_atan2+0x100>
   14934:	ed9d7b02 	vldr	d7, [sp, #8]
   14938:	ed9d6b00 	vldr	d6, [sp]
   1493c:	ee370b06 	vadd.f64	d0, d7, d6
   14940:	e28dd014 	add	sp, sp, #20
   14944:	e8bd43f0 	pop	{r4, r5, r6, r7, r8, r9, lr}
   14948:	e12fff1e 	bx	lr
   1494c:	e3550002 	cmp	r5, #2
   14950:	0a00000f 	beq	14994 <__ieee754_atan2+0x154>
   14954:	ed9f0b41 	vldr	d0, [pc, #260]	; 14a60 <__ieee754_atan2+0x220>
   14958:	e3550003 	cmp	r5, #3
   1495c:	1c410b10 	vmovne	d0, r0, r1
   14960:	eafffff6 	b	14940 <__ieee754_atan2+0x100>
   14964:	ed9f7b3f 	vldr	d7, [pc, #252]	; 14a68 <__ieee754_atan2+0x228>
   14968:	ed9f0b40 	vldr	d0, [pc, #256]	; 14a70 <__ieee754_atan2+0x230>
   1496c:	e3570000 	cmp	r7, #0
   14970:	aeb00b47 	vmovge.f64	d0, d7
   14974:	e28dd014 	add	sp, sp, #20
   14978:	e8bd43f0 	pop	{r4, r5, r6, r7, r8, r9, lr}
   1497c:	e12fff1e 	bx	lr
   14980:	eb00043a 	bl	15a70 <atan>
   14984:	eaffffed 	b	14940 <__ieee754_atan2+0x100>
   14988:	e28f30d8 	add	r3, pc, #216	; 0xd8
   1498c:	e893000c 	ldm	r3, {r2, r3}
   14990:	eaffffdb 	b	14904 <__ieee754_atan2+0xc4>
   14994:	ed9f0b2f 	vldr	d0, [pc, #188]	; 14a58 <__ieee754_atan2+0x218>
   14998:	eaffffe8 	b	14940 <__ieee754_atan2+0x100>
   1499c:	e1580006 	cmp	r8, r6
   149a0:	0a00001a 	beq	14a10 <__ieee754_atan2+0x1d0>
   149a4:	e3550002 	cmp	r5, #2
   149a8:	0afffff9 	beq	14994 <__ieee754_atan2+0x154>
   149ac:	e3550003 	cmp	r5, #3
   149b0:	0a00001f 	beq	14a34 <__ieee754_atan2+0x1f4>
   149b4:	ed9f7b2f 	vldr	d7, [pc, #188]	; 14a78 <__ieee754_atan2+0x238>
   149b8:	ed9f0b30 	vldr	d0, [pc, #192]	; 14a80 <__ieee754_atan2+0x240>
   149bc:	e3550001 	cmp	r5, #1
   149c0:	0eb00b47 	vmoveq.f64	d0, d7
   149c4:	eaffffdd 	b	14940 <__ieee754_atan2+0x100>
   149c8:	ec432b10 	vmov	d0, r2, r3
   149cc:	eaffffdb 	b	14940 <__ieee754_atan2+0x100>
   149d0:	ed9f7b1e 	vldr	d7, [pc, #120]	; 14a50 <__ieee754_atan2+0x210>
   149d4:	ec432b15 	vmov	d5, r2, r3
   149d8:	ed9f6b1e 	vldr	d6, [pc, #120]	; 14a58 <__ieee754_atan2+0x218>
   149dc:	ee357b47 	vsub.f64	d7, d5, d7
   149e0:	ee360b47 	vsub.f64	d0, d6, d7
   149e4:	eaffffd5 	b	14940 <__ieee754_atan2+0x100>
   149e8:	e2833102 	add	r3, r3, #-2147483648	; 0x80000000
   149ec:	ec432b10 	vmov	d0, r2, r3
   149f0:	eaffffd2 	b	14940 <__ieee754_atan2+0x100>
   149f4:	ec432b16 	vmov	d6, r2, r3
   149f8:	ec410b17 	vmov	d7, r0, r1
   149fc:	ee870b06 	vdiv.f64	d0, d7, d6
   14a00:	eb0004bd 	bl	15cfc <fabs>
   14a04:	eb000419 	bl	15a70 <atan>
   14a08:	ec532b10 	vmov	r2, r3, d0
   14a0c:	eaffffbc 	b	14904 <__ieee754_atan2+0xc4>
   14a10:	e3550002 	cmp	r5, #2
   14a14:	0a00000a 	beq	14a44 <__ieee754_atan2+0x204>
   14a18:	e3550003 	cmp	r5, #3
   14a1c:	0a000006 	beq	14a3c <__ieee754_atan2+0x1fc>
   14a20:	ed9f7b18 	vldr	d7, [pc, #96]	; 14a88 <__ieee754_atan2+0x248>
   14a24:	ed9f0b19 	vldr	d0, [pc, #100]	; 14a90 <__ieee754_atan2+0x250>
   14a28:	e3550001 	cmp	r5, #1
   14a2c:	0eb00b47 	vmoveq.f64	d0, d7
   14a30:	eaffffc2 	b	14940 <__ieee754_atan2+0x100>
   14a34:	ed9f0b09 	vldr	d0, [pc, #36]	; 14a60 <__ieee754_atan2+0x220>
   14a38:	eaffffc0 	b	14940 <__ieee754_atan2+0x100>
   14a3c:	ed9f0b15 	vldr	d0, [pc, #84]	; 14a98 <__ieee754_atan2+0x258>
   14a40:	eaffffbe 	b	14940 <__ieee754_atan2+0x100>
   14a44:	ed9f0b15 	vldr	d0, [pc, #84]	; 14aa0 <__ieee754_atan2+0x260>
   14a48:	eaffffbc 	b	14940 <__ieee754_atan2+0x100>
   14a4c:	e1a00000 	nop			; (mov r0, r0)
   14a50:	33145c07 	tstcc	r4, #1792	; 0x700
   14a54:	3ca1a626 	stccc	6, cr10, [r1], #152	; 0x98
   14a58:	54442d18 	strbpl	r2, [r4], #-3352	; 0xfffff2e8
   14a5c:	400921fb 	strdmi	r2, [r9], -fp
   14a60:	54442d18 	strbpl	r2, [r4], #-3352	; 0xfffff2e8
   14a64:	c00921fb 	strdgt	r2, [r9], -fp
   14a68:	54442d18 	strbpl	r2, [r4], #-3352	; 0xfffff2e8
   14a6c:	3ff921fb 	svccc	0x00f921fb
   14a70:	54442d18 	strbpl	r2, [r4], #-3352	; 0xfffff2e8
   14a74:	bff921fb 	svclt	0x00f921fb
   14a78:	00000000 	andeq	r0, r0, r0
   14a7c:	80000000 	andhi	r0, r0, r0
	...
   14a88:	54442d18 	strbpl	r2, [r4], #-3352	; 0xfffff2e8
   14a8c:	bfe921fb 	svclt	0x00e921fb
   14a90:	54442d18 	strbpl	r2, [r4], #-3352	; 0xfffff2e8
   14a94:	3fe921fb 	svccc	0x00e921fb
   14a98:	7f3321d2 	svcvc	0x003321d2
   14a9c:	c002d97c 	andgt	sp, r2, ip, ror r9
   14aa0:	7f3321d2 	svcvc	0x003321d2
   14aa4:	4002d97c 	andmi	sp, r2, ip, ror r9
   14aa8:	7ff00000 	svcvc	0x00f00000	; IMB
   14aac:	00000000 	andeq	r0, r0, r0

00014ab0 <__ieee754_rem_pio2>:
   14ab0:	ec532b10 	vmov	r2, r3, d0
   14ab4:	e92d4070 	push	{r4, r5, r6, lr}
   14ab8:	e59f12e8 	ldr	r1, [pc, #744]	; 14da8 <__ieee754_rem_pio2+0x2f8>
   14abc:	e3c36102 	bic	r6, r3, #-2147483648	; 0x80000000
   14ac0:	e1560001 	cmp	r6, r1
   14ac4:	e24dd020 	sub	sp, sp, #32
   14ac8:	da000049 	ble	14bf4 <__ieee754_rem_pio2+0x144>
   14acc:	e59f12d8 	ldr	r1, [pc, #728]	; 14dac <__ieee754_rem_pio2+0x2fc>
   14ad0:	e1560001 	cmp	r6, r1
   14ad4:	e1a05003 	mov	r5, r3
   14ad8:	ca000013 	bgt	14b2c <__ieee754_rem_pio2+0x7c>
   14adc:	e3530000 	cmp	r3, #0
   14ae0:	ed9f7b9e 	vldr	d7, [pc, #632]	; 14d60 <__ieee754_rem_pio2+0x2b0>
   14ae4:	e59f12c4 	ldr	r1, [pc, #708]	; 14db0 <__ieee754_rem_pio2+0x300>
   14ae8:	da00008e 	ble	14d28 <__ieee754_rem_pio2+0x278>
   14aec:	e1560001 	cmp	r6, r1
   14af0:	eeb06b40 	vmov.f64	d6, d0
   14af4:	ee307b47 	vsub.f64	d7, d0, d7
   14af8:	0d9f6b9a 	vldreq	d6, [pc, #616]	; 14d68 <__ieee754_rem_pio2+0x2b8>
   14afc:	1d9f5b9b 	vldrne	d5, [pc, #620]	; 14d70 <__ieee754_rem_pio2+0x2c0>
   14b00:	0d9f5b9c 	vldreq	d5, [pc, #624]	; 14d78 <__ieee754_rem_pio2+0x2c8>
   14b04:	0e377b46 	vsubeq.f64	d7, d7, d6
   14b08:	ee376b45 	vsub.f64	d6, d7, d5
   14b0c:	ee377b46 	vsub.f64	d7, d7, d6
   14b10:	ee377b45 	vsub.f64	d7, d7, d5
   14b14:	ed806b00 	vstr	d6, [r0]
   14b18:	ed807b02 	vstr	d7, [r0, #8]
   14b1c:	e3a00001 	mov	r0, #1
   14b20:	e28dd020 	add	sp, sp, #32
   14b24:	e8bd4070 	pop	{r4, r5, r6, lr}
   14b28:	e12fff1e 	bx	lr
   14b2c:	e59f1280 	ldr	r1, [pc, #640]	; 14db4 <__ieee754_rem_pio2+0x304>
   14b30:	e1560001 	cmp	r6, r1
   14b34:	e1a04000 	mov	r4, r0
   14b38:	da00003b 	ble	14c2c <__ieee754_rem_pio2+0x17c>
   14b3c:	e59f1274 	ldr	r1, [pc, #628]	; 14db8 <__ieee754_rem_pio2+0x308>
   14b40:	e1560001 	cmp	r6, r1
   14b44:	ca000033 	bgt	14c18 <__ieee754_rem_pio2+0x168>
   14b48:	e1a00002 	mov	r0, r2
   14b4c:	e1a02a46 	asr	r2, r6, #20
   14b50:	e2422e41 	sub	r2, r2, #1040	; 0x410
   14b54:	e2422006 	sub	r2, r2, #6
   14b58:	e0461a02 	sub	r1, r6, r2, lsl #20
   14b5c:	ec410b16 	vmov	d6, r0, r1
   14b60:	eebd4bc6 	vcvt.s32.f64	s8, d6
   14b64:	eeb84bc4 	vcvt.f64.s32	d4, s8
   14b68:	ed9f7b84 	vldr	d7, [pc, #528]	; 14d80 <__ieee754_rem_pio2+0x2d0>
   14b6c:	ee366b44 	vsub.f64	d6, d6, d4
   14b70:	ee266b07 	vmul.f64	d6, d6, d7
   14b74:	eebd5bc6 	vcvt.s32.f64	s10, d6
   14b78:	eeb85bc5 	vcvt.f64.s32	d5, s10
   14b7c:	ee366b45 	vsub.f64	d6, d6, d5
   14b80:	ee267b07 	vmul.f64	d7, d6, d7
   14b84:	eeb57b40 	vcmp.f64	d7, #0.0
   14b88:	eef1fa10 	vmrs	APSR_nzcv, fpscr
   14b8c:	e3a03000 	mov	r3, #0
   14b90:	ed8d4b02 	vstr	d4, [sp, #8]
   14b94:	ed8d7b06 	vstr	d7, [sp, #24]
   14b98:	ed8d5b04 	vstr	d5, [sp, #16]
   14b9c:	13a03003 	movne	r3, #3
   14ba0:	1a000003 	bne	14bb4 <__ieee754_rem_pio2+0x104>
   14ba4:	eeb55b40 	vcmp.f64	d5, #0.0
   14ba8:	eef1fa10 	vmrs	APSR_nzcv, fpscr
   14bac:	03a03001 	moveq	r3, #1
   14bb0:	13a03002 	movne	r3, #2
   14bb4:	e3a00002 	mov	r0, #2
   14bb8:	e59f11fc 	ldr	r1, [pc, #508]	; 14dbc <__ieee754_rem_pio2+0x30c>
   14bbc:	e88d0003 	stm	sp, {r0, r1}
   14bc0:	e1a01004 	mov	r1, r4
   14bc4:	e28d0008 	add	r0, sp, #8
   14bc8:	eb000158 	bl	15130 <__kernel_rem_pio2>
   14bcc:	e3550000 	cmp	r5, #0
   14bd0:	aaffffd2 	bge	14b20 <__ieee754_rem_pio2+0x70>
   14bd4:	ed946b00 	vldr	d6, [r4]
   14bd8:	ed947b02 	vldr	d7, [r4, #8]
   14bdc:	eeb16b46 	vneg.f64	d6, d6
   14be0:	eeb17b47 	vneg.f64	d7, d7
   14be4:	e2600000 	rsb	r0, r0, #0
   14be8:	ed846b00 	vstr	d6, [r4]
   14bec:	ed847b02 	vstr	d7, [r4, #8]
   14bf0:	eaffffca 	b	14b20 <__ieee754_rem_pio2+0x70>
   14bf4:	e3a04000 	mov	r4, #0
   14bf8:	e3a05000 	mov	r5, #0
   14bfc:	ed800b00 	vstr	d0, [r0]
   14c00:	e5804008 	str	r4, [r0, #8]
   14c04:	e580500c 	str	r5, [r0, #12]
   14c08:	e3a00000 	mov	r0, #0
   14c0c:	e28dd020 	add	sp, sp, #32
   14c10:	e8bd4070 	pop	{r4, r5, r6, lr}
   14c14:	e12fff1e 	bx	lr
   14c18:	ee307b40 	vsub.f64	d7, d0, d0
   14c1c:	e3a00000 	mov	r0, #0
   14c20:	ed847b02 	vstr	d7, [r4, #8]
   14c24:	ed847b00 	vstr	d7, [r4]
   14c28:	eaffffbc 	b	14b20 <__ieee754_rem_pio2+0x70>
   14c2c:	eb000432 	bl	15cfc <fabs>
   14c30:	ed9f6b54 	vldr	d6, [pc, #336]	; 14d88 <__ieee754_rem_pio2+0x2d8>
   14c34:	ed9f7b55 	vldr	d7, [pc, #340]	; 14d90 <__ieee754_rem_pio2+0x2e0>
   14c38:	ee007b06 	vmla.f64	d7, d0, d6
   14c3c:	eefd7bc7 	vcvt.s32.f64	s15, d7
   14c40:	ee170a90 	vmov	r0, s15
   14c44:	eeb85be7 	vcvt.f64.s32	d5, s15
   14c48:	ed9f6b44 	vldr	d6, [pc, #272]	; 14d60 <__ieee754_rem_pio2+0x2b0>
   14c4c:	ed9f7b47 	vldr	d7, [pc, #284]	; 14d70 <__ieee754_rem_pio2+0x2c0>
   14c50:	e350001f 	cmp	r0, #31
   14c54:	ee050b46 	vmls.f64	d0, d5, d6
   14c58:	ee257b07 	vmul.f64	d7, d5, d7
   14c5c:	ca000011 	bgt	14ca8 <__ieee754_rem_pio2+0x1f8>
   14c60:	e59f3158 	ldr	r3, [pc, #344]	; 14dc0 <__ieee754_rem_pio2+0x310>
   14c64:	e2402001 	sub	r2, r0, #1
   14c68:	e7933102 	ldr	r3, [r3, r2, lsl #2]
   14c6c:	e1560003 	cmp	r6, r3
   14c70:	0a00000c 	beq	14ca8 <__ieee754_rem_pio2+0x1f8>
   14c74:	ee306b47 	vsub.f64	d6, d0, d7
   14c78:	ed846b00 	vstr	d6, [r4]
   14c7c:	ee300b46 	vsub.f64	d0, d0, d6
   14c80:	ee300b47 	vsub.f64	d0, d0, d7
   14c84:	e3550000 	cmp	r5, #0
   14c88:	ed840b02 	vstr	d0, [r4, #8]
   14c8c:	aaffffa3 	bge	14b20 <__ieee754_rem_pio2+0x70>
   14c90:	eeb16b46 	vneg.f64	d6, d6
   14c94:	eeb10b40 	vneg.f64	d0, d0
   14c98:	ed846b00 	vstr	d6, [r4]
   14c9c:	ed840b02 	vstr	d0, [r4, #8]
   14ca0:	e2600000 	rsb	r0, r0, #0
   14ca4:	eaffff9d 	b	14b20 <__ieee754_rem_pio2+0x70>
   14ca8:	ee306b47 	vsub.f64	d6, d0, d7
   14cac:	ee163a90 	vmov	r3, s13
   14cb0:	e1a06a46 	asr	r6, r6, #20
   14cb4:	e1a03083 	lsl	r3, r3, #1
   14cb8:	e0463aa3 	sub	r3, r6, r3, lsr #21
   14cbc:	e3530010 	cmp	r3, #16
   14cc0:	ed846b00 	vstr	d6, [r4]
   14cc4:	daffffec 	ble	14c7c <__ieee754_rem_pio2+0x1cc>
   14cc8:	ed9f7b26 	vldr	d7, [pc, #152]	; 14d68 <__ieee754_rem_pio2+0x2b8>
   14ccc:	ee257b07 	vmul.f64	d7, d5, d7
   14cd0:	ee304b47 	vsub.f64	d4, d0, d7
   14cd4:	ee300b44 	vsub.f64	d0, d0, d4
   14cd8:	ee300b47 	vsub.f64	d0, d0, d7
   14cdc:	ed9f6b25 	vldr	d6, [pc, #148]	; 14d78 <__ieee754_rem_pio2+0x2c8>
   14ce0:	eeb07b40 	vmov.f64	d7, d0
   14ce4:	ee157b06 	vnmls.f64	d7, d5, d6
   14ce8:	ee346b47 	vsub.f64	d6, d4, d7
   14cec:	ee163a90 	vmov	r3, s13
   14cf0:	e1a03083 	lsl	r3, r3, #1
   14cf4:	e0466aa3 	sub	r6, r6, r3, lsr #21
   14cf8:	e3560031 	cmp	r6, #49	; 0x31
   14cfc:	ed846b00 	vstr	d6, [r4]
   14d00:	deb00b44 	vmovle.f64	d0, d4
   14d04:	daffffdc 	ble	14c7c <__ieee754_rem_pio2+0x1cc>
   14d08:	ed9f7b22 	vldr	d7, [pc, #136]	; 14d98 <__ieee754_rem_pio2+0x2e8>
   14d0c:	ee256b07 	vmul.f64	d6, d5, d7
   14d10:	ee340b46 	vsub.f64	d0, d4, d6
   14d14:	ee347b40 	vsub.f64	d7, d4, d0
   14d18:	ed9f4b20 	vldr	d4, [pc, #128]	; 14da0 <__ieee754_rem_pio2+0x2f0>
   14d1c:	ee377b46 	vsub.f64	d7, d7, d6
   14d20:	ee157b04 	vnmls.f64	d7, d5, d4
   14d24:	eaffffd2 	b	14c74 <__ieee754_rem_pio2+0x1c4>
   14d28:	e1560001 	cmp	r6, r1
   14d2c:	eeb06b40 	vmov.f64	d6, d0
   14d30:	ee307b07 	vadd.f64	d7, d0, d7
   14d34:	0d9f6b0b 	vldreq	d6, [pc, #44]	; 14d68 <__ieee754_rem_pio2+0x2b8>
   14d38:	1d9f5b0c 	vldrne	d5, [pc, #48]	; 14d70 <__ieee754_rem_pio2+0x2c0>
   14d3c:	0d9f5b0d 	vldreq	d5, [pc, #52]	; 14d78 <__ieee754_rem_pio2+0x2c8>
   14d40:	0e377b06 	vaddeq.f64	d7, d7, d6
   14d44:	ee376b05 	vadd.f64	d6, d7, d5
   14d48:	ee377b46 	vsub.f64	d7, d7, d6
   14d4c:	ee377b05 	vadd.f64	d7, d7, d5
   14d50:	ed806b00 	vstr	d6, [r0]
   14d54:	ed807b02 	vstr	d7, [r0, #8]
   14d58:	e3e00000 	mvn	r0, #0
   14d5c:	eaffff6f 	b	14b20 <__ieee754_rem_pio2+0x70>
   14d60:	54400000 	strbpl	r0, [r0], #-0
   14d64:	3ff921fb 	svccc	0x00f921fb
   14d68:	1a600000 	bne	1814d70 <errno+0x17f553c>
   14d6c:	3dd0b461 	cfldrdcc	mvd11, [r0, #388]	; 0x184
   14d70:	1a626331 	bne	18ada3c <errno+0x188e208>
   14d74:	3dd0b461 	cfldrdcc	mvd11, [r0, #388]	; 0x184
   14d78:	2e037073 	mcrcs	0, 0, r7, cr3, cr3, {3}
   14d7c:	3ba3198a 	blcc	fe8db3ac <errno+0xfe8bbb78>
   14d80:	00000000 	andeq	r0, r0, r0
   14d84:	41700000 	cmnmi	r0, r0
   14d88:	6dc9c883 	stclvs	8, cr12, [r9, #524]	; 0x20c
   14d8c:	3fe45f30 	svccc	0x00e45f30
   14d90:	00000000 	andeq	r0, r0, r0
   14d94:	3fe00000 	svccc	0x00e00000
   14d98:	2e000000 	cdpcs	0, 0, cr0, cr0, cr0, {0}
   14d9c:	3ba3198a 	blcc	fe8db3cc <errno+0xfe8bbb98>
   14da0:	252049c1 	strcs	r4, [r0, #-2497]!	; 0xfffff63f
   14da4:	397b839a 	ldmdbcc	fp!, {r1, r3, r4, r7, r8, r9, pc}^
   14da8:	3fe921fb 	svccc	0x00e921fb
   14dac:	4002d97b 	andmi	sp, r2, fp, ror r9
   14db0:	3ff921fb 	svccc	0x00f921fb
   14db4:	413921fb 	teqmi	r9, fp	; <illegal shifter operand>
   14db8:	7fefffff 	svcvc	0x00efffff
   14dbc:	000169d4 	ldrdeq	r6, [r1], -r4
   14dc0:	00016954 	andeq	r6, r1, r4, asr r9

00014dc4 <__ieee754_sqrt>:
   14dc4:	e92d41f0 	push	{r4, r5, r6, r7, r8, lr}
   14dc8:	e24dd008 	sub	sp, sp, #8
   14dcc:	ed8d0b00 	vstr	d0, [sp]
   14dd0:	e59f2200 	ldr	r2, [pc, #512]	; 14fd8 <__ieee754_sqrt+0x214>
   14dd4:	e1a00002 	mov	r0, r2
   14dd8:	e89d000a 	ldm	sp, {r1, r3}
   14ddc:	e0022003 	and	r2, r2, r3
   14de0:	e1520000 	cmp	r2, r0
   14de4:	0eb07b40 	vmoveq.f64	d7, d0
   14de8:	0e070b07 	vmlaeq.f64	d0, d7, d7
   14dec:	0a000053 	beq	14f40 <__ieee754_sqrt+0x17c>
   14df0:	e3530000 	cmp	r3, #0
   14df4:	e1a02001 	mov	r2, r1
   14df8:	da000053 	ble	14f4c <__ieee754_sqrt+0x188>
   14dfc:	e1b06a43 	asrs	r6, r3, #20
   14e00:	0a00005e 	beq	14f80 <__ieee754_sqrt+0x1bc>
   14e04:	e3a05000 	mov	r5, #0
   14e08:	e3a00016 	mov	r0, #22
   14e0c:	e1a0c005 	mov	ip, r5
   14e10:	e3a01602 	mov	r1, #2097152	; 0x200000
   14e14:	e3c334ff 	bic	r3, r3, #-16777216	; 0xff000000
   14e18:	e3c3360f 	bic	r3, r3, #15728640	; 0xf00000
   14e1c:	e3160001 	tst	r6, #1
   14e20:	e3833601 	orr	r3, r3, #1048576	; 0x100000
   14e24:	01a03083 	lsleq	r3, r3, #1
   14e28:	00833fa2 	addeq	r3, r3, r2, lsr #31
   14e2c:	e2466fff 	sub	r6, r6, #1020	; 0x3fc
   14e30:	01a02082 	lsleq	r2, r2, #1
   14e34:	e083efa2 	add	lr, r3, r2, lsr #31
   14e38:	e2466003 	sub	r6, r6, #3
   14e3c:	e1a060c6 	asr	r6, r6, #1
   14e40:	e08e3003 	add	r3, lr, r3
   14e44:	e1a02082 	lsl	r2, r2, #1
   14e48:	e08ce001 	add	lr, ip, r1
   14e4c:	e15e0003 	cmp	lr, r3
   14e50:	e1a04fa2 	lsr	r4, r2, #31
   14e54:	d06e3003 	rsble	r3, lr, r3
   14e58:	d08ec001 	addle	ip, lr, r1
   14e5c:	d0855001 	addle	r5, r5, r1
   14e60:	e2500001 	subs	r0, r0, #1
   14e64:	e0843083 	add	r3, r4, r3, lsl #1
   14e68:	e1a02082 	lsl	r2, r2, #1
   14e6c:	e1a010a1 	lsr	r1, r1, #1
   14e70:	1afffff4 	bne	14e48 <__ieee754_sqrt+0x84>
   14e74:	e3a04020 	mov	r4, #32
   14e78:	e1a07000 	mov	r7, r0
   14e7c:	e3a01102 	mov	r1, #-2147483648	; 0x80000000
   14e80:	ea00000c 	b	14eb8 <__ieee754_sqrt+0xf4>
   14e84:	e1a0800c 	mov	r8, ip
   14e88:	e06c3003 	rsb	r3, ip, r3
   14e8c:	e1a0c008 	mov	ip, r8
   14e90:	e15e0002 	cmp	lr, r2
   14e94:	82433001 	subhi	r3, r3, #1
   14e98:	e06e2002 	rsb	r2, lr, r2
   14e9c:	e0800001 	add	r0, r0, r1
   14ea0:	e083efa2 	add	lr, r3, r2, lsr #31
   14ea4:	e2544001 	subs	r4, r4, #1
   14ea8:	e1a010a1 	lsr	r1, r1, #1
   14eac:	e08e3003 	add	r3, lr, r3
   14eb0:	e1a02082 	lsl	r2, r2, #1
   14eb4:	0a000010 	beq	14efc <__ieee754_sqrt+0x138>
   14eb8:	e153000c 	cmp	r3, ip
   14ebc:	e087e001 	add	lr, r7, r1
   14ec0:	ca000006 	bgt	14ee0 <__ieee754_sqrt+0x11c>
   14ec4:	03a08001 	moveq	r8, #1
   14ec8:	13a08000 	movne	r8, #0
   14ecc:	e15e0002 	cmp	lr, r2
   14ed0:	83a08000 	movhi	r8, #0
   14ed4:	92088001 	andls	r8, r8, #1
   14ed8:	e3580000 	cmp	r8, #0
   14edc:	0affffef 	beq	14ea0 <__ieee754_sqrt+0xdc>
   14ee0:	e35e0000 	cmp	lr, #0
   14ee4:	e08e7001 	add	r7, lr, r1
   14ee8:	aaffffe5 	bge	14e84 <__ieee754_sqrt+0xc0>
   14eec:	e3570000 	cmp	r7, #0
   14ef0:	a28c8001 	addge	r8, ip, #1
   14ef4:	aaffffe3 	bge	14e88 <__ieee754_sqrt+0xc4>
   14ef8:	eaffffe1 	b	14e84 <__ieee754_sqrt+0xc0>
   14efc:	e1933002 	orrs	r3, r3, r2
   14f00:	0a000005 	beq	14f1c <__ieee754_sqrt+0x158>
   14f04:	e3700001 	cmn	r0, #1
   14f08:	02855001 	addeq	r5, r5, #1
   14f0c:	01a00004 	moveq	r0, r4
   14f10:	0a000002 	beq	14f20 <__ieee754_sqrt+0x15c>
   14f14:	e2003001 	and	r3, r0, #1
   14f18:	e0800003 	add	r0, r0, r3
   14f1c:	e1a000a0 	lsr	r0, r0, #1
   14f20:	e3150001 	tst	r5, #1
   14f24:	13800102 	orrne	r0, r0, #-2147483648	; 0x80000000
   14f28:	e1a02000 	mov	r2, r0
   14f2c:	e1a010c5 	asr	r1, r5, #1
   14f30:	e28115ff 	add	r1, r1, #1069547520	; 0x3fc00000
   14f34:	e2811602 	add	r1, r1, #2097152	; 0x200000
   14f38:	e0813a06 	add	r3, r1, r6, lsl #20
   14f3c:	ec432b10 	vmov	d0, r2, r3
   14f40:	e28dd008 	add	sp, sp, #8
   14f44:	e8bd41f0 	pop	{r4, r5, r6, r7, r8, lr}
   14f48:	e12fff1e 	bx	lr
   14f4c:	e3c30102 	bic	r0, r3, #-2147483648	; 0x80000000
   14f50:	e1901001 	orrs	r1, r0, r1
   14f54:	0a000015 	beq	14fb0 <__ieee754_sqrt+0x1ec>
   14f58:	e3530000 	cmp	r3, #0
   14f5c:	01a06003 	moveq	r6, r3
   14f60:	1a000018 	bne	14fc8 <__ieee754_sqrt+0x204>
   14f64:	e1a035a2 	lsr	r3, r2, #11
   14f68:	e3530000 	cmp	r3, #0
   14f6c:	e2466015 	sub	r6, r6, #21
   14f70:	e1a02a82 	lsl	r2, r2, #21
   14f74:	0afffffa 	beq	14f64 <__ieee754_sqrt+0x1a0>
   14f78:	e3130601 	tst	r3, #1048576	; 0x100000
   14f7c:	1a00000d 	bne	14fb8 <__ieee754_sqrt+0x1f4>
   14f80:	e3a01000 	mov	r1, #0
   14f84:	ea000000 	b	14f8c <__ieee754_sqrt+0x1c8>
   14f88:	e1a01000 	mov	r1, r0
   14f8c:	e1a03083 	lsl	r3, r3, #1
   14f90:	e3130601 	tst	r3, #1048576	; 0x100000
   14f94:	e2810001 	add	r0, r1, #1
   14f98:	0afffffa 	beq	14f88 <__ieee754_sqrt+0x1c4>
   14f9c:	e260c020 	rsb	ip, r0, #32
   14fa0:	e1833c32 	orr	r3, r3, r2, lsr ip
   14fa4:	e0616006 	rsb	r6, r1, r6
   14fa8:	e1a02012 	lsl	r2, r2, r0
   14fac:	eaffff94 	b	14e04 <__ieee754_sqrt+0x40>
   14fb0:	ed9d0b00 	vldr	d0, [sp]
   14fb4:	eaffffe1 	b	14f40 <__ieee754_sqrt+0x17c>
   14fb8:	e3a0c020 	mov	ip, #32
   14fbc:	e3e01000 	mvn	r1, #0
   14fc0:	e3a00000 	mov	r0, #0
   14fc4:	eafffff5 	b	14fa0 <__ieee754_sqrt+0x1dc>
   14fc8:	ed9d7b00 	vldr	d7, [sp]
   14fcc:	ee377b47 	vsub.f64	d7, d7, d7
   14fd0:	ee870b07 	vdiv.f64	d0, d7, d7
   14fd4:	eaffffd9 	b	14f40 <__ieee754_sqrt+0x17c>
   14fd8:	7ff00000 	svcvc	0x00f00000	; IMB
   14fdc:	00000000 	andeq	r0, r0, r0

00014fe0 <__kernel_cos>:
   14fe0:	ee103a90 	vmov	r3, s1
   14fe4:	e3c33102 	bic	r3, r3, #-2147483648	; 0x80000000
   14fe8:	e35305f9 	cmp	r3, #1044381696	; 0x3e400000
   14fec:	aa000017 	bge	15050 <__kernel_cos+0x70>
   14ff0:	eefd7bc0 	vcvt.s32.f64	s15, d0
   14ff4:	ee173a90 	vmov	r3, s15
   14ff8:	e3530000 	cmp	r3, #0
   14ffc:	0a000033 	beq	150d0 <__kernel_cos+0xf0>
   15000:	ee207b00 	vmul.f64	d7, d0, d0
   15004:	ed9f4b33 	vldr	d4, [pc, #204]	; 150d8 <__kernel_cos+0xf8>
   15008:	ed9f5b34 	vldr	d5, [pc, #208]	; 150e0 <__kernel_cos+0x100>
   1500c:	ed9f6b35 	vldr	d6, [pc, #212]	; 150e8 <__kernel_cos+0x108>
   15010:	ee075b04 	vmla.f64	d5, d7, d4
   15014:	ed9f4b35 	vldr	d4, [pc, #212]	; 150f0 <__kernel_cos+0x110>
   15018:	ee156b07 	vnmls.f64	d6, d5, d7
   1501c:	ed9f5b35 	vldr	d5, [pc, #212]	; 150f8 <__kernel_cos+0x118>
   15020:	ee064b07 	vmla.f64	d4, d6, d7
   15024:	ed9f6b35 	vldr	d6, [pc, #212]	; 15100 <__kernel_cos+0x120>
   15028:	ee145b07 	vnmls.f64	d5, d4, d7
   1502c:	ee056b07 	vmla.f64	d6, d5, d7
   15030:	ee266b07 	vmul.f64	d6, d6, d7
   15034:	ee200b01 	vmul.f64	d0, d0, d1
   15038:	ed9f5b32 	vldr	d5, [pc, #200]	; 15108 <__kernel_cos+0x128>
   1503c:	ee170b06 	vnmls.f64	d0, d7, d6
   15040:	ed9f6b32 	vldr	d6, [pc, #200]	; 15110 <__kernel_cos+0x130>
   15044:	ee170b05 	vnmls.f64	d0, d7, d5
   15048:	ee360b40 	vsub.f64	d0, d6, d0
   1504c:	e12fff1e 	bx	lr
   15050:	ee207b00 	vmul.f64	d7, d0, d0
   15054:	ed9f4b1f 	vldr	d4, [pc, #124]	; 150d8 <__kernel_cos+0xf8>
   15058:	ed9f5b20 	vldr	d5, [pc, #128]	; 150e0 <__kernel_cos+0x100>
   1505c:	ed9f6b21 	vldr	d6, [pc, #132]	; 150e8 <__kernel_cos+0x108>
   15060:	ee075b04 	vmla.f64	d5, d7, d4
   15064:	ed9f4b21 	vldr	d4, [pc, #132]	; 150f0 <__kernel_cos+0x110>
   15068:	ee156b07 	vnmls.f64	d6, d5, d7
   1506c:	ed9f5b21 	vldr	d5, [pc, #132]	; 150f8 <__kernel_cos+0x118>
   15070:	ee064b07 	vmla.f64	d4, d6, d7
   15074:	ed9f6b21 	vldr	d6, [pc, #132]	; 15100 <__kernel_cos+0x120>
   15078:	ee145b07 	vnmls.f64	d5, d4, d7
   1507c:	ee056b07 	vmla.f64	d6, d5, d7
   15080:	e59f20a0 	ldr	r2, [pc, #160]	; 15128 <__kernel_cos+0x148>
   15084:	e1530002 	cmp	r3, r2
   15088:	ee266b07 	vmul.f64	d6, d6, d7
   1508c:	daffffe8 	ble	15034 <__kernel_cos+0x54>
   15090:	e59f2094 	ldr	r2, [pc, #148]	; 1512c <__kernel_cos+0x14c>
   15094:	e1530002 	cmp	r3, r2
   15098:	d3a00000 	movle	r0, #0
   1509c:	d2431602 	suble	r1, r3, #2097152	; 0x200000
   150a0:	dd9f4b1a 	vldrle	d4, [pc, #104]	; 15110 <__kernel_cos+0x130>
   150a4:	dc410b15 	vmovle	d5, r0, r1
   150a8:	cd9f5b1a 	vldrgt	d5, [pc, #104]	; 15118 <__kernel_cos+0x138>
   150ac:	ee201b01 	vmul.f64	d1, d0, d1
   150b0:	ed9f3b14 	vldr	d3, [pc, #80]	; 15108 <__kernel_cos+0x128>
   150b4:	de344b45 	vsuble.f64	d4, d4, d5
   150b8:	ee171b06 	vnmls.f64	d1, d7, d6
   150bc:	ee175b03 	vnmls.f64	d5, d7, d3
   150c0:	cd9f4b16 	vldrgt	d4, [pc, #88]	; 15120 <__kernel_cos+0x140>
   150c4:	ee355b41 	vsub.f64	d5, d5, d1
   150c8:	ee340b45 	vsub.f64	d0, d4, d5
   150cc:	e12fff1e 	bx	lr
   150d0:	ed9f0b0e 	vldr	d0, [pc, #56]	; 15110 <__kernel_cos+0x130>
   150d4:	e12fff1e 	bx	lr
   150d8:	be8838d4 	mcrlt	8, 4, r3, cr8, cr4, {6}
   150dc:	bda8fae9 	stclt	10, cr15, [r8, #932]!	; 0x3a4
   150e0:	bdb4b1c4 	ldfltd	f3, [r4, #784]!	; 0x310
   150e4:	3e21ee9e 	mcrcc	14, 1, lr, cr1, cr14, {4}
   150e8:	809c52ad 	addshi	r5, ip, sp, lsr #5
   150ec:	3e927e4f 	cdpcc	14, 9, cr7, cr2, cr15, {2}
   150f0:	19cb1590 	stmibne	fp, {r4, r7, r8, sl, ip}^
   150f4:	3efa01a0 	cdpcc	1, 15, cr0, cr10, cr0, {5}
   150f8:	16c15177 			; <UNDEFINED> instruction: 0x16c15177
   150fc:	3f56c16c 	svccc	0x0056c16c
   15100:	5555554c 	ldrbpl	r5, [r5, #-1356]	; 0xfffffab4
   15104:	3fa55555 	svccc	0x00a55555
   15108:	00000000 	andeq	r0, r0, r0
   1510c:	3fe00000 	svccc	0x00e00000
   15110:	00000000 	andeq	r0, r0, r0
   15114:	3ff00000 	svccc	0x00f00000	; IMB
   15118:	00000000 	andeq	r0, r0, r0
   1511c:	3fd20000 	svccc	0x00d20000
   15120:	00000000 	andeq	r0, r0, r0
   15124:	3fe70000 	svccc	0x00e70000
   15128:	3fd33332 	svccc	0x00d33332
   1512c:	3fe90000 	svccc	0x00e90000

00015130 <__kernel_rem_pio2>:
   15130:	e92d4ff0 	push	{r4, r5, r6, r7, r8, r9, sl, fp, lr}
   15134:	ed2d8b10 	vpush	{d8-d15}
   15138:	e59fc3c8 	ldr	ip, [pc, #968]	; 15508 <__kernel_rem_pio2+0x3d8>
   1513c:	e24ddf93 	sub	sp, sp, #588	; 0x24c
   15140:	e1a04003 	mov	r4, r3
   15144:	e58d3000 	str	r3, [sp]
   15148:	e2423003 	sub	r3, r2, #3
   1514c:	e0c5ec93 	smull	lr, r5, r3, ip
   15150:	e1a03fc3 	asr	r3, r3, #31
   15154:	e0633145 	rsb	r3, r3, r5, asr #2
   15158:	e1c3cfc3 	bic	ip, r3, r3, asr #31
   1515c:	e59fe3a8 	ldr	lr, [pc, #936]	; 1550c <__kernel_rem_pio2+0x3dc>
   15160:	e59d32b0 	ldr	r3, [sp, #688]	; 0x2b0
   15164:	e79e6103 	ldr	r6, [lr, r3, lsl #2]
   15168:	e1a0300c 	mov	r3, ip
   1516c:	e2448001 	sub	r8, r4, #1
   15170:	e58dc004 	str	ip, [sp, #4]
   15174:	e28cc001 	add	ip, ip, #1
   15178:	e04ca10c 	sub	sl, ip, ip, lsl #2
   1517c:	e58dc00c 	str	ip, [sp, #12]
   15180:	e096c008 	adds	ip, r6, r8
   15184:	e1a09000 	mov	r9, r0
   15188:	e1a0b001 	mov	fp, r1
   1518c:	e082a18a 	add	sl, r2, sl, lsl #3
   15190:	e0683003 	rsb	r3, r8, r3
   15194:	4a00000c 	bmi	151cc <__kernel_rem_pio2+0x9c>
   15198:	e083100c 	add	r1, r3, ip
   1519c:	e59d02b4 	ldr	r0, [sp, #692]	; 0x2b4
   151a0:	e2811001 	add	r1, r1, #1
   151a4:	e28d2068 	add	r2, sp, #104	; 0x68
   151a8:	e3530000 	cmp	r3, #0
   151ac:	a790c103 	ldrge	ip, [r0, r3, lsl #2]
   151b0:	ae07ca90 	vmovge	s15, ip
   151b4:	bd9f7bc5 	vldrlt	d7, [pc, #788]	; 154d0 <__kernel_rem_pio2+0x3a0>
   151b8:	aeb87be7 	vcvtge.f64.s32	d7, s15
   151bc:	e2833001 	add	r3, r3, #1
   151c0:	e1530001 	cmp	r3, r1
   151c4:	eca27b02 	vstmia	r2!, {d7}
   151c8:	1afffff6 	bne	151a8 <__kernel_rem_pio2+0x78>
   151cc:	e3560000 	cmp	r6, #0
   151d0:	b59d3000 	ldrlt	r3, [sp]
   151d4:	b1a04183 	lsllt	r4, r3, #3
   151d8:	ba000015 	blt	15234 <__kernel_rem_pio2+0x104>
   151dc:	e1a00008 	mov	r0, r8
   151e0:	e59d3000 	ldr	r3, [sp]
   151e4:	e1a04183 	lsl	r4, r3, #3
   151e8:	e0891004 	add	r1, r9, r4
   151ec:	e28dcf6a 	add	ip, sp, #424	; 0x1a8
   151f0:	e086e003 	add	lr, r6, r3
   151f4:	e3580000 	cmp	r8, #0
   151f8:	ba0001b0 	blt	158c0 <__kernel_rem_pio2+0x790>
   151fc:	e28d3068 	add	r3, sp, #104	; 0x68
   15200:	e0832180 	add	r2, r3, r0, lsl #3
   15204:	ed9f7bb1 	vldr	d7, [pc, #708]	; 154d0 <__kernel_rem_pio2+0x3a0>
   15208:	e1a03009 	mov	r3, r9
   1520c:	e2822008 	add	r2, r2, #8
   15210:	ecb35b02 	vldmia	r3!, {d5}
   15214:	ed326b02 	vldmdb	r2!, {d6}
   15218:	e1530001 	cmp	r3, r1
   1521c:	ee057b06 	vmla.f64	d7, d5, d6
   15220:	1afffffa 	bne	15210 <__kernel_rem_pio2+0xe0>
   15224:	e2800001 	add	r0, r0, #1
   15228:	e150000e 	cmp	r0, lr
   1522c:	ecac7b02 	vstmia	ip!, {d7}
   15230:	1affffef 	bne	151f4 <__kernel_rem_pio2+0xc4>
   15234:	e1a05006 	mov	r5, r6
   15238:	ed9fdba6 	vldr	d13, [pc, #664]	; 154d8 <__kernel_rem_pio2+0x3a8>
   1523c:	ed9fcba7 	vldr	d12, [pc, #668]	; 154e0 <__kernel_rem_pio2+0x3b0>
   15240:	ed9faba8 	vldr	d10, [pc, #672]	; 154e8 <__kernel_rem_pio2+0x3b8>
   15244:	ed9f9ba9 	vldr	d9, [pc, #676]	; 154f0 <__kernel_rem_pio2+0x3c0>
   15248:	ed9f8baa 	vldr	d8, [pc, #680]	; 154f8 <__kernel_rem_pio2+0x3c8>
   1524c:	ed9fbbab 	vldr	d11, [pc, #684]	; 15500 <__kernel_rem_pio2+0x3d0>
   15250:	e246310b 	sub	r3, r6, #-1073741822	; 0xc0000002
   15254:	e1a03103 	lsl	r3, r3, #2
   15258:	e2832004 	add	r2, r3, #4
   1525c:	e28d1018 	add	r1, sp, #24
   15260:	e0812002 	add	r2, r1, r2
   15264:	e2833008 	add	r3, r3, #8
   15268:	e58d2008 	str	r2, [sp, #8]
   1526c:	e58db010 	str	fp, [sp, #16]
   15270:	e0894004 	add	r4, r9, r4
   15274:	e0817003 	add	r7, r1, r3
   15278:	e28d3f92 	add	r3, sp, #584	; 0x248
   1527c:	e0833185 	add	r3, r3, r5, lsl #3
   15280:	e3550000 	cmp	r5, #0
   15284:	ed130b28 	vldr	d0, [r3, #-160]	; 0xffffff60
   15288:	da00000d 	ble	152c4 <__kernel_rem_pio2+0x194>
   1528c:	e28d1f6a 	add	r1, sp, #424	; 0x1a8
   15290:	e0813185 	add	r3, r1, r5, lsl #3
   15294:	e28d2014 	add	r2, sp, #20
   15298:	ee206b0d 	vmul.f64	d6, d0, d13
   1529c:	eebd6bc6 	vcvt.s32.f64	s12, d6
   152a0:	eeb86bc6 	vcvt.f64.s32	d6, s12
   152a4:	ee060b4c 	vmls.f64	d0, d6, d12
   152a8:	eefd5bc0 	vcvt.s32.f64	s11, d0
   152ac:	ed337b02 	vldmdb	r3!, {d7}
   152b0:	ee150a90 	vmov	r0, s11
   152b4:	e1530001 	cmp	r3, r1
   152b8:	ee360b07 	vadd.f64	d0, d6, d7
   152bc:	e5a20004 	str	r0, [r2, #4]!
   152c0:	1afffff4 	bne	15298 <__kernel_rem_pio2+0x168>
   152c4:	e1a0000a 	mov	r0, sl
   152c8:	eb0002f8 	bl	15eb0 <scalbn>
   152cc:	eeb0fb40 	vmov.f64	d15, d0
   152d0:	ee200b0a 	vmul.f64	d0, d0, d10
   152d4:	eb00028d 	bl	15d10 <floor>
   152d8:	ee00fb49 	vmls.f64	d15, d0, d9
   152dc:	eefd7bcf 	vcvt.s32.f64	s15, d15
   152e0:	ee17ba90 	vmov	fp, s15
   152e4:	eeb87be7 	vcvt.f64.s32	d7, s15
   152e8:	e35a0000 	cmp	sl, #0
   152ec:	ee3ffb47 	vsub.f64	d15, d15, d7
   152f0:	da0000e4 	ble	15688 <__kernel_rem_pio2+0x558>
   152f4:	e28d3f92 	add	r3, sp, #584	; 0x248
   152f8:	e2452001 	sub	r2, r5, #1
   152fc:	e0832102 	add	r2, r3, r2, lsl #2
   15300:	e5121230 	ldr	r1, [r2, #-560]	; 0xfffffdd0
   15304:	e26a3018 	rsb	r3, sl, #24
   15308:	e1a00351 	asr	r0, r1, r3
   1530c:	e0413310 	sub	r3, r1, r0, lsl r3
   15310:	e5023230 	str	r3, [r2, #-560]	; 0xfffffdd0
   15314:	e26a1017 	rsb	r1, sl, #23
   15318:	e08bb000 	add	fp, fp, r0
   1531c:	e1a01153 	asr	r1, r3, r1
   15320:	e3510000 	cmp	r1, #0
   15324:	da000026 	ble	153c4 <__kernel_rem_pio2+0x294>
   15328:	e3550000 	cmp	r5, #0
   1532c:	e28bb001 	add	fp, fp, #1
   15330:	da000171 	ble	158fc <__kernel_rem_pio2+0x7cc>
   15334:	e3a02000 	mov	r2, #0
   15338:	e28d0014 	add	r0, sp, #20
   1533c:	e1a0e002 	mov	lr, r2
   15340:	ea000006 	b	15360 <__kernel_rem_pio2+0x230>
   15344:	e3530000 	cmp	r3, #0
   15348:	e2822001 	add	r2, r2, #1
   1534c:	e2633401 	rsb	r3, r3, #16777216	; 0x1000000
   15350:	15803000 	strne	r3, [r0]
   15354:	13a0e001 	movne	lr, #1
   15358:	e1550002 	cmp	r5, r2
   1535c:	da000009 	ble	15388 <__kernel_rem_pio2+0x258>
   15360:	e35e0000 	cmp	lr, #0
   15364:	e5b03004 	ldr	r3, [r0, #4]!
   15368:	0afffff5 	beq	15344 <__kernel_rem_pio2+0x214>
   1536c:	e3e0c4ff 	mvn	ip, #-16777216	; 0xff000000
   15370:	e2822001 	add	r2, r2, #1
   15374:	e063c00c 	rsb	ip, r3, ip
   15378:	e1550002 	cmp	r5, r2
   1537c:	e3a0e001 	mov	lr, #1
   15380:	e580c000 	str	ip, [r0]
   15384:	cafffff5 	bgt	15360 <__kernel_rem_pio2+0x230>
   15388:	e35a0000 	cmp	sl, #0
   1538c:	da00000a 	ble	153bc <__kernel_rem_pio2+0x28c>
   15390:	e35a0001 	cmp	sl, #1
   15394:	0a0000c1 	beq	156a0 <__kernel_rem_pio2+0x570>
   15398:	e35a0002 	cmp	sl, #2
   1539c:	1a000006 	bne	153bc <__kernel_rem_pio2+0x28c>
   153a0:	e28d3f92 	add	r3, sp, #584	; 0x248
   153a4:	e2452001 	sub	r2, r5, #1
   153a8:	e0832102 	add	r2, r3, r2, lsl #2
   153ac:	e5123230 	ldr	r3, [r2, #-560]	; 0xfffffdd0
   153b0:	e3c334ff 	bic	r3, r3, #-16777216	; 0xff000000
   153b4:	e3c33503 	bic	r3, r3, #12582912	; 0xc00000
   153b8:	e5023230 	str	r3, [r2, #-560]	; 0xfffffdd0
   153bc:	e3510002 	cmp	r1, #2
   153c0:	0a000052 	beq	15510 <__kernel_rem_pio2+0x3e0>
   153c4:	eeb5fb40 	vcmp.f64	d15, #0.0
   153c8:	eef1fa10 	vmrs	APSR_nzcv, fpscr
   153cc:	1a00005b 	bne	15540 <__kernel_rem_pio2+0x410>
   153d0:	e2453001 	sub	r3, r5, #1
   153d4:	e1560003 	cmp	r6, r3
   153d8:	ca000008 	bgt	15400 <__kernel_rem_pio2+0x2d0>
   153dc:	e3a00000 	mov	r0, #0
   153e0:	e28d2018 	add	r2, sp, #24
   153e4:	e0822105 	add	r2, r2, r5, lsl #2
   153e8:	e532c004 	ldr	ip, [r2, #-4]!
   153ec:	e1520007 	cmp	r2, r7
   153f0:	e180000c 	orr	r0, r0, ip
   153f4:	1afffffb 	bne	153e8 <__kernel_rem_pio2+0x2b8>
   153f8:	e3500000 	cmp	r0, #0
   153fc:	1a0000ba 	bne	156ec <__kernel_rem_pio2+0x5bc>
   15400:	e28d3f92 	add	r3, sp, #584	; 0x248
   15404:	e0833106 	add	r3, r3, r6, lsl #2
   15408:	e5133234 	ldr	r3, [r3, #-564]	; 0xfffffdcc
   1540c:	e3530000 	cmp	r3, #0
   15410:	1a000130 	bne	158d8 <__kernel_rem_pio2+0x7a8>
   15414:	e3a0c001 	mov	ip, #1
   15418:	e59d3008 	ldr	r3, [sp, #8]
   1541c:	e5332004 	ldr	r2, [r3, #-4]!
   15420:	e3520000 	cmp	r2, #0
   15424:	e28cc001 	add	ip, ip, #1
   15428:	0afffffb 	beq	1541c <__kernel_rem_pio2+0x2ec>
   1542c:	e085c00c 	add	ip, r5, ip
   15430:	e285e001 	add	lr, r5, #1
   15434:	e15e000c 	cmp	lr, ip
   15438:	ca00001d 	bgt	154b4 <__kernel_rem_pio2+0x384>
   1543c:	e59d3000 	ldr	r3, [sp]
   15440:	e0830005 	add	r0, r3, r5
   15444:	e59d3004 	ldr	r3, [sp, #4]
   15448:	e08e1003 	add	r1, lr, r3
   1544c:	e28d3068 	add	r3, sp, #104	; 0x68
   15450:	e0830180 	add	r0, r3, r0, lsl #3
   15454:	e59d300c 	ldr	r3, [sp, #12]
   15458:	e083500c 	add	r5, r3, ip
   1545c:	e59d32b4 	ldr	r3, [sp, #692]	; 0x2b4
   15460:	e0831101 	add	r1, r3, r1, lsl #2
   15464:	e28d3f6a 	add	r3, sp, #424	; 0x1a8
   15468:	e083e18e 	add	lr, r3, lr, lsl #3
   1546c:	e59d32b4 	ldr	r3, [sp, #692]	; 0x2b4
   15470:	e0835105 	add	r5, r3, r5, lsl #2
   15474:	ecb17a01 	vldmia	r1!, {s14}
   15478:	eeb87bc7 	vcvt.f64.s32	d7, s14
   1547c:	e3580000 	cmp	r8, #0
   15480:	eca07b02 	vstmia	r0!, {d7}
   15484:	ba00000c 	blt	154bc <__kernel_rem_pio2+0x38c>
   15488:	e1a03009 	mov	r3, r9
   1548c:	e1a02000 	mov	r2, r0
   15490:	ed9f7b0e 	vldr	d7, [pc, #56]	; 154d0 <__kernel_rem_pio2+0x3a0>
   15494:	ecb35b02 	vldmia	r3!, {d5}
   15498:	ed326b02 	vldmdb	r2!, {d6}
   1549c:	e1530004 	cmp	r3, r4
   154a0:	ee057b06 	vmla.f64	d7, d5, d6
   154a4:	1afffffa 	bne	15494 <__kernel_rem_pio2+0x364>
   154a8:	e1510005 	cmp	r1, r5
   154ac:	ecae7b02 	vstmia	lr!, {d7}
   154b0:	1affffef 	bne	15474 <__kernel_rem_pio2+0x344>
   154b4:	e1a0500c 	mov	r5, ip
   154b8:	eaffff6e 	b	15278 <__kernel_rem_pio2+0x148>
   154bc:	ed9f7b03 	vldr	d7, [pc, #12]	; 154d0 <__kernel_rem_pio2+0x3a0>
   154c0:	e1510005 	cmp	r1, r5
   154c4:	ecae7b02 	vstmia	lr!, {d7}
   154c8:	1affffe9 	bne	15474 <__kernel_rem_pio2+0x344>
   154cc:	eafffff8 	b	154b4 <__kernel_rem_pio2+0x384>
	...
   154dc:	3e700000 	cdpcc	0, 7, cr0, cr0, cr0, {0}
   154e0:	00000000 	andeq	r0, r0, r0
   154e4:	41700000 	cmnmi	r0, r0
   154e8:	00000000 	andeq	r0, r0, r0
   154ec:	3fc00000 	svccc	0x00c00000
   154f0:	00000000 	andeq	r0, r0, r0
   154f4:	40200000 	eormi	r0, r0, r0
   154f8:	00000000 	andeq	r0, r0, r0
   154fc:	3ff00000 	svccc	0x00f00000	; IMB
   15500:	00000000 	andeq	r0, r0, r0
   15504:	3fe00000 	svccc	0x00e00000
   15508:	2aaaaaab 	bcs	feabffbc <errno+0xfeaa0788>
   1550c:	00016adc 	ldrdeq	r6, [r1], -ip
   15510:	e35e0000 	cmp	lr, #0
   15514:	ee38fb4f 	vsub.f64	d15, d8, d15
   15518:	0affffa9 	beq	153c4 <__kernel_rem_pio2+0x294>
   1551c:	e1a0000a 	mov	r0, sl
   15520:	ed9f0bf8 	vldr	d0, [pc, #992]	; 15908 <__kernel_rem_pio2+0x7d8>
   15524:	e58d1014 	str	r1, [sp, #20]
   15528:	eb000260 	bl	15eb0 <scalbn>
   1552c:	ee3ffb40 	vsub.f64	d15, d15, d0
   15530:	eeb5fb40 	vcmp.f64	d15, #0.0
   15534:	eef1fa10 	vmrs	APSR_nzcv, fpscr
   15538:	e59d1014 	ldr	r1, [sp, #20]
   1553c:	0affffa3 	beq	153d0 <__kernel_rem_pio2+0x2a0>
   15540:	eeb00b4f 	vmov.f64	d0, d15
   15544:	e26a0000 	rsb	r0, sl, #0
   15548:	e58d1000 	str	r1, [sp]
   1554c:	ee0eba10 	vmov	s28, fp
   15550:	e59db010 	ldr	fp, [sp, #16]
   15554:	eb000255 	bl	15eb0 <scalbn>
   15558:	ed9f6bec 	vldr	d6, [pc, #944]	; 15910 <__kernel_rem_pio2+0x7e0>
   1555c:	eeb40bc6 	vcmpe.f64	d0, d6
   15560:	eef1fa10 	vmrs	APSR_nzcv, fpscr
   15564:	e59d1000 	ldr	r1, [sp]
   15568:	ba000108 	blt	15990 <__kernel_rem_pio2+0x860>
   1556c:	ed9f7be9 	vldr	d7, [pc, #932]	; 15918 <__kernel_rem_pio2+0x7e8>
   15570:	ee207b07 	vmul.f64	d7, d0, d7
   15574:	eebd7bc7 	vcvt.s32.f64	s14, d7
   15578:	eeb85bc7 	vcvt.f64.s32	d5, s14
   1557c:	ee050b46 	vmls.f64	d0, d5, d6
   15580:	eebd0bc0 	vcvt.s32.f64	s0, d0
   15584:	e2853001 	add	r3, r5, #1
   15588:	e28d2f92 	add	r2, sp, #584	; 0x248
   1558c:	e0825105 	add	r5, r2, r5, lsl #2
   15590:	e0822103 	add	r2, r2, r3, lsl #2
   15594:	ed050a8c 	vstr	s0, [r5, #-560]	; 0xfffffdd0
   15598:	ed027a8c 	vstr	s14, [r2, #-560]	; 0xfffffdd0
   1559c:	e28aa018 	add	sl, sl, #24
   155a0:	e1a0000a 	mov	r0, sl
   155a4:	ed9f0bd7 	vldr	d0, [pc, #860]	; 15908 <__kernel_rem_pio2+0x7d8>
   155a8:	e58d1004 	str	r1, [sp, #4]
   155ac:	e58d3000 	str	r3, [sp]
   155b0:	eb00023e 	bl	15eb0 <scalbn>
   155b4:	e59d3000 	ldr	r3, [sp]
   155b8:	e3530000 	cmp	r3, #0
   155bc:	e59d1004 	ldr	r1, [sp, #4]
   155c0:	ba0000e4 	blt	15958 <__kernel_rem_pio2+0x828>
   155c4:	ed9f6bd3 	vldr	d6, [pc, #844]	; 15918 <__kernel_rem_pio2+0x7e8>
   155c8:	e28dcf6a 	add	ip, sp, #424	; 0x1a8
   155cc:	e1a05183 	lsl	r5, r3, #3
   155d0:	e08c4005 	add	r4, ip, r5
   155d4:	e28d2018 	add	r2, sp, #24
   155d8:	e0822103 	add	r2, r2, r3, lsl #2
   155dc:	e2840008 	add	r0, r4, #8
   155e0:	e412e004 	ldr	lr, [r2], #-4
   155e4:	ee07ea10 	vmov	s14, lr
   155e8:	eeb87bc7 	vcvt.f64.s32	d7, s14
   155ec:	ee277b00 	vmul.f64	d7, d7, d0
   155f0:	ed207b02 	vstmdb	r0!, {d7}
   155f4:	e15c0000 	cmp	ip, r0
   155f8:	ee200b06 	vmul.f64	d0, d0, d6
   155fc:	1afffff7 	bne	155e0 <__kernel_rem_pio2+0x4b0>
   15600:	e3a0e000 	mov	lr, #0
   15604:	e28d7e1a 	add	r7, sp, #416	; 0x1a0
   15608:	e3560000 	cmp	r6, #0
   1560c:	bd9f7bc3 	vldrlt	d7, [pc, #780]	; 15920 <__kernel_rem_pio2+0x7f0>
   15610:	ba00000d 	blt	1564c <__kernel_rem_pio2+0x51c>
   15614:	e59fc314 	ldr	ip, [pc, #788]	; 15930 <__kernel_rem_pio2+0x800>
   15618:	e1a00004 	mov	r0, r4
   1561c:	ed9f6bc1 	vldr	d6, [pc, #772]	; 15928 <__kernel_rem_pio2+0x7f8>
   15620:	ed9f7bbe 	vldr	d7, [pc, #760]	; 15920 <__kernel_rem_pio2+0x7f0>
   15624:	e3a02000 	mov	r2, #0
   15628:	ea000002 	b	15638 <__kernel_rem_pio2+0x508>
   1562c:	e15e0002 	cmp	lr, r2
   15630:	ba000005 	blt	1564c <__kernel_rem_pio2+0x51c>
   15634:	ecbc6b02 	vldmia	ip!, {d6}
   15638:	ecb05b02 	vldmia	r0!, {d5}
   1563c:	e2822001 	add	r2, r2, #1
   15640:	e1560002 	cmp	r6, r2
   15644:	ee057b06 	vmla.f64	d7, d5, d6
   15648:	aafffff7 	bge	1562c <__kernel_rem_pio2+0x4fc>
   1564c:	e2444008 	sub	r4, r4, #8
   15650:	e28d2f92 	add	r2, sp, #584	; 0x248
   15654:	e082218e 	add	r2, r2, lr, lsl #3
   15658:	e1540007 	cmp	r4, r7
   1565c:	ed027b50 	vstr	d7, [r2, #-320]	; 0xfffffec0
   15660:	e28ee001 	add	lr, lr, #1
   15664:	1affffe7 	bne	15608 <__kernel_rem_pio2+0x4d8>
   15668:	e59d22b0 	ldr	r2, [sp, #688]	; 0x2b0
   1566c:	e3520003 	cmp	r2, #3
   15670:	979ff102 	ldrls	pc, [pc, r2, lsl #2]
   15674:	ea00008b 	b	158a8 <__kernel_rem_pio2+0x778>
   15678:	00015878 	andeq	r5, r1, r8, ror r8
   1567c:	00015808 	andeq	r5, r1, r8, lsl #16
   15680:	00015808 	andeq	r5, r1, r8, lsl #16
   15684:	00015730 	andeq	r5, r1, r0, lsr r7
   15688:	1a00000c 	bne	156c0 <__kernel_rem_pio2+0x590>
   1568c:	e28d3f92 	add	r3, sp, #584	; 0x248
   15690:	e0833105 	add	r3, r3, r5, lsl #2
   15694:	e5131234 	ldr	r1, [r3, #-564]	; 0xfffffdcc
   15698:	e1a01bc1 	asr	r1, r1, #23
   1569c:	eaffff1f 	b	15320 <__kernel_rem_pio2+0x1f0>
   156a0:	e28d3f92 	add	r3, sp, #584	; 0x248
   156a4:	e2452001 	sub	r2, r5, #1
   156a8:	e0832102 	add	r2, r3, r2, lsl #2
   156ac:	e5123230 	ldr	r3, [r2, #-560]	; 0xfffffdd0
   156b0:	e3c334ff 	bic	r3, r3, #-16777216	; 0xff000000
   156b4:	e3c33502 	bic	r3, r3, #8388608	; 0x800000
   156b8:	e5023230 	str	r3, [r2, #-560]	; 0xfffffdd0
   156bc:	eaffff3e 	b	153bc <__kernel_rem_pio2+0x28c>
   156c0:	eeb4fbcb 	vcmpe.f64	d15, d11
   156c4:	eef1fa10 	vmrs	APSR_nzcv, fpscr
   156c8:	b3a01000 	movlt	r1, #0
   156cc:	baffff3c 	blt	153c4 <__kernel_rem_pio2+0x294>
   156d0:	e3550000 	cmp	r5, #0
   156d4:	e28bb001 	add	fp, fp, #1
   156d8:	c3a01002 	movgt	r1, #2
   156dc:	caffff14 	bgt	15334 <__kernel_rem_pio2+0x204>
   156e0:	ee38fb4f 	vsub.f64	d15, d8, d15
   156e4:	e3a01002 	mov	r1, #2
   156e8:	eaffff35 	b	153c4 <__kernel_rem_pio2+0x294>
   156ec:	e1a02103 	lsl	r2, r3, #2
   156f0:	e28d0f92 	add	r0, sp, #584	; 0x248
   156f4:	e0800002 	add	r0, r0, r2
   156f8:	e5100230 	ldr	r0, [r0, #-560]	; 0xfffffdd0
   156fc:	e3500000 	cmp	r0, #0
   15700:	ee0eba10 	vmov	s28, fp
   15704:	e24aa018 	sub	sl, sl, #24
   15708:	e59db010 	ldr	fp, [sp, #16]
   1570c:	1affffa3 	bne	155a0 <__kernel_rem_pio2+0x470>
   15710:	e28d0018 	add	r0, sp, #24
   15714:	e0802002 	add	r2, r0, r2
   15718:	e5320004 	ldr	r0, [r2, #-4]!
   1571c:	e3500000 	cmp	r0, #0
   15720:	e2433001 	sub	r3, r3, #1
   15724:	e24aa018 	sub	sl, sl, #24
   15728:	0afffffa 	beq	15718 <__kernel_rem_pio2+0x5e8>
   1572c:	eaffff9b 	b	155a0 <__kernel_rem_pio2+0x470>
   15730:	e3530000 	cmp	r3, #0
   15734:	da000093 	ble	15988 <__kernel_rem_pio2+0x858>
   15738:	e28d2f92 	add	r2, sp, #584	; 0x248
   1573c:	e0822005 	add	r2, r2, r5
   15740:	ed127b50 	vldr	d7, [r2, #-320]	; 0xfffffec0
   15744:	e28d2f42 	add	r2, sp, #264	; 0x108
   15748:	e082c183 	add	ip, r2, r3, lsl #3
   1574c:	e243021e 	sub	r0, r3, #-536870911	; 0xe0000001
   15750:	ed3c6b02 	vldmdb	ip!, {d6}
   15754:	ee365b07 	vadd.f64	d5, d6, d7
   15758:	ee366b45 	vsub.f64	d6, d6, d5
   1575c:	ee367b07 	vadd.f64	d7, d6, d7
   15760:	e152000c 	cmp	r2, ip
   15764:	ed8c7b02 	vstr	d7, [ip, #8]
   15768:	ed8c5b00 	vstr	d5, [ip]
   1576c:	eeb07b45 	vmov.f64	d7, d5
   15770:	1afffff6 	bne	15750 <__kernel_rem_pio2+0x620>
   15774:	e3530001 	cmp	r3, #1
   15778:	da000082 	ble	15988 <__kernel_rem_pio2+0x858>
   1577c:	e28d3f92 	add	r3, sp, #584	; 0x248
   15780:	e0835005 	add	r5, r3, r5
   15784:	ed157b50 	vldr	d7, [r5, #-320]	; 0xfffffec0
   15788:	e1a00180 	lsl	r0, r0, #3
   1578c:	e2803008 	add	r3, r0, #8
   15790:	e0823003 	add	r3, r2, r3
   15794:	e28dce11 	add	ip, sp, #272	; 0x110
   15798:	ed336b02 	vldmdb	r3!, {d6}
   1579c:	ee375b06 	vadd.f64	d5, d7, d6
   157a0:	ee366b45 	vsub.f64	d6, d6, d5
   157a4:	ee367b07 	vadd.f64	d7, d6, d7
   157a8:	e15c0003 	cmp	ip, r3
   157ac:	ed837b02 	vstr	d7, [r3, #8]
   157b0:	ed835b00 	vstr	d5, [r3]
   157b4:	eeb07b45 	vmov.f64	d7, d5
   157b8:	1afffff6 	bne	15798 <__kernel_rem_pio2+0x668>
   157bc:	ed9f7b57 	vldr	d7, [pc, #348]	; 15920 <__kernel_rem_pio2+0x7f0>
   157c0:	e2800010 	add	r0, r0, #16
   157c4:	e0822000 	add	r2, r2, r0
   157c8:	e28d3f46 	add	r3, sp, #280	; 0x118
   157cc:	ed326b02 	vldmdb	r2!, {d6}
   157d0:	e1530002 	cmp	r3, r2
   157d4:	ee377b06 	vadd.f64	d7, d7, d6
   157d8:	1afffffb 	bne	157cc <__kernel_rem_pio2+0x69c>
   157dc:	e3510000 	cmp	r1, #0
   157e0:	0a000053 	beq	15934 <__kernel_rem_pio2+0x804>
   157e4:	ed9d5b42 	vldr	d5, [sp, #264]	; 0x108
   157e8:	ed9d6b44 	vldr	d6, [sp, #272]	; 0x110
   157ec:	eeb17b47 	vneg.f64	d7, d7
   157f0:	eeb15b45 	vneg.f64	d5, d5
   157f4:	eeb16b46 	vneg.f64	d6, d6
   157f8:	ed8b7b04 	vstr	d7, [fp, #16]
   157fc:	ed8b5b00 	vstr	d5, [fp]
   15800:	ed8b6b02 	vstr	d6, [fp, #8]
   15804:	ea000027 	b	158a8 <__kernel_rem_pio2+0x778>
   15808:	ed9f7b44 	vldr	d7, [pc, #272]	; 15920 <__kernel_rem_pio2+0x7f0>
   1580c:	e2852008 	add	r2, r5, #8
   15810:	e28d0f42 	add	r0, sp, #264	; 0x108
   15814:	e0802002 	add	r2, r0, r2
   15818:	ed326b02 	vldmdb	r2!, {d6}
   1581c:	e1520000 	cmp	r2, r0
   15820:	ee377b06 	vadd.f64	d7, d7, d6
   15824:	1afffffb 	bne	15818 <__kernel_rem_pio2+0x6e8>
   15828:	e3510000 	cmp	r1, #0
   1582c:	0a00002b 	beq	158e0 <__kernel_rem_pio2+0x7b0>
   15830:	eeb15b47 	vneg.f64	d5, d7
   15834:	ed9d6b42 	vldr	d6, [sp, #264]	; 0x108
   15838:	e3530000 	cmp	r3, #0
   1583c:	ed8b5b00 	vstr	d5, [fp]
   15840:	ee367b47 	vsub.f64	d7, d6, d7
   15844:	da000008 	ble	1586c <__kernel_rem_pio2+0x73c>
   15848:	e3a02001 	mov	r2, #1
   1584c:	e28d0e11 	add	r0, sp, #272	; 0x110
   15850:	ecb06b02 	vldmia	r0!, {d6}
   15854:	e2822001 	add	r2, r2, #1
   15858:	e1530002 	cmp	r3, r2
   1585c:	ee377b06 	vadd.f64	d7, d7, d6
   15860:	aafffffa 	bge	15850 <__kernel_rem_pio2+0x720>
   15864:	e3510000 	cmp	r1, #0
   15868:	0a000000 	beq	15870 <__kernel_rem_pio2+0x740>
   1586c:	eeb17b47 	vneg.f64	d7, d7
   15870:	ed8b7b02 	vstr	d7, [fp, #8]
   15874:	ea00000b 	b	158a8 <__kernel_rem_pio2+0x778>
   15878:	ed9f7b28 	vldr	d7, [pc, #160]	; 15920 <__kernel_rem_pio2+0x7f0>
   1587c:	e28d2f92 	add	r2, sp, #584	; 0x248
   15880:	e0822005 	add	r2, r2, r5
   15884:	e2422f4e 	sub	r2, r2, #312	; 0x138
   15888:	ed326b02 	vldmdb	r2!, {d6}
   1588c:	e2433001 	sub	r3, r3, #1
   15890:	e3730001 	cmn	r3, #1
   15894:	ee377b06 	vadd.f64	d7, d7, d6
   15898:	1afffffa 	bne	15888 <__kernel_rem_pio2+0x758>
   1589c:	e3510000 	cmp	r1, #0
   158a0:	1eb17b47 	vnegne.f64	d7, d7
   158a4:	ed8b7b00 	vstr	d7, [fp]
   158a8:	ee1e3a10 	vmov	r3, s28
   158ac:	e2030007 	and	r0, r3, #7
   158b0:	e28ddf93 	add	sp, sp, #588	; 0x24c
   158b4:	ecbd8b10 	vpop	{d8-d15}
   158b8:	e8bd4ff0 	pop	{r4, r5, r6, r7, r8, r9, sl, fp, lr}
   158bc:	e12fff1e 	bx	lr
   158c0:	ed9f7b16 	vldr	d7, [pc, #88]	; 15920 <__kernel_rem_pio2+0x7f0>
   158c4:	e2800001 	add	r0, r0, #1
   158c8:	e150000e 	cmp	r0, lr
   158cc:	ecac7b02 	vstmia	ip!, {d7}
   158d0:	1afffe47 	bne	151f4 <__kernel_rem_pio2+0xc4>
   158d4:	eafffe56 	b	15234 <__kernel_rem_pio2+0x104>
   158d8:	e3a0c001 	mov	ip, #1
   158dc:	eafffed2 	b	1542c <__kernel_rem_pio2+0x2fc>
   158e0:	ed9d6b42 	vldr	d6, [sp, #264]	; 0x108
   158e4:	e3530000 	cmp	r3, #0
   158e8:	ed8b7b00 	vstr	d7, [fp]
   158ec:	ee367b47 	vsub.f64	d7, d6, d7
   158f0:	caffffd4 	bgt	15848 <__kernel_rem_pio2+0x718>
   158f4:	ed8b7b02 	vstr	d7, [fp, #8]
   158f8:	eaffffea 	b	158a8 <__kernel_rem_pio2+0x778>
   158fc:	e3a0e000 	mov	lr, #0
   15900:	eafffea0 	b	15388 <__kernel_rem_pio2+0x258>
   15904:	e1a00000 	nop			; (mov r0, r0)
   15908:	00000000 	andeq	r0, r0, r0
   1590c:	3ff00000 	svccc	0x00f00000	; IMB
   15910:	00000000 	andeq	r0, r0, r0
   15914:	41700000 	cmnmi	r0, r0
   15918:	00000000 	andeq	r0, r0, r0
   1591c:	3e700000 	cdpcc	0, 7, cr0, cr0, cr0, {0}
	...
   15928:	40000000 	andmi	r0, r0, r0
   1592c:	3ff921fb 	svccc	0x00f921fb
   15930:	00016af8 	strdeq	r6, [r1], -r8
   15934:	e28d1f42 	add	r1, sp, #264	; 0x108
   15938:	e8910003 	ldm	r1, {r0, r1}
   1593c:	e28d3e11 	add	r3, sp, #272	; 0x110
   15940:	e893000c 	ldm	r3, {r2, r3}
   15944:	ed8b7b04 	vstr	d7, [fp, #16]
   15948:	e88b0003 	stm	fp, {r0, r1}
   1594c:	e58b2008 	str	r2, [fp, #8]
   15950:	e58b300c 	str	r3, [fp, #12]
   15954:	eaffffd3 	b	158a8 <__kernel_rem_pio2+0x778>
   15958:	e59d22b0 	ldr	r2, [sp, #688]	; 0x2b0
   1595c:	e3520003 	cmp	r2, #3
   15960:	979ff102 	ldrls	pc, [pc, r2, lsl #2]
   15964:	eaffffcf 	b	158a8 <__kernel_rem_pio2+0x778>
   15968:	00015980 	andeq	r5, r1, r0, lsl #19
   1596c:	00015978 	andeq	r5, r1, r8, ror r9
   15970:	00015978 	andeq	r5, r1, r8, ror r9
   15974:	00015988 	andeq	r5, r1, r8, lsl #19
   15978:	ed9f7b0a 	vldr	d7, [pc, #40]	; 159a8 <__kernel_rem_pio2+0x878>
   1597c:	eaffffa9 	b	15828 <__kernel_rem_pio2+0x6f8>
   15980:	ed9f7b08 	vldr	d7, [pc, #32]	; 159a8 <__kernel_rem_pio2+0x878>
   15984:	eaffffc4 	b	1589c <__kernel_rem_pio2+0x76c>
   15988:	ed9f7b06 	vldr	d7, [pc, #24]	; 159a8 <__kernel_rem_pio2+0x878>
   1598c:	eaffff92 	b	157dc <__kernel_rem_pio2+0x6ac>
   15990:	eebd0bc0 	vcvt.s32.f64	s0, d0
   15994:	e28d2f92 	add	r2, sp, #584	; 0x248
   15998:	e1a03005 	mov	r3, r5
   1599c:	e0825105 	add	r5, r2, r5, lsl #2
   159a0:	ed050a8c 	vstr	s0, [r5, #-560]	; 0xfffffdd0
   159a4:	eafffefd 	b	155a0 <__kernel_rem_pio2+0x470>
	...

000159b0 <__kernel_sin>:
   159b0:	ee103a90 	vmov	r3, s1
   159b4:	e3c33102 	bic	r3, r3, #-2147483648	; 0x80000000
   159b8:	e35305f9 	cmp	r3, #1044381696	; 0x3e400000
   159bc:	aa000003 	bge	159d0 <__kernel_sin+0x20>
   159c0:	eefd7bc0 	vcvt.s32.f64	s15, d0
   159c4:	ee173a90 	vmov	r3, s15
   159c8:	e3530000 	cmp	r3, #0
   159cc:	012fff1e 	bxeq	lr
   159d0:	ee207b00 	vmul.f64	d7, d0, d0
   159d4:	ed9f5b17 	vldr	d5, [pc, #92]	; 15a38 <__kernel_sin+0x88>
   159d8:	ed9f6b18 	vldr	d6, [pc, #96]	; 15a40 <__kernel_sin+0x90>
   159dc:	ed9f4b19 	vldr	d4, [pc, #100]	; 15a48 <__kernel_sin+0x98>
   159e0:	ee176b05 	vnmls.f64	d6, d7, d5
   159e4:	ed9f5b19 	vldr	d5, [pc, #100]	; 15a50 <__kernel_sin+0xa0>
   159e8:	ee064b07 	vmla.f64	d4, d6, d7
   159ec:	ed9f6b19 	vldr	d6, [pc, #100]	; 15a58 <__kernel_sin+0xa8>
   159f0:	ee145b07 	vnmls.f64	d5, d4, d7
   159f4:	e3500000 	cmp	r0, #0
   159f8:	ee056b07 	vmla.f64	d6, d5, d7
   159fc:	ee205b07 	vmul.f64	d5, d0, d7
   15a00:	0a000007 	beq	15a24 <__kernel_sin+0x74>
   15a04:	ee256b06 	vmul.f64	d6, d5, d6
   15a08:	ed9f4b14 	vldr	d4, [pc, #80]	; 15a60 <__kernel_sin+0xb0>
   15a0c:	ee116b04 	vnmls.f64	d6, d1, d4
   15a10:	ed9f4b14 	vldr	d4, [pc, #80]	; 15a68 <__kernel_sin+0xb8>
   15a14:	ee161b07 	vnmls.f64	d1, d6, d7
   15a18:	ee051b04 	vmla.f64	d1, d5, d4
   15a1c:	ee300b41 	vsub.f64	d0, d0, d1
   15a20:	e12fff1e 	bx	lr
   15a24:	ed9f4b0f 	vldr	d4, [pc, #60]	; 15a68 <__kernel_sin+0xb8>
   15a28:	ee174b06 	vnmls.f64	d4, d7, d6
   15a2c:	ee040b05 	vmla.f64	d0, d4, d5
   15a30:	e12fff1e 	bx	lr
   15a34:	e1a00000 	nop			; (mov r0, r0)
   15a38:	5acfd57c 	bpl	ff40b030 <errno+0xff3eb7fc>
   15a3c:	3de5d93a 	stclcc	9, cr13, [r5, #232]!	; 0xe8
   15a40:	8a2b9ceb 	bhi	afcdf4 <errno+0xadd5c0>
   15a44:	3e5ae5e6 	cdpcc	5, 5, cr14, cr10, cr6, {7}
   15a48:	57b1fe7d 			; <UNDEFINED> instruction: 0x57b1fe7d
   15a4c:	3ec71de3 	cdpcc	13, 12, cr1, cr7, cr3, {7}
   15a50:	19c161d5 	stmibne	r1, {r0, r2, r4, r6, r7, r8, sp, lr}^
   15a54:	3f2a01a0 	svccc	0x002a01a0
   15a58:	1110f8a6 	tstne	r0, r6, lsr #17	; <UNPREDICTABLE>
   15a5c:	3f811111 	svccc	0x00811111
   15a60:	00000000 	andeq	r0, r0, r0
   15a64:	3fe00000 	svccc	0x00e00000
   15a68:	55555549 	ldrbpl	r5, [r5, #-1353]	; 0xfffffab7
   15a6c:	3fc55555 	svccc	0x00c55555

00015a70 <atan>:
   15a70:	eeb07b40 	vmov.f64	d7, d0
   15a74:	e92d4070 	push	{r4, r5, r6, lr}
   15a78:	ee175a90 	vmov	r5, s15
   15a7c:	e59f325c 	ldr	r3, [pc, #604]	; 15ce0 <atan+0x270>
   15a80:	e3c54102 	bic	r4, r5, #-2147483648	; 0x80000000
   15a84:	e1540003 	cmp	r4, r3
   15a88:	da000010 	ble	15ad0 <atan+0x60>
   15a8c:	e59f3250 	ldr	r3, [pc, #592]	; 15ce4 <atan+0x274>
   15a90:	e1540003 	cmp	r4, r3
   15a94:	ee102a10 	vmov	r2, s0
   15a98:	ca00003f 	bgt	15b9c <atan+0x12c>
   15a9c:	03a03001 	moveq	r3, #1
   15aa0:	13a03000 	movne	r3, #0
   15aa4:	e3520000 	cmp	r2, #0
   15aa8:	03a03000 	moveq	r3, #0
   15aac:	12033001 	andne	r3, r3, #1
   15ab0:	e3530000 	cmp	r3, #0
   15ab4:	1a000038 	bne	15b9c <atan+0x12c>
   15ab8:	ed9f7b64 	vldr	d7, [pc, #400]	; 15c50 <atan+0x1e0>
   15abc:	ed9f0b65 	vldr	d0, [pc, #404]	; 15c58 <atan+0x1e8>
   15ac0:	e3550000 	cmp	r5, #0
   15ac4:	ceb00b47 	vmovgt.f64	d0, d7
   15ac8:	e8bd4070 	pop	{r4, r5, r6, lr}
   15acc:	e12fff1e 	bx	lr
   15ad0:	e59f3210 	ldr	r3, [pc, #528]	; 15ce8 <atan+0x278>
   15ad4:	e1540003 	cmp	r4, r3
   15ad8:	ca00003a 	bgt	15bc8 <atan+0x158>
   15adc:	e243376f 	sub	r3, r3, #29097984	; 0x1bc0000
   15ae0:	e1540003 	cmp	r4, r3
   15ae4:	da00002f 	ble	15ba8 <atan+0x138>
   15ae8:	e3e03000 	mvn	r3, #0
   15aec:	ee275b07 	vmul.f64	d5, d7, d7
   15af0:	ed9f3b5a 	vldr	d3, [pc, #360]	; 15c60 <atan+0x1f0>
   15af4:	ee256b05 	vmul.f64	d6, d5, d5
   15af8:	eeb02b45 	vmov.f64	d2, d5
   15afc:	ed9f5b59 	vldr	d5, [pc, #356]	; 15c68 <atan+0x1f8>
   15b00:	ed9f4b5a 	vldr	d4, [pc, #360]	; 15c70 <atan+0x200>
   15b04:	ee065b03 	vmla.f64	d5, d6, d3
   15b08:	ed9f1b5a 	vldr	d1, [pc, #360]	; 15c78 <atan+0x208>
   15b0c:	ed9f3b5b 	vldr	d3, [pc, #364]	; 15c80 <atan+0x210>
   15b10:	ee054b06 	vmla.f64	d4, d5, d6
   15b14:	ee161b03 	vnmls.f64	d1, d6, d3
   15b18:	ed9f5b5a 	vldr	d5, [pc, #360]	; 15c88 <atan+0x218>
   15b1c:	ed9f3b5b 	vldr	d3, [pc, #364]	; 15c90 <atan+0x220>
   15b20:	ee045b06 	vmla.f64	d5, d4, d6
   15b24:	ee113b06 	vnmls.f64	d3, d1, d6
   15b28:	ed9f4b5a 	vldr	d4, [pc, #360]	; 15c98 <atan+0x228>
   15b2c:	ed9f1b5b 	vldr	d1, [pc, #364]	; 15ca0 <atan+0x230>
   15b30:	ee054b06 	vmla.f64	d4, d5, d6
   15b34:	ee131b06 	vnmls.f64	d1, d3, d6
   15b38:	ed9f5b5a 	vldr	d5, [pc, #360]	; 15ca8 <atan+0x238>
   15b3c:	ed9f3b5b 	vldr	d3, [pc, #364]	; 15cb0 <atan+0x240>
   15b40:	ee045b06 	vmla.f64	d5, d4, d6
   15b44:	ee113b06 	vnmls.f64	d3, d1, d6
   15b48:	e3730001 	cmn	r3, #1
   15b4c:	ee255b02 	vmul.f64	d5, d5, d2
   15b50:	ee236b06 	vmul.f64	d6, d3, d6
   15b54:	0a00002d 	beq	15c10 <atan+0x1a0>
   15b58:	e59f218c 	ldr	r2, [pc, #396]	; 15cec <atan+0x27c>
   15b5c:	e1a03183 	lsl	r3, r3, #3
   15b60:	e0822003 	add	r2, r2, r3
   15b64:	ee355b06 	vadd.f64	d5, d5, d6
   15b68:	ed920b00 	vldr	d0, [r2]
   15b6c:	ee150b07 	vnmls.f64	d0, d5, d7
   15b70:	e59f2178 	ldr	r2, [pc, #376]	; 15cf0 <atan+0x280>
   15b74:	e0823003 	add	r3, r2, r3
   15b78:	ee300b47 	vsub.f64	d0, d0, d7
   15b7c:	ed936b00 	vldr	d6, [r3]
   15b80:	ee367b40 	vsub.f64	d7, d6, d0
   15b84:	e3550000 	cmp	r5, #0
   15b88:	beb10b47 	vneglt.f64	d0, d7
   15b8c:	ba000003 	blt	15ba0 <atan+0x130>
   15b90:	eeb00b47 	vmov.f64	d0, d7
   15b94:	e8bd4070 	pop	{r4, r5, r6, lr}
   15b98:	e12fff1e 	bx	lr
   15b9c:	ee370b07 	vadd.f64	d0, d7, d7
   15ba0:	e8bd4070 	pop	{r4, r5, r6, lr}
   15ba4:	e12fff1e 	bx	lr
   15ba8:	ed9f6b42 	vldr	d6, [pc, #264]	; 15cb8 <atan+0x248>
   15bac:	ed9f5b43 	vldr	d5, [pc, #268]	; 15cc0 <atan+0x250>
   15bb0:	ee306b06 	vadd.f64	d6, d0, d6
   15bb4:	eeb46bc5 	vcmpe.f64	d6, d5
   15bb8:	eef1fa10 	vmrs	APSR_nzcv, fpscr
   15bbc:	daffffc9 	ble	15ae8 <atan+0x78>
   15bc0:	eeb00b47 	vmov.f64	d0, d7
   15bc4:	eafffff2 	b	15b94 <atan+0x124>
   15bc8:	eb00004b 	bl	15cfc <fabs>
   15bcc:	e59f3120 	ldr	r3, [pc, #288]	; 15cf4 <atan+0x284>
   15bd0:	e1540003 	cmp	r4, r3
   15bd4:	ca000011 	bgt	15c20 <atan+0x1b0>
   15bd8:	e243380d 	sub	r3, r3, #851968	; 0xd0000
   15bdc:	e1540003 	cmp	r4, r3
   15be0:	de306b00 	vaddle.f64	d6, d0, d0
   15be4:	cd9f7b35 	vldrgt	d7, [pc, #212]	; 15cc0 <atan+0x250>
   15be8:	dd9f7b36 	vldrle	d7, [pc, #216]	; 15cc8 <atan+0x258>
   15bec:	dd9f5b33 	vldrle	d5, [pc, #204]	; 15cc0 <atan+0x250>
   15bf0:	ce306b47 	vsubgt.f64	d6, d0, d7
   15bf4:	de366b45 	vsuble.f64	d6, d6, d5
   15bf8:	de300b07 	vaddle.f64	d0, d0, d7
   15bfc:	ce300b07 	vaddgt.f64	d0, d0, d7
   15c00:	d3a03000 	movle	r3, #0
   15c04:	c3a03001 	movgt	r3, #1
   15c08:	ee867b00 	vdiv.f64	d7, d6, d0
   15c0c:	eaffffb6 	b	15aec <atan+0x7c>
   15c10:	ee355b06 	vadd.f64	d5, d5, d6
   15c14:	ee057b47 	vmls.f64	d7, d5, d7
   15c18:	eeb00b47 	vmov.f64	d0, d7
   15c1c:	eaffffdf 	b	15ba0 <atan+0x130>
   15c20:	e59f30d0 	ldr	r3, [pc, #208]	; 15cf8 <atan+0x288>
   15c24:	e1540003 	cmp	r4, r3
   15c28:	dd9f7b28 	vldrle	d7, [pc, #160]	; 15cd0 <atan+0x260>
   15c2c:	dd9f6b23 	vldrle	d6, [pc, #140]	; 15cc0 <atan+0x250>
   15c30:	de305b47 	vsuble.f64	d5, d0, d7
   15c34:	de006b07 	vmlale.f64	d6, d0, d7
   15c38:	cd9f6b26 	vldrgt	d6, [pc, #152]	; 15cd8 <atan+0x268>
   15c3c:	d3a03002 	movle	r3, #2
   15c40:	de857b06 	vdivle.f64	d7, d5, d6
   15c44:	c3a03003 	movgt	r3, #3
   15c48:	ce867b00 	vdivgt.f64	d7, d6, d0
   15c4c:	eaffffa6 	b	15aec <atan+0x7c>
   15c50:	54442d18 	strbpl	r2, [r4], #-3352	; 0xfffff2e8
   15c54:	3ff921fb 	svccc	0x00f921fb
   15c58:	54442d18 	strbpl	r2, [r4], #-3352	; 0xfffff2e8
   15c5c:	bff921fb 	svclt	0x00f921fb
   15c60:	e322da11 			; <UNDEFINED> instruction: 0xe322da11
   15c64:	3f90ad3a 	svccc	0x0090ad3a
   15c68:	24760deb 	ldrbtcs	r0, [r6], #-3563	; 0xfffff215
   15c6c:	3fa97b4b 	svccc	0x00a97b4b
   15c70:	a0d03d51 	sbcsge	r3, r0, r1, asr sp
   15c74:	3fb10d66 	svccc	0x00b10d66
   15c78:	52defd9a 	sbcspl	pc, lr, #9856	; 0x2680
   15c7c:	3fadde2d 	svccc	0x00adde2d
   15c80:	2c6a6c2f 	stclcs	12, cr6, [sl], #-188	; 0xffffff44
   15c84:	bfa2b444 	svclt	0x00a2b444
   15c88:	c54c206e 	strbgt	r2, [ip, #-110]	; 0xffffff92
   15c8c:	3fb745cd 	svccc	0x00b745cd
   15c90:	af749a6d 	svcge	0x00749a6d
   15c94:	3fb3b0f2 	svccc	0x00b3b0f2
   15c98:	920083ff 	andls	r8, r0, #-67108861	; 0xfc000003
   15c9c:	3fc24924 	svccc	0x00c24924
   15ca0:	fe231671 	mcr2	6, 1, r1, cr3, cr1, {3}
   15ca4:	3fbc71c6 	svccc	0x00bc71c6
   15ca8:	5555550d 	ldrbpl	r5, [r5, #-1293]	; 0xfffffaf3
   15cac:	3fd55555 	svccc	0x00d55555
   15cb0:	9998ebc4 	ldmibls	r8, {r2, r6, r7, r8, r9, fp, sp, lr, pc}
   15cb4:	3fc99999 	svccc	0x00c99999
   15cb8:	8800759c 	stmdahi	r0, {r2, r3, r4, r7, r8, sl, ip, sp, lr}
   15cbc:	7e37e43c 	mrcvc	4, 1, lr, cr7, cr12, {1}
   15cc0:	00000000 	andeq	r0, r0, r0
   15cc4:	3ff00000 	svccc	0x00f00000	; IMB
   15cc8:	00000000 	andeq	r0, r0, r0
   15ccc:	40000000 	andmi	r0, r0, r0
   15cd0:	00000000 	andeq	r0, r0, r0
   15cd4:	3ff80000 	svccc	0x00f80000
   15cd8:	00000000 	andeq	r0, r0, r0
   15cdc:	bff00000 	svclt	0x00f00000	; IMB
   15ce0:	440fffff 	strmi	pc, [pc], #-4095	; 15ce8 <atan+0x278>
   15ce4:	7ff00000 	svcvc	0x00f00000	; IMB
   15ce8:	3fdbffff 	svccc	0x00dbffff
   15cec:	00016b30 	andeq	r6, r1, r0, lsr fp
   15cf0:	00016b50 	andeq	r6, r1, r0, asr fp
   15cf4:	3ff2ffff 	svccc	0x00f2ffff
   15cf8:	40037fff 	strdmi	r7, [r3], -pc	; <UNPREDICTABLE>

00015cfc <fabs>:
   15cfc:	ec532b10 	vmov	r2, r3, d0
   15d00:	e3c33102 	bic	r3, r3, #-2147483648	; 0x80000000
   15d04:	ec432b10 	vmov	d0, r2, r3
   15d08:	e12fff1e 	bx	lr
   15d0c:	00000000 	andeq	r0, r0, r0

00015d10 <floor>:
   15d10:	e92d4010 	push	{r4, lr}
   15d14:	e24dd008 	sub	sp, sp, #8
   15d18:	ed8d0b00 	vstr	d0, [sp]
   15d1c:	e59d0004 	ldr	r0, [sp, #4]
   15d20:	e1a02080 	lsl	r2, r0, #1
   15d24:	e1a02aa2 	lsr	r2, r2, #21
   15d28:	e2423fff 	sub	r3, r2, #1020	; 0x3fc
   15d2c:	e59d1000 	ldr	r1, [sp]
   15d30:	e2433003 	sub	r3, r3, #3
   15d34:	e3530013 	cmp	r3, #19
   15d38:	e1a0e000 	mov	lr, r0
   15d3c:	e1a0c001 	mov	ip, r1
   15d40:	ca000017 	bgt	15da4 <floor+0x94>
   15d44:	e3530000 	cmp	r3, #0
   15d48:	ba000031 	blt	15e14 <floor+0x104>
   15d4c:	e59f213c 	ldr	r2, [pc, #316]	; 15e90 <floor+0x180>
   15d50:	e1a02352 	asr	r2, r2, r3
   15d54:	e0004002 	and	r4, r0, r2
   15d58:	e1941001 	orrs	r1, r4, r1
   15d5c:	0a000014 	beq	15db4 <floor+0xa4>
   15d60:	ed9f7b48 	vldr	d7, [pc, #288]	; 15e88 <floor+0x178>
   15d64:	ed9d6b00 	vldr	d6, [sp]
   15d68:	ee367b07 	vadd.f64	d7, d6, d7
   15d6c:	eeb57bc0 	vcmpe.f64	d7, #0.0
   15d70:	eef1fa10 	vmrs	APSR_nzcv, fpscr
   15d74:	da000004 	ble	15d8c <floor+0x7c>
   15d78:	e3500000 	cmp	r0, #0
   15d7c:	b3a01601 	movlt	r1, #1048576	; 0x100000
   15d80:	e3a0c000 	mov	ip, #0
   15d84:	b080e351 	addlt	lr, r0, r1, asr r3
   15d88:	e1ce0002 	bic	r0, lr, r2
   15d8c:	e1a03000 	mov	r3, r0
   15d90:	e1a0200c 	mov	r2, ip
   15d94:	ec432b10 	vmov	d0, r2, r3
   15d98:	e28dd008 	add	sp, sp, #8
   15d9c:	e8bd4010 	pop	{r4, lr}
   15da0:	e12fff1e 	bx	lr
   15da4:	e3530033 	cmp	r3, #51	; 0x33
   15da8:	da000005 	ble	15dc4 <floor+0xb4>
   15dac:	e3530b01 	cmp	r3, #1024	; 0x400
   15db0:	0a000026 	beq	15e50 <floor+0x140>
   15db4:	ed9d0b00 	vldr	d0, [sp]
   15db8:	e28dd008 	add	sp, sp, #8
   15dbc:	e8bd4010 	pop	{r4, lr}
   15dc0:	e12fff1e 	bx	lr
   15dc4:	e3e01000 	mvn	r1, #0
   15dc8:	e2422e41 	sub	r2, r2, #1040	; 0x410
   15dcc:	e2422003 	sub	r2, r2, #3
   15dd0:	e1a02231 	lsr	r2, r1, r2
   15dd4:	e11c0002 	tst	ip, r2
   15dd8:	0afffff5 	beq	15db4 <floor+0xa4>
   15ddc:	ed9f7b29 	vldr	d7, [pc, #164]	; 15e88 <floor+0x178>
   15de0:	ed9d6b00 	vldr	d6, [sp]
   15de4:	ee367b07 	vadd.f64	d7, d6, d7
   15de8:	eeb57bc0 	vcmpe.f64	d7, #0.0
   15dec:	eef1fa10 	vmrs	APSR_nzcv, fpscr
   15df0:	daffffe5 	ble	15d8c <floor+0x7c>
   15df4:	e3500000 	cmp	r0, #0
   15df8:	ba000017 	blt	15e5c <floor+0x14c>
   15dfc:	e1a0000e 	mov	r0, lr
   15e00:	e1ccc002 	bic	ip, ip, r2
   15e04:	e1a03000 	mov	r3, r0
   15e08:	e1a0200c 	mov	r2, ip
   15e0c:	ec432b10 	vmov	d0, r2, r3
   15e10:	eaffffe0 	b	15d98 <floor+0x88>
   15e14:	ed9f7b1b 	vldr	d7, [pc, #108]	; 15e88 <floor+0x178>
   15e18:	ee307b07 	vadd.f64	d7, d0, d7
   15e1c:	eeb57bc0 	vcmpe.f64	d7, #0.0
   15e20:	eef1fa10 	vmrs	APSR_nzcv, fpscr
   15e24:	daffffd8 	ble	15d8c <floor+0x7c>
   15e28:	e3500000 	cmp	r0, #0
   15e2c:	a3a0c000 	movge	ip, #0
   15e30:	a1a0000c 	movge	r0, ip
   15e34:	aaffffd4 	bge	15d8c <floor+0x7c>
   15e38:	e3c02102 	bic	r2, r0, #-2147483648	; 0x80000000
   15e3c:	e59f3050 	ldr	r3, [pc, #80]	; 15e94 <floor+0x184>
   15e40:	e192200c 	orrs	r2, r2, ip
   15e44:	11a00003 	movne	r0, r3
   15e48:	e3a0c000 	mov	ip, #0
   15e4c:	eaffffce 	b	15d8c <floor+0x7c>
   15e50:	ed9d7b00 	vldr	d7, [sp]
   15e54:	ee370b07 	vadd.f64	d0, d7, d7
   15e58:	eaffffd6 	b	15db8 <floor+0xa8>
   15e5c:	e3530014 	cmp	r3, #20
   15e60:	0280e001 	addeq	lr, r0, #1
   15e64:	0affffe4 	beq	15dfc <floor+0xec>
   15e68:	e3a01001 	mov	r1, #1
   15e6c:	e2633034 	rsb	r3, r3, #52	; 0x34
   15e70:	e08c3311 	add	r3, ip, r1, lsl r3
   15e74:	e15c0003 	cmp	ip, r3
   15e78:	808ee001 	addhi	lr, lr, r1
   15e7c:	e1a0c003 	mov	ip, r3
   15e80:	eaffffdd 	b	15dfc <floor+0xec>
   15e84:	e1a00000 	nop			; (mov r0, r0)
   15e88:	8800759c 	stmdahi	r0, {r2, r3, r4, r7, r8, sl, ip, sp, lr}
   15e8c:	7e37e43c 	mrcvc	4, 1, lr, cr7, cr12, {1}
   15e90:	000fffff 	strdeq	pc, [pc], -pc	; <UNPREDICTABLE>
   15e94:	bff00000 	svclt	0x00f00000	; IMB

00015e98 <matherr>:
   15e98:	e3a00000 	mov	r0, #0
   15e9c:	e12fff1e 	bx	lr

00015ea0 <nan>:
   15ea0:	ed9f0b00 	vldr	d0, [pc]	; 15ea8 <nan+0x8>
   15ea4:	e12fff1e 	bx	lr
   15ea8:	00000000 	andeq	r0, r0, r0
   15eac:	7ff80000 	svcvc	0x00f80000

00015eb0 <scalbn>:
   15eb0:	e52de004 	push	{lr}		; (str lr, [sp, #-4]!)
   15eb4:	ed2d8b02 	vpush	{d8}
   15eb8:	e24dd00c 	sub	sp, sp, #12
   15ebc:	ed8d0b00 	vstr	d0, [sp]
   15ec0:	e59dc004 	ldr	ip, [sp, #4]
   15ec4:	e1a0308c 	lsl	r3, ip, #1
   15ec8:	e1b03aa3 	lsrs	r3, r3, #21
   15ecc:	e59d2000 	ldr	r2, [sp]
   15ed0:	1a00001b 	bne	15f44 <scalbn+0x94>
   15ed4:	e3ccc102 	bic	ip, ip, #-2147483648	; 0x80000000
   15ed8:	e19c3002 	orrs	r3, ip, r2
   15edc:	0a000021 	beq	15f68 <scalbn+0xb8>
   15ee0:	ed9f7b48 	vldr	d7, [pc, #288]	; 16008 <scalbn+0x158>
   15ee4:	ee207b07 	vmul.f64	d7, d0, d7
   15ee8:	e59f3138 	ldr	r3, [pc, #312]	; 16028 <scalbn+0x178>
   15eec:	ed8d7b00 	vstr	d7, [sp]
   15ef0:	e1500003 	cmp	r0, r3
   15ef4:	e59dc004 	ldr	ip, [sp, #4]
   15ef8:	ba00001f 	blt	15f7c <scalbn+0xcc>
   15efc:	e1a0308c 	lsl	r3, ip, #1
   15f00:	e1a03aa3 	lsr	r3, r3, #21
   15f04:	e2433036 	sub	r3, r3, #54	; 0x36
   15f08:	e59f211c 	ldr	r2, [pc, #284]	; 1602c <scalbn+0x17c>
   15f0c:	e0801003 	add	r1, r0, r3
   15f10:	e1510002 	cmp	r1, r2
   15f14:	ca000023 	bgt	15fa8 <scalbn+0xf8>
   15f18:	e3510000 	cmp	r1, #0
   15f1c:	da00001c 	ble	15f94 <scalbn+0xe4>
   15f20:	e3ccc47f 	bic	ip, ip, #2130706432	; 0x7f000000
   15f24:	e89d000c 	ldm	sp, {r2, r3}
   15f28:	e3ccc60f 	bic	ip, ip, #15728640	; 0xf00000
   15f2c:	e18c3a01 	orr	r3, ip, r1, lsl #20
   15f30:	ec432b10 	vmov	d0, r2, r3
   15f34:	e28dd00c 	add	sp, sp, #12
   15f38:	ecbd8b02 	vpop	{d8}
   15f3c:	e49de004 	pop	{lr}		; (ldr lr, [sp], #4)
   15f40:	e12fff1e 	bx	lr
   15f44:	e59f20e4 	ldr	r2, [pc, #228]	; 16030 <scalbn+0x180>
   15f48:	e1530002 	cmp	r3, r2
   15f4c:	1affffed 	bne	15f08 <scalbn+0x58>
   15f50:	ed9d7b00 	vldr	d7, [sp]
   15f54:	ee370b07 	vadd.f64	d0, d7, d7
   15f58:	e28dd00c 	add	sp, sp, #12
   15f5c:	ecbd8b02 	vpop	{d8}
   15f60:	e49de004 	pop	{lr}		; (ldr lr, [sp], #4)
   15f64:	e12fff1e 	bx	lr
   15f68:	ed9d0b00 	vldr	d0, [sp]
   15f6c:	e28dd00c 	add	sp, sp, #12
   15f70:	ecbd8b02 	vpop	{d8}
   15f74:	e49de004 	pop	{lr}		; (ldr lr, [sp], #4)
   15f78:	e12fff1e 	bx	lr
   15f7c:	ed9f0b23 	vldr	d0, [pc, #140]	; 16010 <scalbn+0x160>
   15f80:	ee270b00 	vmul.f64	d0, d7, d0
   15f84:	e28dd00c 	add	sp, sp, #12
   15f88:	ecbd8b02 	vpop	{d8}
   15f8c:	e49de004 	pop	{lr}		; (ldr lr, [sp], #4)
   15f90:	e12fff1e 	bx	lr
   15f94:	e3710035 	cmn	r1, #53	; 0x35
   15f98:	aa00000b 	bge	15fcc <scalbn+0x11c>
   15f9c:	e59f3090 	ldr	r3, [pc, #144]	; 16034 <scalbn+0x184>
   15fa0:	e1500003 	cmp	r0, r3
   15fa4:	da000011 	ble	15ff0 <scalbn+0x140>
   15fa8:	ed9f8b1a 	vldr	d8, [pc, #104]	; 16018 <scalbn+0x168>
   15fac:	ed9d1b00 	vldr	d1, [sp]
   15fb0:	eeb00b48 	vmov.f64	d0, d8
   15fb4:	eb00001f 	bl	16038 <copysign>
   15fb8:	ee200b08 	vmul.f64	d0, d0, d8
   15fbc:	e28dd00c 	add	sp, sp, #12
   15fc0:	ecbd8b02 	vpop	{d8}
   15fc4:	e49de004 	pop	{lr}		; (ldr lr, [sp], #4)
   15fc8:	e12fff1e 	bx	lr
   15fcc:	e3ccc47f 	bic	ip, ip, #2130706432	; 0x7f000000
   15fd0:	e89d000c 	ldm	sp, {r2, r3}
   15fd4:	e3ccc60f 	bic	ip, ip, #15728640	; 0xf00000
   15fd8:	e2811036 	add	r1, r1, #54	; 0x36
   15fdc:	e18c3a01 	orr	r3, ip, r1, lsl #20
   15fe0:	ec432b17 	vmov	d7, r2, r3
   15fe4:	ed9f0b0d 	vldr	d0, [pc, #52]	; 16020 <scalbn+0x170>
   15fe8:	ee270b00 	vmul.f64	d0, d7, d0
   15fec:	eaffffd0 	b	15f34 <scalbn+0x84>
   15ff0:	ed9f8b06 	vldr	d8, [pc, #24]	; 16010 <scalbn+0x160>
   15ff4:	ed9d1b00 	vldr	d1, [sp]
   15ff8:	eeb00b48 	vmov.f64	d0, d8
   15ffc:	eb00000d 	bl	16038 <copysign>
   16000:	ee200b08 	vmul.f64	d0, d0, d8
   16004:	eaffffca 	b	15f34 <scalbn+0x84>
   16008:	00000000 	andeq	r0, r0, r0
   1600c:	43500000 	cmpmi	r0, #0
   16010:	c2f8f359 	rscsgt	pc, r8, #1677721601	; 0x64000001
   16014:	01a56e1f 			; <UNDEFINED> instruction: 0x01a56e1f
   16018:	8800759c 	stmdahi	r0, {r2, r3, r4, r7, r8, sl, ip, sp, lr}
   1601c:	7e37e43c 	mrcvc	4, 1, lr, cr7, cr12, {1}
   16020:	00000000 	andeq	r0, r0, r0
   16024:	3c900000 	ldccc	0, cr0, [r0], {0}
   16028:	ffff3cb0 			; <UNDEFINED> instruction: 0xffff3cb0
   1602c:	000007fe 	strdeq	r0, [r0], -lr
   16030:	000007ff 	strdeq	r0, [r0], -pc	; <UNPREDICTABLE>
   16034:	0000c350 	andeq	ip, r0, r0, asr r3

00016038 <copysign>:
   16038:	ec532b10 	vmov	r2, r3, d0
   1603c:	ee110a90 	vmov	r0, s3
   16040:	e3c31102 	bic	r1, r3, #-2147483648	; 0x80000000
   16044:	e2000102 	and	r0, r0, #-2147483648	; 0x80000000
   16048:	e1813000 	orr	r3, r1, r0
   1604c:	ec432b10 	vmov	d0, r2, r3
   16050:	e12fff1e 	bx	lr

00016054 <__aeabi_uidiv>:
   16054:	e2512001 	subs	r2, r1, #1
   16058:	012fff1e 	bxeq	lr
   1605c:	3a000036 	bcc	1613c <__aeabi_uidiv+0xe8>
   16060:	e1500001 	cmp	r0, r1
   16064:	9a000022 	bls	160f4 <__aeabi_uidiv+0xa0>
   16068:	e1110002 	tst	r1, r2
   1606c:	0a000023 	beq	16100 <__aeabi_uidiv+0xac>
   16070:	e311020e 	tst	r1, #-536870912	; 0xe0000000
   16074:	01a01181 	lsleq	r1, r1, #3
   16078:	03a03008 	moveq	r3, #8
   1607c:	13a03001 	movne	r3, #1
   16080:	e3510201 	cmp	r1, #268435456	; 0x10000000
   16084:	31510000 	cmpcc	r1, r0
   16088:	31a01201 	lslcc	r1, r1, #4
   1608c:	31a03203 	lslcc	r3, r3, #4
   16090:	3afffffa 	bcc	16080 <__aeabi_uidiv+0x2c>
   16094:	e3510102 	cmp	r1, #-2147483648	; 0x80000000
   16098:	31510000 	cmpcc	r1, r0
   1609c:	31a01081 	lslcc	r1, r1, #1
   160a0:	31a03083 	lslcc	r3, r3, #1
   160a4:	3afffffa 	bcc	16094 <__aeabi_uidiv+0x40>
   160a8:	e3a02000 	mov	r2, #0
   160ac:	e1500001 	cmp	r0, r1
   160b0:	20400001 	subcs	r0, r0, r1
   160b4:	21822003 	orrcs	r2, r2, r3
   160b8:	e15000a1 	cmp	r0, r1, lsr #1
   160bc:	204000a1 	subcs	r0, r0, r1, lsr #1
   160c0:	218220a3 	orrcs	r2, r2, r3, lsr #1
   160c4:	e1500121 	cmp	r0, r1, lsr #2
   160c8:	20400121 	subcs	r0, r0, r1, lsr #2
   160cc:	21822123 	orrcs	r2, r2, r3, lsr #2
   160d0:	e15001a1 	cmp	r0, r1, lsr #3
   160d4:	204001a1 	subcs	r0, r0, r1, lsr #3
   160d8:	218221a3 	orrcs	r2, r2, r3, lsr #3
   160dc:	e3500000 	cmp	r0, #0
   160e0:	11b03223 	lsrsne	r3, r3, #4
   160e4:	11a01221 	lsrne	r1, r1, #4
   160e8:	1affffef 	bne	160ac <__aeabi_uidiv+0x58>
   160ec:	e1a00002 	mov	r0, r2
   160f0:	e12fff1e 	bx	lr
   160f4:	03a00001 	moveq	r0, #1
   160f8:	13a00000 	movne	r0, #0
   160fc:	e12fff1e 	bx	lr
   16100:	e3510801 	cmp	r1, #65536	; 0x10000
   16104:	21a01821 	lsrcs	r1, r1, #16
   16108:	23a02010 	movcs	r2, #16
   1610c:	33a02000 	movcc	r2, #0
   16110:	e3510c01 	cmp	r1, #256	; 0x100
   16114:	21a01421 	lsrcs	r1, r1, #8
   16118:	22822008 	addcs	r2, r2, #8
   1611c:	e3510010 	cmp	r1, #16
   16120:	21a01221 	lsrcs	r1, r1, #4
   16124:	22822004 	addcs	r2, r2, #4
   16128:	e3510004 	cmp	r1, #4
   1612c:	82822003 	addhi	r2, r2, #3
   16130:	908220a1 	addls	r2, r2, r1, lsr #1
   16134:	e1a00230 	lsr	r0, r0, r2
   16138:	e12fff1e 	bx	lr
   1613c:	e3500000 	cmp	r0, #0
   16140:	13e00000 	mvnne	r0, #0
   16144:	eaffd123 	b	a5d8 <__aeabi_idiv0>

00016148 <__aeabi_uidivmod>:
   16148:	e3510000 	cmp	r1, #0
   1614c:	0afffffa 	beq	1613c <__aeabi_uidiv+0xe8>
   16150:	e92d4003 	push	{r0, r1, lr}
   16154:	ebffffbe 	bl	16054 <__aeabi_uidiv>
   16158:	e8bd4006 	pop	{r1, r2, lr}
   1615c:	e0030092 	mul	r3, r2, r0
   16160:	e0411003 	sub	r1, r1, r3
   16164:	e12fff1e 	bx	lr

00016168 <__aeabi_uldivmod>:
   16168:	e3530000 	cmp	r3, #0
   1616c:	03520000 	cmpeq	r2, #0
   16170:	1a000004 	bne	16188 <__aeabi_uldivmod+0x20>
   16174:	e3510000 	cmp	r1, #0
   16178:	03500000 	cmpeq	r0, #0
   1617c:	13e01000 	mvnne	r1, #0
   16180:	13e00000 	mvnne	r0, #0
   16184:	eaffd113 	b	a5d8 <__aeabi_idiv0>
   16188:	e24dd008 	sub	sp, sp, #8
   1618c:	e92d6000 	push	{sp, lr}
   16190:	eb000003 	bl	161a4 <__udivmoddi4>
   16194:	e59de004 	ldr	lr, [sp, #4]
   16198:	e28dd008 	add	sp, sp, #8
   1619c:	e8bd000c 	pop	{r2, r3}
   161a0:	e12fff1e 	bx	lr

000161a4 <__udivmoddi4>:
   161a4:	e1510003 	cmp	r1, r3
   161a8:	e92d4ff8 	push	{r3, r4, r5, r6, r7, r8, r9, sl, fp, lr}
   161ac:	01500002 	cmpeq	r0, r2
   161b0:	e1a04000 	mov	r4, r0
   161b4:	e1a05001 	mov	r5, r1
   161b8:	e59da028 	ldr	sl, [sp, #40]	; 0x28
   161bc:	33a00000 	movcc	r0, #0
   161c0:	33a01000 	movcc	r1, #0
   161c4:	3a00003d 	bcc	162c0 <__udivmoddi4+0x11c>
   161c8:	e1a01003 	mov	r1, r3
   161cc:	e1a00002 	mov	r0, r2
   161d0:	e1a08002 	mov	r8, r2
   161d4:	e1a09003 	mov	r9, r3
   161d8:	eb00003c 	bl	162d0 <__clzdi2>
   161dc:	e1a01005 	mov	r1, r5
   161e0:	e1a0b000 	mov	fp, r0
   161e4:	e1a00004 	mov	r0, r4
   161e8:	eb000038 	bl	162d0 <__clzdi2>
   161ec:	e060300b 	rsb	r3, r0, fp
   161f0:	e2432020 	sub	r2, r3, #32
   161f4:	e1a07319 	lsl	r7, r9, r3
   161f8:	e1877218 	orr	r7, r7, r8, lsl r2
   161fc:	e263c020 	rsb	ip, r3, #32
   16200:	e1877c38 	orr	r7, r7, r8, lsr ip
   16204:	e1550007 	cmp	r5, r7
   16208:	e1a06318 	lsl	r6, r8, r3
   1620c:	01540006 	cmpeq	r4, r6
   16210:	33a00000 	movcc	r0, #0
   16214:	33a01000 	movcc	r1, #0
   16218:	3a000005 	bcc	16234 <__udivmoddi4+0x90>
   1621c:	e3a0e001 	mov	lr, #1
   16220:	e0544006 	subs	r4, r4, r6
   16224:	e1a0121e 	lsl	r1, lr, r2
   16228:	e1811c3e 	orr	r1, r1, lr, lsr ip
   1622c:	e0c55007 	sbc	r5, r5, r7
   16230:	e1a0031e 	lsl	r0, lr, r3
   16234:	e3530000 	cmp	r3, #0
   16238:	0a000020 	beq	162c0 <__udivmoddi4+0x11c>
   1623c:	e1b070a7 	lsrs	r7, r7, #1
   16240:	e1a06066 	rrx	r6, r6
   16244:	e1a0e003 	mov	lr, r3
   16248:	ea000007 	b	1626c <__udivmoddi4+0xc8>
   1624c:	e0544006 	subs	r4, r4, r6
   16250:	e0c55007 	sbc	r5, r5, r7
   16254:	e0944004 	adds	r4, r4, r4
   16258:	e0a55005 	adc	r5, r5, r5
   1625c:	e2944001 	adds	r4, r4, #1
   16260:	e2a55000 	adc	r5, r5, #0
   16264:	e25ee001 	subs	lr, lr, #1
   16268:	0a000006 	beq	16288 <__udivmoddi4+0xe4>
   1626c:	e1550007 	cmp	r5, r7
   16270:	01540006 	cmpeq	r4, r6
   16274:	2afffff4 	bcs	1624c <__udivmoddi4+0xa8>
   16278:	e0944004 	adds	r4, r4, r4
   1627c:	e0a55005 	adc	r5, r5, r5
   16280:	e25ee001 	subs	lr, lr, #1
   16284:	1afffff8 	bne	1626c <__udivmoddi4+0xc8>
   16288:	e1a0e334 	lsr	lr, r4, r3
   1628c:	e18eec15 	orr	lr, lr, r5, lsl ip
   16290:	e18ee235 	orr	lr, lr, r5, lsr r2
   16294:	e0906004 	adds	r6, r0, r4
   16298:	e1a0400e 	mov	r4, lr
   1629c:	e0a17005 	adc	r7, r1, r5
   162a0:	e1a01335 	lsr	r1, r5, r3
   162a4:	e1a05001 	mov	r5, r1
   162a8:	e1a01311 	lsl	r1, r1, r3
   162ac:	e181121e 	orr	r1, r1, lr, lsl r2
   162b0:	e1a0031e 	lsl	r0, lr, r3
   162b4:	e1811c3e 	orr	r1, r1, lr, lsr ip
   162b8:	e0560000 	subs	r0, r6, r0
   162bc:	e0c71001 	sbc	r1, r7, r1
   162c0:	e35a0000 	cmp	sl, #0
   162c4:	188a0030 	stmne	sl, {r4, r5}
   162c8:	e8bd4ff8 	pop	{r3, r4, r5, r6, r7, r8, r9, sl, fp, lr}
   162cc:	e12fff1e 	bx	lr

000162d0 <__clzdi2>:
   162d0:	e92d4010 	push	{r4, lr}
   162d4:	e3510000 	cmp	r1, #0
   162d8:	1a000002 	bne	162e8 <__clzdi2+0x18>
   162dc:	eb000005 	bl	162f8 <__clzsi2>
   162e0:	e2800020 	add	r0, r0, #32
   162e4:	ea000001 	b	162f0 <__clzdi2+0x20>
   162e8:	e1a00001 	mov	r0, r1
   162ec:	eb000001 	bl	162f8 <__clzsi2>
   162f0:	e8bd4010 	pop	{r4, lr}
   162f4:	e12fff1e 	bx	lr

000162f8 <__clzsi2>:
   162f8:	e3a0101c 	mov	r1, #28
   162fc:	e3500801 	cmp	r0, #65536	; 0x10000
   16300:	21a00820 	lsrcs	r0, r0, #16
   16304:	22411010 	subcs	r1, r1, #16
   16308:	e3500c01 	cmp	r0, #256	; 0x100
   1630c:	21a00420 	lsrcs	r0, r0, #8
   16310:	22411008 	subcs	r1, r1, #8
   16314:	e3500010 	cmp	r0, #16
   16318:	21a00220 	lsrcs	r0, r0, #4
   1631c:	22411004 	subcs	r1, r1, #4
   16320:	e28f2008 	add	r2, pc, #8
   16324:	e7d20000 	ldrb	r0, [r2, r0]
   16328:	e0800001 	add	r0, r0, r1
   1632c:	e12fff1e 	bx	lr
   16330:	02020304 	andeq	r0, r2, #4, 6	; 0x10000000
   16334:	01010101 	tsteq	r1, r1, lsl #2
	...

Disassembly of section .rodata:

00016340 <.rodata>:
   16340:	41200000 			; <UNDEFINED> instruction: 0x41200000
   16344:	41200000 			; <UNDEFINED> instruction: 0x41200000
   16348:	00000000 	andeq	r0, r0, r0
   1634c:	58203047 	stmdapl	r0!, {r0, r1, r2, r6, ip, sp}
   16350:	59203031 	stmdbpl	r0!, {r0, r4, r5, ip, sp}
   16354:	47003031 	smladxmi	r0, r1, r0, r3
   16358:	33582031 	cmpcc	r8, #49	; 0x31
   1635c:	31592035 	cmpcc	r9, r5, lsr r0
   16360:	31470030 	cmpcc	r7, r0, lsr r0
   16364:	30315820 	eorscc	r5, r1, r0, lsr #16
   16368:	30315920 	eorscc	r5, r1, r0, lsr #18
   1636c:	20314700 	eorscs	r4, r1, r0, lsl #14
   16370:	20303158 	eorscs	r3, r0, r8, asr r1
   16374:	00353359 	eorseq	r3, r5, r9, asr r3
   16378:	58203147 	stmdapl	r0!, {r0, r1, r2, r6, r8, ip, sp}
   1637c:	59203533 	stmdbpl	r0!, {r0, r1, r4, r5, r8, sl, ip, sp}
   16380:	47003533 	smladxmi	r0, r3, r5, r3
   16384:	31582031 	cmpcc	r8, r1, lsr r0
   16388:	33592030 	cmpcc	r9, #48	; 0x30
   1638c:	31470035 	cmpcc	r7, r5, lsr r0
   16390:	30315820 	eorscc	r5, r1, r0, lsr #16
   16394:	30365920 	eorscc	r5, r6, r0, lsr #18
   16398:	20314700 	eorscs	r4, r1, r0, lsl #14
   1639c:	20303758 	eorscs	r3, r0, r8, asr r7
   163a0:	00303659 	eorseq	r3, r0, r9, asr r6
   163a4:	58203347 	stmdapl	r0!, {r0, r1, r2, r6, r8, r9, ip, sp}
   163a8:	59203037 	stmdbpl	r0!, {r0, r1, r2, r4, r5, ip, sp}
   163ac:	52203031 	eorpl	r3, r0, #49	; 0x31
   163b0:	47003532 	smladxmi	r0, r2, r5, r3
   163b4:	31582031 	cmpcc	r8, r1, lsr r0
   163b8:	59203530 	stmdbpl	r0!, {r4, r5, r8, sl, ip, sp}
   163bc:	47003031 	smladxmi	r0, r1, r0, r3
   163c0:	38582031 	ldmdacc	r8, {r0, r4, r5, sp}^
   163c4:	31592030 	cmpcc	r9, r0, lsr r0
   163c8:	31470030 	cmpcc	r7, r0, lsr r0
   163cc:	30385820 	eorscc	r5, r8, r0, lsr #16
   163d0:	35335920 	ldrcc	r5, [r3, #-2336]!	; 0xfffff6e0
   163d4:	20314700 	eorscs	r4, r1, r0, lsl #14
   163d8:	35303158 	ldrcc	r3, [r0, #-344]!	; 0xfffffea8
   163dc:	35335920 	ldrcc	r5, [r3, #-2336]!	; 0xfffff6e0
   163e0:	20314700 	eorscs	r4, r1, r0, lsl #14
   163e4:	20303858 	eorscs	r3, r0, r8, asr r8
   163e8:	00353359 	eorseq	r3, r5, r9, asr r3
   163ec:	58203147 	stmdapl	r0!, {r0, r1, r2, r6, r8, ip, sp}
   163f0:	59203038 	stmdbpl	r0!, {r3, r4, r5, ip, sp}
   163f4:	47003036 	smladxmi	r0, r6, r0, r3
   163f8:	31582031 	cmpcc	r8, r1, lsr r0
   163fc:	59203530 	stmdbpl	r0!, {r4, r5, r8, sl, ip, sp}
   16400:	65003036 	strvs	r3, [r0, #-54]	; 0xffffffca
   16404:	0000666f 	andeq	r6, r0, pc, ror #12
   16408:	20303047 	eorscs	r3, r0, r7, asr #32
   1640c:	20303558 	eorscs	r3, r0, r8, asr r5
   16410:	00303559 	eorseq	r3, r0, r9, asr r5
   16414:	20333047 	eorscs	r3, r3, r7, asr #32
   16418:	20303958 	eorscs	r3, r0, r8, asr r9
   1641c:	20303559 	eorscs	r3, r0, r9, asr r5
   16420:	00303252 	eorseq	r3, r0, r2, asr r2
   16424:	00666f65 	rsbeq	r6, r6, r5, ror #30
   16428:	20303047 	eorscs	r3, r0, r7, asr #32
   1642c:	20303258 	eorscs	r3, r0, r8, asr r2
   16430:	00303159 	eorseq	r3, r0, r9, asr r1
   16434:	20313047 	eorscs	r3, r1, r7, asr #32
   16438:	20303458 	eorscs	r3, r0, r8, asr r4
   1643c:	20303459 	eorscs	r3, r0, r9, asr r4
   16440:	47003146 	strmi	r3, [r0, -r6, asr #2]
   16444:	58203130 	stmdapl	r0!, {r4, r5, r8, ip, sp}
   16448:	59203036 	stmdbpl	r0!, {r1, r2, r4, r5, ip, sp}
   1644c:	46203034 			; <UNDEFINED> instruction: 0x46203034
   16450:	30470031 	subcc	r0, r7, r1, lsr r0
   16454:	36582031 			; <UNDEFINED> instruction: 0x36582031
   16458:	36592030 			; <UNDEFINED> instruction: 0x36592030
   1645c:	31462030 	cmpcc	r6, r0, lsr r0
   16460:	666f6500 	strbtvs	r6, [pc], -r0, lsl #10
	...

Disassembly of section .rodata.str1.4:

00016468 <.rodata.str1.4>:
   16468:	2d2d2d0a 	stccs	13, cr2, [sp, #-40]!	; 0xffffffd8
   1646c:	2d2d2d2d 	stccs	13, cr2, [sp, #-180]!	; 0xffffff4c
   16470:	2d2d2d2d 	stccs	13, cr2, [sp, #-180]!	; 0xffffff4c
   16474:	2d2d2d2d 	stccs	13, cr2, [sp, #-180]!	; 0xffffff4c
   16478:	00002d2d 	andeq	r2, r0, sp, lsr #26
   1647c:	72617453 	rsbvc	r7, r1, #1392508928	; 0x53000000
   16480:	676e6974 			; <UNDEFINED> instruction: 0x676e6974
   16484:	746e4920 	strbtvc	r4, [lr], #-2336	; 0xfffff6e0
   16488:	61667265 	cmnvs	r6, r5, ror #4
   1648c:	43206563 			; <UNDEFINED> instruction: 0x43206563
   16490:	0065726f 	rsbeq	r7, r5, pc, ror #4
   16494:	00007325 	andeq	r7, r0, r5, lsr #6
   16498:	72617453 	rsbvc	r7, r1, #1392508928	; 0x53000000
   1649c:	676e6974 			; <UNDEFINED> instruction: 0x676e6974
   164a0:	74617020 	strbtvc	r7, [r1], #-32	; 0xffffffe0
   164a4:	6c702068 	ldclvs	0, cr2, [r0], #-416	; 0xfffffe60
   164a8:	656e6e61 	strbvs	r6, [lr, #-3681]!	; 0xfffff19f
   164ac:	00000072 	andeq	r0, r0, r2, ror r0
   164b0:	74746553 	ldrbtvc	r6, [r4], #-1363	; 0xfffffaad
   164b4:	20676e69 	rsbcs	r6, r7, r9, ror #28
   164b8:	6f6d6564 	svcvs	0x006d6564
   164bc:	00003320 	andeq	r3, r0, r0, lsr #6
   164c0:	61656c50 	cmnvs	r5, r0, asr ip
   164c4:	73206573 			; <UNDEFINED> instruction: 0x73206573
   164c8:	63656c65 	cmnvs	r5, #25856	; 0x6500
   164cc:	20612074 	rsbcs	r2, r1, r4, ror r0
   164d0:	6f6d6564 	svcvs	0x006d6564
   164d4:	20796220 	rsbscs	r6, r9, r0, lsr #4
   164d8:	65746e65 	ldrbvs	r6, [r4, #-3685]!	; 0xfffff19b
   164dc:	676e6972 			; <UNDEFINED> instruction: 0x676e6972
   164e0:	5b642420 	blpl	191f568 <errno+0x18ffd34>
   164e4:	00005d6e 	andeq	r5, r0, lr, ror #26
   164e8:	6f6d6564 	svcvs	0x006d6564
   164ec:	0a642520 	beq	191f974 <errno+0x1900140>
   164f0:	00000000 	andeq	r0, r0, r0
   164f4:	202c6425 	eorcs	r6, ip, r5, lsr #8
   164f8:	000a6425 	andeq	r6, sl, r5, lsr #8
   164fc:	6c637943 	stclvs	9, cr7, [r3], #-268	; 0xfffffef4
   16500:	74732065 	ldrbtvc	r2, [r3], #-101	; 0xffffff9b
   16504:	00747261 	rsbseq	r7, r4, r1, ror #4
   16508:	676f7250 			; <UNDEFINED> instruction: 0x676f7250
   1650c:	206d6172 	rsbcs	r6, sp, r2, ror r1
   16510:	52206f54 	eorpl	r6, r0, #84, 30	; 0x150
   16514:	003a6e75 	eorseq	r6, sl, r5, ror lr
   16518:	00666f65 	rsbeq	r6, r6, r5, ror #30
   1651c:	3d3d3d0a 	ldccc	13, cr3, [sp, #-40]!	; 0xffffffd8
   16520:	3d3d3d3d 	ldccc	13, cr3, [sp, #-244]!	; 0xffffff0c
   16524:	0000003d 	andeq	r0, r0, sp, lsr r0
   16528:	73207441 			; <UNDEFINED> instruction: 0x73207441
   1652c:	74726174 	ldrbtvc	r6, [r2], #-372	; 0xfffffe8c
   16530:	20676e69 	rsbcs	r6, r7, r9, ror #28
   16534:	69736f70 	ldmdbvs	r3!, {r4, r5, r6, r8, r9, sl, fp, sp, lr}^
   16538:	6e6f6974 	mcrvs	9, 3, r6, cr15, cr4, {3}
   1653c:	66252820 	strtvs	r2, [r5], -r0, lsr #16
   16540:	6625202c 	strtvs	r2, [r5], -ip, lsr #32
   16544:	00000a29 	andeq	r0, r0, r9, lsr #20
   16548:	72696557 	rsbvc	r6, r9, #364904448	; 0x15c00000
   1654c:	2e2e2e64 	cdpcs	14, 2, cr2, cr14, cr4, {3}
   16550:	74204920 	strtvc	r4, [r0], #-2336	; 0xfffff6e0
   16554:	67756f68 	ldrbvs	r6, [r5, -r8, ror #30]!
   16558:	74207468 	strtvc	r7, [r0], #-1128	; 0xfffffb98
   1655c:	20736968 	rsbscs	r6, r3, r8, ror #18
   16560:	6c756f77 	ldclvs	15, cr6, [r5], #-476	; 0xfffffe24
   16564:	61682064 	cmnvs	r8, r4, rrx
   16568:	62206576 	eorvs	r6, r0, #494927872	; 0x1d800000
   1656c:	206e6565 	rsbcs	r6, lr, r5, ror #10
   16570:	67756163 	ldrbvs	r6, [r5, -r3, ror #2]!
   16574:	65207468 	strvs	r7, [r0, #-1128]!	; 0xfffffb98
   16578:	696c7261 	stmdbvs	ip!, {r0, r5, r6, r9, ip, sp, lr}^
   1657c:	203a7265 	eorscs	r7, sl, r5, ror #4
   16580:	000a6425 	andeq	r6, sl, r5, lsr #8
   16584:	656e6f44 	strbvs	r6, [lr, #-3908]!	; 0xfffff0bc
   16588:	00000000 	andeq	r0, r0, r0
   1658c:	65736552 	ldrbvs	r6, [r3, #-1362]!	; 0xfffffaae
   16590:	00000074 	andeq	r0, r0, r4, ror r0
   16594:	72617453 	rsbvc	r7, r1, #1392508928	; 0x53000000
   16598:	6f682074 	svcvs	0x00682074
   1659c:	676e696d 	strbvs	r6, [lr, -sp, ror #18]!
   165a0:	69786120 	ldmdbvs	r8!, {r5, r8, sp, lr}^
   165a4:	64252073 	strtvs	r2, [r5], #-115	; 0xffffff8d
   165a8:	0000000a 	andeq	r0, r0, sl
   165ac:	73697841 	cmnvc	r9, #4259840	; 0x410000
   165b0:	20642520 	rsbcs	r2, r4, r0, lsr #10
   165b4:	7366666f 	cmnvc	r6, #116391936	; 0x6f00000
   165b8:	69207465 	stmdbvs	r0!, {r0, r2, r5, r6, sl, ip, sp, lr}
   165bc:	66252073 			; <UNDEFINED> instruction: 0x66252073
   165c0:	0000000a 	andeq	r0, r0, sl
   165c4:	48544f4e 	ldmdami	r4, {r1, r2, r3, r6, r8, r9, sl, fp, lr}^
   165c8:	20474e49 	subcs	r4, r7, r9, asr #28
   165cc:	5446454c 	strbpl	r4, [r6], #-1356	; 0xfffffab4
   165d0:	204f5420 	subcs	r5, pc, r0, lsr #8
   165d4:	00504f50 	subseq	r4, r0, r0, asr pc
   165d8:	54415453 	strbpl	r5, [r1], #-1107	; 0xfffffbad
   165dc:	425f5355 	subsmi	r5, pc, #1409286145	; 0x54000001
   165e0:	4e5f4441 	cdpmi	4, 5, cr4, cr15, cr1, {2}
   165e4:	45424d55 	strbmi	r4, [r2, #-3413]	; 0xfffff2ab
   165e8:	4f465f52 	svcmi	0x00465f52
   165ec:	54414d52 	strbpl	r4, [r1], #-3410	; 0xfffff2ae
   165f0:	00000000 	andeq	r0, r0, r0
   165f4:	64206557 	strtvs	r6, [r0], #-1367	; 0xfffffaa9
   165f8:	6f6e206f 	svcvs	0x006e206f
   165fc:	75732074 	ldrbvc	r2, [r3, #-116]!	; 0xffffff8c
   16600:	726f7070 	rsbvc	r7, pc, #112	; 0x70
   16604:	25472074 	strbcs	r2, [r7, #-116]	; 0xffffff8c
   16608:	6f632069 	svcvs	0x00632069
   1660c:	2e736564 	cdpcs	5, 7, cr6, cr3, cr4, {3}
   16610:	726f5320 	rsbvc	r5, pc, #32, 6	; 0x80000000
   16614:	202c7972 	eorcs	r7, ip, r2, ror r9
   16618:	20797274 	rsbscs	r7, r9, r4, ror r2
   1661c:	69616761 	stmdbvs	r1!, {r0, r5, r6, r8, r9, sl, sp, lr}^
   16620:	656e206e 	strbvs	r2, [lr, #-110]!	; 0xffffff92
   16624:	73207478 			; <UNDEFINED> instruction: 0x73207478
   16628:	73656d65 	cmnvc	r5, #6464	; 0x1940
   1662c:	2e726574 	mrccs	5, 3, r6, cr2, cr4, {3}
   16630:	0000000a 	andeq	r0, r0, sl
   16634:	6e646944 	cdpvs	9, 6, cr6, cr4, cr4, {2}
   16638:	6b207427 	blvs	8336dc <errno+0x813ea8>
   1663c:	20776f6e 	rsbscs	r6, r7, lr, ror #30
   16640:	74616877 	strbtvc	r6, [r1], #-2167	; 0xfffff789
   16644:	206f7420 	rsbcs	r7, pc, r0, lsr #8
   16648:	77206f64 	strvc	r6, [r0, -r4, ror #30]!
   1664c:	20687469 	rsbcs	r7, r8, r9, ror #8
   16650:	7474656c 	ldrbtvc	r6, [r4], #-1388	; 0xfffffa94
   16654:	27207265 	strcs	r7, [r0, -r5, ror #4]!
   16658:	2e276325 	cdpcs	3, 2, cr6, cr7, cr5, {1}
   1665c:	0000000a 	andeq	r0, r0, sl
   16660:	4c494146 	stfmie	f4, [r9], {70}	; 0x46
   16664:	7325203a 			; <UNDEFINED> instruction: 0x7325203a
   16668:	0000000a 	andeq	r0, r0, sl
   1666c:	00464e49 	subeq	r4, r6, r9, asr #28
   16670:	00666e69 	rsbeq	r6, r6, r9, ror #28
   16674:	004e414e 	subeq	r4, lr, lr, asr #2
   16678:	006e616e 	rsbeq	r6, lr, lr, ror #2
   1667c:	33323130 	teqcc	r2, #48, 2
   16680:	37363534 			; <UNDEFINED> instruction: 0x37363534
   16684:	42413938 	submi	r3, r1, #56, 18	; 0xe0000
   16688:	46454443 	strbmi	r4, [r5], -r3, asr #8
   1668c:	00000000 	andeq	r0, r0, r0
   16690:	33323130 	teqcc	r2, #48, 2
   16694:	37363534 			; <UNDEFINED> instruction: 0x37363534
   16698:	62613938 	rsbvs	r3, r1, #56, 18	; 0xe0000
   1669c:	66656463 	strbtvs	r6, [r5], -r3, ror #8
   166a0:	00000000 	andeq	r0, r0, r0
   166a4:	6c756e28 	ldclvs	14, cr6, [r5], #-160	; 0xffffff60
   166a8:	0000296c 	andeq	r2, r0, ip, ror #18
   166ac:	00000030 	andeq	r0, r0, r0, lsr r0
   166b0:	69666e49 	stmdbvs	r6!, {r0, r3, r6, r9, sl, fp, sp, lr}^
   166b4:	7974696e 	ldmdbvc	r4!, {r1, r2, r3, r5, r6, r8, fp, sp, lr}^
   166b8:	00000000 	andeq	r0, r0, r0
   166bc:	004e614e 	subeq	r6, lr, lr, asr #2
   166c0:	00000043 	andeq	r0, r0, r3, asr #32
   166c4:	49534f50 	ldmdbmi	r3, {r4, r6, r8, r9, sl, fp, lr}^
   166c8:	00000058 	andeq	r0, r0, r8, asr r0
   166cc:	0000002e 	andeq	r0, r0, lr, lsr #32
   166d0:	6e697361 	cdpvs	3, 6, cr7, cr9, cr1, {3}
   166d4:	00000000 	andeq	r0, r0, r0
   166d8:	74727173 	ldrbtvc	r7, [r2], #-371	; 0xfffffe8d
   166dc:	00000000 	andeq	r0, r0, r0

Disassembly of section .rodata._global_impure_ptr:

000166e0 <_global_impure_ptr>:
   166e0:	00016b90 	muleq	r1, r0, fp

Disassembly of section .rodata.zeroes.7273:

000166e4 <zeroes.7273>:
   166e4:	30303030 	eorscc	r3, r0, r0, lsr r0
   166e8:	30303030 	eorscc	r3, r0, r0, lsr r0
   166ec:	30303030 	eorscc	r3, r0, r0, lsr r0
   166f0:	30303030 	eorscc	r3, r0, r0, lsr r0

Disassembly of section .rodata.blanks.7272:

000166f4 <blanks.7272>:
   166f4:	20202020 	eorcs	r2, r0, r0, lsr #32
   166f8:	20202020 	eorcs	r2, r0, r0, lsr #32
   166fc:	20202020 	eorcs	r2, r0, r0, lsr #32
   16700:	20202020 	eorcs	r2, r0, r0, lsr #32

Disassembly of section .rodata.__mprec_tens:

00016708 <__mprec_tens>:
   16708:	00000000 	andeq	r0, r0, r0
   1670c:	3ff00000 	svccc	0x00f00000	; IMB
   16710:	00000000 	andeq	r0, r0, r0
   16714:	40240000 	eormi	r0, r4, r0
   16718:	00000000 	andeq	r0, r0, r0
   1671c:	40590000 	subsmi	r0, r9, r0
   16720:	00000000 	andeq	r0, r0, r0
   16724:	408f4000 	addmi	r4, pc, r0
   16728:	00000000 	andeq	r0, r0, r0
   1672c:	40c38800 	sbcmi	r8, r3, r0, lsl #16
   16730:	00000000 	andeq	r0, r0, r0
   16734:	40f86a00 	rscsmi	r6, r8, r0, lsl #20
   16738:	00000000 	andeq	r0, r0, r0
   1673c:	412e8480 	smlawbmi	lr, r0, r4, r8
   16740:	00000000 	andeq	r0, r0, r0
   16744:	416312d0 	ldrdmi	r1, [r3, #-32]!	; 0xffffffe0
   16748:	00000000 	andeq	r0, r0, r0
   1674c:	4197d784 	orrsmi	sp, r7, r4, lsl #15
   16750:	00000000 	andeq	r0, r0, r0
   16754:	41cdcd65 	bicmi	ip, sp, r5, ror #26
   16758:	20000000 	andcs	r0, r0, r0
   1675c:	4202a05f 	andmi	sl, r2, #95	; 0x5f
   16760:	e8000000 	stmda	r0, {}	; <UNPREDICTABLE>
   16764:	42374876 	eorsmi	r4, r7, #7733248	; 0x760000
   16768:	a2000000 	andge	r0, r0, #0
   1676c:	426d1a94 	rsbmi	r1, sp, #148, 20	; 0x94000
   16770:	e5400000 	strb	r0, [r0, #-0]
   16774:	42a2309c 	adcmi	r3, r2, #156	; 0x9c
   16778:	1e900000 	cdpne	0, 9, cr0, cr0, cr0, {0}
   1677c:	42d6bcc4 	sbcsmi	fp, r6, #196, 24	; 0xc400
   16780:	26340000 	ldrtcs	r0, [r4], -r0
   16784:	430c6bf5 	movwmi	r6, #52213	; 0xcbf5
   16788:	37e08000 	strbcc	r8, [r0, r0]!
   1678c:	4341c379 	movtmi	ip, #4985	; 0x1379
   16790:	85d8a000 	ldrbhi	sl, [r8]
   16794:	43763457 	cmnmi	r6, #1459617792	; 0x57000000
   16798:	674ec800 	strbvs	ip, [lr, -r0, lsl #16]
   1679c:	43abc16d 			; <UNDEFINED> instruction: 0x43abc16d
   167a0:	60913d00 	addsvs	r3, r1, r0, lsl #26
   167a4:	43e158e4 	mvnmi	r5, #228, 16	; 0xe40000
   167a8:	78b58c40 	ldmvc	r5!, {r6, sl, fp, pc}
   167ac:	4415af1d 	ldrmi	sl, [r5], #-3869	; 0xfffff0e3
   167b0:	d6e2ef50 	usatle	lr, #2, r0, asr #30
   167b4:	444b1ae4 	strbmi	r1, [fp], #-2788	; 0xfffff51c
   167b8:	064dd592 			; <UNDEFINED> instruction: 0x064dd592
   167bc:	4480f0cf 	strmi	pc, [r0], #207	; 0xcf
   167c0:	c7e14af6 			; <UNDEFINED> instruction: 0xc7e14af6
   167c4:	44b52d02 	ldrtmi	r2, [r5], #3330	; 0xd02
   167c8:	79d99db4 	ldmibvc	r9, {r2, r4, r5, r7, r8, sl, fp, ip, pc}^
   167cc:	44ea7843 	strbtmi	r7, [sl], #2115	; 0x843

Disassembly of section .rodata.__mprec_bigtens:

000167d0 <__mprec_bigtens>:
   167d0:	37e08000 	strbcc	r8, [r0, r0]!
   167d4:	4341c379 	movtmi	ip, #4985	; 0x1379
   167d8:	b5056e17 	strlt	r6, [r5, #-3607]	; 0xfffff1e9
   167dc:	4693b8b5 			; <UNDEFINED> instruction: 0x4693b8b5
   167e0:	e93ff9f5 	ldmdb	pc!, {r0, r2, r4, r5, r6, r7, r8, fp, ip, sp, lr, pc}	; <UNPREDICTABLE>
   167e4:	4d384f03 	ldcmi	15, cr4, [r8, #-12]!
   167e8:	f9301d32 			; <UNDEFINED> instruction: 0xf9301d32
   167ec:	5a827748 	bpl	fe0b4514 <errno+0xfe094ce0>
   167f0:	7f73bf3c 	svcvc	0x0073bf3c
   167f4:	75154fdd 	ldrvc	r4, [r5, #-4061]	; 0xfffff023

Disassembly of section .rodata.p05.6087:

000167f8 <p05.6087>:
   167f8:	00000005 	andeq	r0, r0, r5
   167fc:	00000019 	andeq	r0, r0, r9, lsl r0
   16800:	0000007d 	andeq	r0, r0, sp, ror r0

Disassembly of section .rodata.__mprec_tinytens:

00016808 <__mprec_tinytens>:
   16808:	97d889bc 			; <UNDEFINED> instruction: 0x97d889bc
   1680c:	3c9cd2b2 	lfmcc	f5, 1, [ip], {178}	; 0xb2
   16810:	d5a8a733 	strle	sl, [r8, #1843]!	; 0x733
   16814:	3949f623 	stmdbcc	r9, {r0, r1, r5, r9, sl, ip, sp, lr, pc}^
   16818:	44f4a73d 	ldrbtmi	sl, [r4], #1853	; 0x73d
   1681c:	32a50ffd 	adccc	r0, r5, #1012	; 0x3f4
   16820:	cf8c979d 	svcgt	0x008c979d
   16824:	255bba08 	ldrbcs	fp, [fp, #-2568]	; 0xfffff5f8
   16828:	64ac6f43 	strtvs	r6, [ip], #3907	; 0xf43
   1682c:	0ac80628 	beq	ff2180d4 <errno+0xff1f88a0>

Disassembly of section .rodata.zeroes.7252:

00016830 <zeroes.7252>:
   16830:	30303030 	eorscc	r3, r0, r0, lsr r0
   16834:	30303030 	eorscc	r3, r0, r0, lsr r0
   16838:	30303030 	eorscc	r3, r0, r0, lsr r0
   1683c:	30303030 	eorscc	r3, r0, r0, lsr r0

Disassembly of section .rodata.blanks.7251:

00016840 <blanks.7251>:
   16840:	20202020 	eorcs	r2, r0, r0, lsr #32
   16844:	20202020 	eorcs	r2, r0, r0, lsr #32
   16848:	20202020 	eorcs	r2, r0, r0, lsr #32
   1684c:	20202020 	eorcs	r2, r0, r0, lsr #32

Disassembly of section .rodata._ctype_:

00016850 <_ctype_>:
   16850:	20202000 	eorcs	r2, r0, r0
   16854:	20202020 	eorcs	r2, r0, r0, lsr #32
   16858:	28282020 	stmdacs	r8!, {r5, sp}
   1685c:	20282828 	eorcs	r2, r8, r8, lsr #16
   16860:	20202020 	eorcs	r2, r0, r0, lsr #32
   16864:	20202020 	eorcs	r2, r0, r0, lsr #32
   16868:	20202020 	eorcs	r2, r0, r0, lsr #32
   1686c:	20202020 	eorcs	r2, r0, r0, lsr #32
   16870:	10108820 	andsne	r8, r0, r0, lsr #16
   16874:	10101010 	andsne	r1, r0, r0, lsl r0
   16878:	10101010 	andsne	r1, r0, r0, lsl r0
   1687c:	10101010 	andsne	r1, r0, r0, lsl r0
   16880:	04040410 	streq	r0, [r4], #-1040	; 0xfffffbf0
   16884:	04040404 	streq	r0, [r4], #-1028	; 0xfffffbfc
   16888:	10040404 	andne	r0, r4, r4, lsl #8
   1688c:	10101010 	andsne	r1, r0, r0, lsl r0
   16890:	41411010 	cmpmi	r1, r0, lsl r0
   16894:	41414141 	cmpmi	r1, r1, asr #2
   16898:	01010101 	tsteq	r1, r1, lsl #2
   1689c:	01010101 	tsteq	r1, r1, lsl #2
   168a0:	01010101 	tsteq	r1, r1, lsl #2
   168a4:	01010101 	tsteq	r1, r1, lsl #2
   168a8:	01010101 	tsteq	r1, r1, lsl #2
   168ac:	10101010 	andsne	r1, r0, r0, lsl r0
   168b0:	42421010 	submi	r1, r2, #16
   168b4:	42424242 	submi	r4, r2, #536870916	; 0x20000004
   168b8:	02020202 	andeq	r0, r2, #536870912	; 0x20000000
   168bc:	02020202 	andeq	r0, r2, #536870912	; 0x20000000
   168c0:	02020202 	andeq	r0, r2, #536870912	; 0x20000000
   168c4:	02020202 	andeq	r0, r2, #536870912	; 0x20000000
   168c8:	02020202 	andeq	r0, r2, #536870912	; 0x20000000
   168cc:	10101010 	andsne	r1, r0, r0, lsl r0
   168d0:	00000020 	andeq	r0, r0, r0, lsr #32
	...

Disassembly of section .rodata.npio2_hw:

00016954 <npio2_hw>:
   16954:	3ff921fb 	svccc	0x00f921fb
   16958:	400921fb 	strdmi	r2, [r9], -fp
   1695c:	4012d97c 	andsmi	sp, r2, ip, ror r9
   16960:	401921fb 			; <UNDEFINED> instruction: 0x401921fb
   16964:	401f6a7a 	andsmi	r6, pc, sl, ror sl	; <UNPREDICTABLE>
   16968:	4022d97c 	eormi	sp, r2, ip, ror r9
   1696c:	4025fdbb 	strhtmi	pc, [r5], -fp	; <UNPREDICTABLE>
   16970:	402921fb 	strdmi	r2, [r9], -fp	; <UNPREDICTABLE>
   16974:	402c463a 	eormi	r4, ip, sl, lsr r6
   16978:	402f6a7a 	eormi	r6, pc, sl, ror sl	; <UNPREDICTABLE>
   1697c:	4031475c 	eorsmi	r4, r1, ip, asr r7
   16980:	4032d97c 	eorsmi	sp, r2, ip, ror r9
   16984:	40346b9c 	mlasmi	r4, ip, fp, r6
   16988:	4035fdbb 	ldrhtmi	pc, [r5], -fp	; <UNPREDICTABLE>
   1698c:	40378fdb 	ldrsbtmi	r8, [r7], -fp
   16990:	403921fb 	ldrshtmi	r2, [r9], -fp
   16994:	403ab41b 	eorsmi	fp, sl, fp, lsl r4
   16998:	403c463a 	eorsmi	r4, ip, sl, lsr r6
   1699c:	403dd85a 	eorsmi	sp, sp, sl, asr r8
   169a0:	403f6a7a 	eorsmi	r6, pc, sl, ror sl	; <UNPREDICTABLE>
   169a4:	40407e4c 	submi	r7, r0, ip, asr #28
   169a8:	4041475c 	submi	r4, r1, ip, asr r7
   169ac:	4042106c 	submi	r1, r2, ip, rrx
   169b0:	4042d97c 	submi	sp, r2, ip, ror r9
   169b4:	4043a28c 	submi	sl, r3, ip, lsl #5
   169b8:	40446b9c 	umaalmi	r6, r4, ip, fp
   169bc:	404534ac 	submi	r3, r5, ip, lsr #9
   169c0:	4045fdbb 	strhmi	pc, [r5], #-219	; 0xffffff25	; <UNPREDICTABLE>
   169c4:	4046c6cb 	submi	ip, r6, fp, asr #13
   169c8:	40478fdb 	ldrdmi	r8, [r7], #-251	; 0xffffff05
   169cc:	404858eb 	submi	r5, r8, fp, ror #17
   169d0:	404921fb 	strdmi	r2, [r9], #-27	; 0xffffffe5

Disassembly of section .rodata.two_over_pi:

000169d4 <two_over_pi>:
   169d4:	00a2f983 	adceq	pc, r2, r3, lsl #19
   169d8:	006e4e44 	rsbeq	r4, lr, r4, asr #28
   169dc:	001529fc 			; <UNDEFINED> instruction: 0x001529fc
   169e0:	002757d1 	ldrdeq	r5, [r7], -r1	; <UNPREDICTABLE>
   169e4:	00f534dd 	ldrsbteq	r3, [r5], #77	; 0x4d
   169e8:	00c0db62 	sbceq	sp, r0, r2, ror #22
   169ec:	0095993c 	addseq	r9, r5, ip, lsr r9
   169f0:	00439041 	subeq	r9, r3, r1, asr #32
   169f4:	00fe5163 	rscseq	r5, lr, r3, ror #2
   169f8:	00abdebb 	strhteq	sp, [fp], fp
   169fc:	00c561b7 	strheq	r6, [r5], #23
   16a00:	00246e3a 	eoreq	r6, r4, sl, lsr lr
   16a04:	00424dd2 	ldrdeq	r4, [r2], #-210	; 0xffffff2e
   16a08:	00e00649 	rsceq	r0, r0, r9, asr #12
   16a0c:	002eea09 	eoreq	lr, lr, r9, lsl #20
   16a10:	00d1921c 	sbcseq	r9, r1, ip, lsl r2
   16a14:	00fe1deb 	rscseq	r1, lr, fp, ror #27
   16a18:	001cb129 	andseq	fp, ip, r9, lsr #2
   16a1c:	00a73ee8 	adceq	r3, r7, r8, ror #29
   16a20:	008235f5 	strdeq	r3, [r2], r5
   16a24:	002ebb44 	eoreq	fp, lr, r4, asr #22
   16a28:	0084e99c 	umulleq	lr, r4, ip, r9
   16a2c:	007026b4 	ldrhteq	r2, [r0], #-100	; 0xffffff9c
   16a30:	005f7e41 	subseq	r7, pc, r1, asr #28
   16a34:	003991d6 	ldrsbteq	r9, [r9], -r6
   16a38:	00398353 	eorseq	r8, r9, r3, asr r3
   16a3c:	0039f49c 	mlaseq	r9, ip, r4, pc	; <UNPREDICTABLE>
   16a40:	00845f8b 	addeq	r5, r4, fp, lsl #31
   16a44:	00bdf928 	adcseq	pc, sp, r8, lsr #18
   16a48:	003b1ff8 	ldrshteq	r1, [fp], -r8
   16a4c:	0097ffde 			; <UNDEFINED> instruction: 0x0097ffde
   16a50:	0005980f 	andeq	r9, r5, pc, lsl #16
   16a54:	00ef2f11 	rsceq	r2, pc, r1, lsl pc	; <UNPREDICTABLE>
   16a58:	008b5a0a 	addeq	r5, fp, sl, lsl #20
   16a5c:	006d1f6d 	rsbeq	r1, sp, sp, ror #30
   16a60:	00367ecf 	eorseq	r7, r6, pc, asr #29
   16a64:	0027cb09 	eoreq	ip, r7, r9, lsl #22
   16a68:	00b74f46 	adcseq	r4, r7, r6, asr #30
   16a6c:	003f669e 	mlaseq	pc, lr, r6, r6	; <UNPREDICTABLE>
   16a70:	005fea2d 	subseq	lr, pc, sp, lsr #20
   16a74:	007527ba 	ldrhteq	r2, [r5], #-122	; 0xffffff86
   16a78:	00c7ebe5 	sbceq	lr, r7, r5, ror #23
   16a7c:	00f17b3d 	rscseq	r7, r1, sp, lsr fp
   16a80:	000739f7 	strdeq	r3, [r7], -r7
   16a84:	008a5292 	umulleq	r5, sl, r2, r2
   16a88:	00ea6bfb 	strdeq	r6, [sl], #187	; 0xbb	; <UNPREDICTABLE>
   16a8c:	005fb11f 	subseq	fp, pc, pc, lsl r1	; <UNPREDICTABLE>
   16a90:	008d5d08 	addeq	r5, sp, r8, lsl #26
   16a94:	00560330 	subseq	r0, r6, r0, lsr r3
   16a98:	0046fc7b 	subeq	pc, r6, fp, ror ip	; <UNPREDICTABLE>
   16a9c:	006babf0 	strdeq	sl, [fp], #-176	; 0xffffff50	; <UNPREDICTABLE>
   16aa0:	00cfbc20 	sbceq	fp, pc, r0, lsr #24
   16aa4:	009af436 	addseq	pc, sl, r6, lsr r4	; <UNPREDICTABLE>
   16aa8:	001da9e3 	andseq	sl, sp, r3, ror #19
   16aac:	0091615e 	addseq	r6, r1, lr, asr r1
   16ab0:	00e61b08 	rsceq	r1, r6, r8, lsl #22
   16ab4:	00659985 	rsbeq	r9, r5, r5, lsl #19
   16ab8:	005f14a0 	subseq	r1, pc, r0, lsr #9
   16abc:	0068408d 	rsbeq	r4, r8, sp, lsl #1
   16ac0:	00ffd880 	rscseq	sp, pc, r0, lsl #17
   16ac4:	004d7327 	subeq	r7, sp, r7, lsr #6
   16ac8:	00310606 	eorseq	r0, r1, r6, lsl #12
   16acc:	001556ca 	andseq	r5, r5, sl, asr #13
   16ad0:	0073a8c9 	rsbseq	sl, r3, r9, asr #17
   16ad4:	0060e27b 	rsbeq	lr, r0, fp, ror r2
   16ad8:	00c08c6b 	sbceq	r8, r0, fp, ror #24

Disassembly of section .rodata.init_jk:

00016adc <init_jk>:
   16adc:	00000002 	andeq	r0, r0, r2
   16ae0:	00000003 	andeq	r0, r0, r3
   16ae4:	00000004 	andeq	r0, r0, r4
   16ae8:	00000006 	andeq	r0, r0, r6

Disassembly of section .rodata.PIo2:

00016af0 <PIo2>:
   16af0:	40000000 	andmi	r0, r0, r0
   16af4:	3ff921fb 	svccc	0x00f921fb
   16af8:	00000000 	andeq	r0, r0, r0
   16afc:	3e74442d 	cdpcc	4, 7, cr4, cr4, cr13, {1}
   16b00:	80000000 	andhi	r0, r0, r0
   16b04:	3cf84698 	ldclcc	6, cr4, [r8], #608	; 0x260
   16b08:	60000000 	andvs	r0, r0, r0
   16b0c:	3b78cc51 	blcc	1e49c58 <errno+0x1e2a424>
   16b10:	80000000 	andhi	r0, r0, r0
   16b14:	39f01b83 	ldmibcc	r0!, {r0, r1, r7, r8, r9, fp, ip}^
   16b18:	40000000 	andmi	r0, r0, r0
   16b1c:	387a2520 	ldmdacc	sl!, {r5, r8, sl, sp}^
   16b20:	80000000 	andhi	r0, r0, r0
   16b24:	36e38222 	strbtcc	r8, [r3], r2, lsr #4
   16b28:	00000000 	andeq	r0, r0, r0
   16b2c:	3569f31d 	strbcc	pc, [r9, #-797]!	; 0xfffffce3	; <UNPREDICTABLE>

Disassembly of section .rodata.atanlo:

00016b30 <atanlo>:
   16b30:	222f65e2 	eorcs	r6, pc, #947912704	; 0x38800000
   16b34:	3c7a2b7f 	ldclcc	11, cr2, [sl], #-508	; 0xfffffe04
   16b38:	33145c07 	tstcc	r4, #1792	; 0x700
   16b3c:	3c81a626 	stccc	6, cr10, [r1], {38}	; 0x26
   16b40:	7af0cbbd 	bvc	ffc49a3c <errno+0xffc2a208>
   16b44:	3c700788 	ldclcc	7, cr0, [r0], #-544	; 0xfffffde0
   16b48:	33145c07 	tstcc	r4, #1792	; 0x700
   16b4c:	3c91a626 	ldccc	6, cr10, [r1], {38}	; 0x26

Disassembly of section .rodata.atanhi:

00016b50 <atanhi>:
   16b50:	0561bb4f 	strbeq	fp, [r1, #-2895]!	; 0xfffff4b1
   16b54:	3fddac67 	svccc	0x00ddac67
   16b58:	54442d18 	strbpl	r2, [r4], #-3352	; 0xfffff2e8
   16b5c:	3fe921fb 	svccc	0x00e921fb
   16b60:	d281f69b 	addle	pc, r1, #162529280	; 0x9b00000
   16b64:	3fef730b 	svccc	0x00ef730b
   16b68:	54442d18 	strbpl	r2, [r4], #-3352	; 0xfffff2e8
   16b6c:	3ff921fb 	svccc	0x00f921fb

Disassembly of section .ARM.exidx:

00016b70 <.ARM.exidx>:
   16b70:	7ffff634 	svcvc	0x00fff634
   16b74:	00000001 	andeq	r0, r0, r1

Disassembly of section .data.gdemo1:

00016b78 <gdemo1>:
   16b78:	00016428 	andeq	r6, r1, r8, lsr #8

Disassembly of section .data.gdemo2:

00016b7c <gdemo2>:
   16b7c:	00016408 	andeq	r6, r1, r8, lsl #8

Disassembly of section .data.gdemo3:

00016b80 <gdemo3>:
   16b80:	0001634c 	andeq	r6, r1, ip, asr #6

Disassembly of section .data.gpio:

00016b84 <gpio>:
   16b84:	3f200000 	svccc	0x00200000

Disassembly of section .data.heap_end:

00016b88 <heap_end>:
   16b88:	00400000 	subeq	r0, r0, r0

Disassembly of section .data.impure_data:

00016b90 <impure_data>:
   16b90:	00000000 	andeq	r0, r0, r0
   16b94:	00016e7c 	andeq	r6, r1, ip, ror lr
   16b98:	00016ee4 	andeq	r6, r1, r4, ror #29
   16b9c:	00016f4c 	andeq	r6, r1, ip, asr #30
	...
   16c38:	00000001 	andeq	r0, r0, r1
   16c3c:	00000000 	andeq	r0, r0, r0
   16c40:	abcd330e 	blge	ff363880 <errno+0xff34404c>
   16c44:	e66d1234 			; <UNDEFINED> instruction: 0xe66d1234
   16c48:	0005deec 	andeq	sp, r5, ip, ror #29
   16c4c:	0000000b 	andeq	r0, r0, fp
	...

Disassembly of section .data._impure_ptr:

00016fb8 <_impure_ptr>:
   16fb8:	00016b90 	muleq	r1, r0, fp

Disassembly of section .data.__malloc_av_:

00016fbc <__malloc_av_>:
	...
   16fc4:	00016fbc 			; <UNDEFINED> instruction: 0x00016fbc
   16fc8:	00016fbc 			; <UNDEFINED> instruction: 0x00016fbc
   16fcc:	00016fc4 	andeq	r6, r1, r4, asr #31
   16fd0:	00016fc4 	andeq	r6, r1, r4, asr #31
   16fd4:	00016fcc 	andeq	r6, r1, ip, asr #31
   16fd8:	00016fcc 	andeq	r6, r1, ip, asr #31
   16fdc:	00016fd4 	ldrdeq	r6, [r1], -r4
   16fe0:	00016fd4 	ldrdeq	r6, [r1], -r4
   16fe4:	00016fdc 	ldrdeq	r6, [r1], -ip
   16fe8:	00016fdc 	ldrdeq	r6, [r1], -ip
   16fec:	00016fe4 	andeq	r6, r1, r4, ror #31
   16ff0:	00016fe4 	andeq	r6, r1, r4, ror #31
   16ff4:	00016fec 	andeq	r6, r1, ip, ror #31
   16ff8:	00016fec 	andeq	r6, r1, ip, ror #31
   16ffc:	00016ff4 	strdeq	r6, [r1], -r4
   17000:	00016ff4 	strdeq	r6, [r1], -r4
   17004:	00016ffc 	strdeq	r6, [r1], -ip
   17008:	00016ffc 	strdeq	r6, [r1], -ip
   1700c:	00017004 	andeq	r7, r1, r4
   17010:	00017004 	andeq	r7, r1, r4
   17014:	0001700c 	andeq	r7, r1, ip
   17018:	0001700c 	andeq	r7, r1, ip
   1701c:	00017014 	andeq	r7, r1, r4, lsl r0
   17020:	00017014 	andeq	r7, r1, r4, lsl r0
   17024:	0001701c 	andeq	r7, r1, ip, lsl r0
   17028:	0001701c 	andeq	r7, r1, ip, lsl r0
   1702c:	00017024 	andeq	r7, r1, r4, lsr #32
   17030:	00017024 	andeq	r7, r1, r4, lsr #32
   17034:	0001702c 	andeq	r7, r1, ip, lsr #32
   17038:	0001702c 	andeq	r7, r1, ip, lsr #32
   1703c:	00017034 	andeq	r7, r1, r4, lsr r0
   17040:	00017034 	andeq	r7, r1, r4, lsr r0
   17044:	0001703c 	andeq	r7, r1, ip, lsr r0
   17048:	0001703c 	andeq	r7, r1, ip, lsr r0
   1704c:	00017044 	andeq	r7, r1, r4, asr #32
   17050:	00017044 	andeq	r7, r1, r4, asr #32
   17054:	0001704c 	andeq	r7, r1, ip, asr #32
   17058:	0001704c 	andeq	r7, r1, ip, asr #32
   1705c:	00017054 	andeq	r7, r1, r4, asr r0
   17060:	00017054 	andeq	r7, r1, r4, asr r0
   17064:	0001705c 	andeq	r7, r1, ip, asr r0
   17068:	0001705c 	andeq	r7, r1, ip, asr r0
   1706c:	00017064 	andeq	r7, r1, r4, rrx
   17070:	00017064 	andeq	r7, r1, r4, rrx
   17074:	0001706c 	andeq	r7, r1, ip, rrx
   17078:	0001706c 	andeq	r7, r1, ip, rrx
   1707c:	00017074 	andeq	r7, r1, r4, ror r0
   17080:	00017074 	andeq	r7, r1, r4, ror r0
   17084:	0001707c 	andeq	r7, r1, ip, ror r0
   17088:	0001707c 	andeq	r7, r1, ip, ror r0
   1708c:	00017084 	andeq	r7, r1, r4, lsl #1
   17090:	00017084 	andeq	r7, r1, r4, lsl #1
   17094:	0001708c 	andeq	r7, r1, ip, lsl #1
   17098:	0001708c 	andeq	r7, r1, ip, lsl #1
   1709c:	00017094 	muleq	r1, r4, r0
   170a0:	00017094 	muleq	r1, r4, r0
   170a4:	0001709c 	muleq	r1, ip, r0
   170a8:	0001709c 	muleq	r1, ip, r0
   170ac:	000170a4 	andeq	r7, r1, r4, lsr #1
   170b0:	000170a4 	andeq	r7, r1, r4, lsr #1
   170b4:	000170ac 	andeq	r7, r1, ip, lsr #1
   170b8:	000170ac 	andeq	r7, r1, ip, lsr #1
   170bc:	000170b4 	strheq	r7, [r1], -r4
   170c0:	000170b4 	strheq	r7, [r1], -r4
   170c4:	000170bc 	strheq	r7, [r1], -ip
   170c8:	000170bc 	strheq	r7, [r1], -ip
   170cc:	000170c4 	andeq	r7, r1, r4, asr #1
   170d0:	000170c4 	andeq	r7, r1, r4, asr #1
   170d4:	000170cc 	andeq	r7, r1, ip, asr #1
   170d8:	000170cc 	andeq	r7, r1, ip, asr #1
   170dc:	000170d4 	ldrdeq	r7, [r1], -r4
   170e0:	000170d4 	ldrdeq	r7, [r1], -r4
   170e4:	000170dc 	ldrdeq	r7, [r1], -ip
   170e8:	000170dc 	ldrdeq	r7, [r1], -ip
   170ec:	000170e4 	andeq	r7, r1, r4, ror #1
   170f0:	000170e4 	andeq	r7, r1, r4, ror #1
   170f4:	000170ec 	andeq	r7, r1, ip, ror #1
   170f8:	000170ec 	andeq	r7, r1, ip, ror #1
   170fc:	000170f4 	strdeq	r7, [r1], -r4
   17100:	000170f4 	strdeq	r7, [r1], -r4
   17104:	000170fc 	strdeq	r7, [r1], -ip
   17108:	000170fc 	strdeq	r7, [r1], -ip
   1710c:	00017104 	andeq	r7, r1, r4, lsl #2
   17110:	00017104 	andeq	r7, r1, r4, lsl #2
   17114:	0001710c 	andeq	r7, r1, ip, lsl #2
   17118:	0001710c 	andeq	r7, r1, ip, lsl #2
   1711c:	00017114 	andeq	r7, r1, r4, lsl r1
   17120:	00017114 	andeq	r7, r1, r4, lsl r1
   17124:	0001711c 	andeq	r7, r1, ip, lsl r1
   17128:	0001711c 	andeq	r7, r1, ip, lsl r1
   1712c:	00017124 	andeq	r7, r1, r4, lsr #2
   17130:	00017124 	andeq	r7, r1, r4, lsr #2
   17134:	0001712c 	andeq	r7, r1, ip, lsr #2
   17138:	0001712c 	andeq	r7, r1, ip, lsr #2
   1713c:	00017134 	andeq	r7, r1, r4, lsr r1
   17140:	00017134 	andeq	r7, r1, r4, lsr r1
   17144:	0001713c 	andeq	r7, r1, ip, lsr r1
   17148:	0001713c 	andeq	r7, r1, ip, lsr r1
   1714c:	00017144 	andeq	r7, r1, r4, asr #2
   17150:	00017144 	andeq	r7, r1, r4, asr #2
   17154:	0001714c 	andeq	r7, r1, ip, asr #2
   17158:	0001714c 	andeq	r7, r1, ip, asr #2
   1715c:	00017154 	andeq	r7, r1, r4, asr r1
   17160:	00017154 	andeq	r7, r1, r4, asr r1
   17164:	0001715c 	andeq	r7, r1, ip, asr r1
   17168:	0001715c 	andeq	r7, r1, ip, asr r1
   1716c:	00017164 	andeq	r7, r1, r4, ror #2
   17170:	00017164 	andeq	r7, r1, r4, ror #2
   17174:	0001716c 	andeq	r7, r1, ip, ror #2
   17178:	0001716c 	andeq	r7, r1, ip, ror #2
   1717c:	00017174 	andeq	r7, r1, r4, ror r1
   17180:	00017174 	andeq	r7, r1, r4, ror r1
   17184:	0001717c 	andeq	r7, r1, ip, ror r1
   17188:	0001717c 	andeq	r7, r1, ip, ror r1
   1718c:	00017184 	andeq	r7, r1, r4, lsl #3
   17190:	00017184 	andeq	r7, r1, r4, lsl #3
   17194:	0001718c 	andeq	r7, r1, ip, lsl #3
   17198:	0001718c 	andeq	r7, r1, ip, lsl #3
   1719c:	00017194 	muleq	r1, r4, r1
   171a0:	00017194 	muleq	r1, r4, r1
   171a4:	0001719c 	muleq	r1, ip, r1
   171a8:	0001719c 	muleq	r1, ip, r1
   171ac:	000171a4 	andeq	r7, r1, r4, lsr #3
   171b0:	000171a4 	andeq	r7, r1, r4, lsr #3
   171b4:	000171ac 	andeq	r7, r1, ip, lsr #3
   171b8:	000171ac 	andeq	r7, r1, ip, lsr #3
   171bc:	000171b4 			; <UNDEFINED> instruction: 0x000171b4
   171c0:	000171b4 			; <UNDEFINED> instruction: 0x000171b4
   171c4:	000171bc 			; <UNDEFINED> instruction: 0x000171bc
   171c8:	000171bc 			; <UNDEFINED> instruction: 0x000171bc
   171cc:	000171c4 	andeq	r7, r1, r4, asr #3
   171d0:	000171c4 	andeq	r7, r1, r4, asr #3
   171d4:	000171cc 	andeq	r7, r1, ip, asr #3
   171d8:	000171cc 	andeq	r7, r1, ip, asr #3
   171dc:	000171d4 	ldrdeq	r7, [r1], -r4
   171e0:	000171d4 	ldrdeq	r7, [r1], -r4
   171e4:	000171dc 	ldrdeq	r7, [r1], -ip
   171e8:	000171dc 	ldrdeq	r7, [r1], -ip
   171ec:	000171e4 	andeq	r7, r1, r4, ror #3
   171f0:	000171e4 	andeq	r7, r1, r4, ror #3
   171f4:	000171ec 	andeq	r7, r1, ip, ror #3
   171f8:	000171ec 	andeq	r7, r1, ip, ror #3
   171fc:	000171f4 	strdeq	r7, [r1], -r4
   17200:	000171f4 	strdeq	r7, [r1], -r4
   17204:	000171fc 	strdeq	r7, [r1], -ip
   17208:	000171fc 	strdeq	r7, [r1], -ip
   1720c:	00017204 	andeq	r7, r1, r4, lsl #4
   17210:	00017204 	andeq	r7, r1, r4, lsl #4
   17214:	0001720c 	andeq	r7, r1, ip, lsl #4
   17218:	0001720c 	andeq	r7, r1, ip, lsl #4
   1721c:	00017214 	andeq	r7, r1, r4, lsl r2
   17220:	00017214 	andeq	r7, r1, r4, lsl r2
   17224:	0001721c 	andeq	r7, r1, ip, lsl r2
   17228:	0001721c 	andeq	r7, r1, ip, lsl r2
   1722c:	00017224 	andeq	r7, r1, r4, lsr #4
   17230:	00017224 	andeq	r7, r1, r4, lsr #4
   17234:	0001722c 	andeq	r7, r1, ip, lsr #4
   17238:	0001722c 	andeq	r7, r1, ip, lsr #4
   1723c:	00017234 	andeq	r7, r1, r4, lsr r2
   17240:	00017234 	andeq	r7, r1, r4, lsr r2
   17244:	0001723c 	andeq	r7, r1, ip, lsr r2
   17248:	0001723c 	andeq	r7, r1, ip, lsr r2
   1724c:	00017244 	andeq	r7, r1, r4, asr #4
   17250:	00017244 	andeq	r7, r1, r4, asr #4
   17254:	0001724c 	andeq	r7, r1, ip, asr #4
   17258:	0001724c 	andeq	r7, r1, ip, asr #4
   1725c:	00017254 	andeq	r7, r1, r4, asr r2
   17260:	00017254 	andeq	r7, r1, r4, asr r2
   17264:	0001725c 	andeq	r7, r1, ip, asr r2
   17268:	0001725c 	andeq	r7, r1, ip, asr r2
   1726c:	00017264 	andeq	r7, r1, r4, ror #4
   17270:	00017264 	andeq	r7, r1, r4, ror #4
   17274:	0001726c 	andeq	r7, r1, ip, ror #4
   17278:	0001726c 	andeq	r7, r1, ip, ror #4
   1727c:	00017274 	andeq	r7, r1, r4, ror r2
   17280:	00017274 	andeq	r7, r1, r4, ror r2
   17284:	0001727c 	andeq	r7, r1, ip, ror r2
   17288:	0001727c 	andeq	r7, r1, ip, ror r2
   1728c:	00017284 	andeq	r7, r1, r4, lsl #5
   17290:	00017284 	andeq	r7, r1, r4, lsl #5
   17294:	0001728c 	andeq	r7, r1, ip, lsl #5
   17298:	0001728c 	andeq	r7, r1, ip, lsl #5
   1729c:	00017294 	muleq	r1, r4, r2
   172a0:	00017294 	muleq	r1, r4, r2
   172a4:	0001729c 	muleq	r1, ip, r2
   172a8:	0001729c 	muleq	r1, ip, r2
   172ac:	000172a4 	andeq	r7, r1, r4, lsr #5
   172b0:	000172a4 	andeq	r7, r1, r4, lsr #5
   172b4:	000172ac 	andeq	r7, r1, ip, lsr #5
   172b8:	000172ac 	andeq	r7, r1, ip, lsr #5
   172bc:	000172b4 			; <UNDEFINED> instruction: 0x000172b4
   172c0:	000172b4 			; <UNDEFINED> instruction: 0x000172b4
   172c4:	000172bc 			; <UNDEFINED> instruction: 0x000172bc
   172c8:	000172bc 			; <UNDEFINED> instruction: 0x000172bc
   172cc:	000172c4 	andeq	r7, r1, r4, asr #5
   172d0:	000172c4 	andeq	r7, r1, r4, asr #5
   172d4:	000172cc 	andeq	r7, r1, ip, asr #5
   172d8:	000172cc 	andeq	r7, r1, ip, asr #5
   172dc:	000172d4 	ldrdeq	r7, [r1], -r4
   172e0:	000172d4 	ldrdeq	r7, [r1], -r4
   172e4:	000172dc 	ldrdeq	r7, [r1], -ip
   172e8:	000172dc 	ldrdeq	r7, [r1], -ip
   172ec:	000172e4 	andeq	r7, r1, r4, ror #5
   172f0:	000172e4 	andeq	r7, r1, r4, ror #5
   172f4:	000172ec 	andeq	r7, r1, ip, ror #5
   172f8:	000172ec 	andeq	r7, r1, ip, ror #5
   172fc:	000172f4 	strdeq	r7, [r1], -r4
   17300:	000172f4 	strdeq	r7, [r1], -r4
   17304:	000172fc 	strdeq	r7, [r1], -ip
   17308:	000172fc 	strdeq	r7, [r1], -ip
   1730c:	00017304 	andeq	r7, r1, r4, lsl #6
   17310:	00017304 	andeq	r7, r1, r4, lsl #6
   17314:	0001730c 	andeq	r7, r1, ip, lsl #6
   17318:	0001730c 	andeq	r7, r1, ip, lsl #6
   1731c:	00017314 	andeq	r7, r1, r4, lsl r3
   17320:	00017314 	andeq	r7, r1, r4, lsl r3
   17324:	0001731c 	andeq	r7, r1, ip, lsl r3
   17328:	0001731c 	andeq	r7, r1, ip, lsl r3
   1732c:	00017324 	andeq	r7, r1, r4, lsr #6
   17330:	00017324 	andeq	r7, r1, r4, lsr #6
   17334:	0001732c 	andeq	r7, r1, ip, lsr #6
   17338:	0001732c 	andeq	r7, r1, ip, lsr #6
   1733c:	00017334 	andeq	r7, r1, r4, lsr r3
   17340:	00017334 	andeq	r7, r1, r4, lsr r3
   17344:	0001733c 	andeq	r7, r1, ip, lsr r3
   17348:	0001733c 	andeq	r7, r1, ip, lsr r3
   1734c:	00017344 	andeq	r7, r1, r4, asr #6
   17350:	00017344 	andeq	r7, r1, r4, asr #6
   17354:	0001734c 	andeq	r7, r1, ip, asr #6
   17358:	0001734c 	andeq	r7, r1, ip, asr #6
   1735c:	00017354 	andeq	r7, r1, r4, asr r3
   17360:	00017354 	andeq	r7, r1, r4, asr r3
   17364:	0001735c 	andeq	r7, r1, ip, asr r3
   17368:	0001735c 	andeq	r7, r1, ip, asr r3
   1736c:	00017364 	andeq	r7, r1, r4, ror #6
   17370:	00017364 	andeq	r7, r1, r4, ror #6
   17374:	0001736c 	andeq	r7, r1, ip, ror #6
   17378:	0001736c 	andeq	r7, r1, ip, ror #6
   1737c:	00017374 	andeq	r7, r1, r4, ror r3
   17380:	00017374 	andeq	r7, r1, r4, ror r3
   17384:	0001737c 	andeq	r7, r1, ip, ror r3
   17388:	0001737c 	andeq	r7, r1, ip, ror r3
   1738c:	00017384 	andeq	r7, r1, r4, lsl #7
   17390:	00017384 	andeq	r7, r1, r4, lsl #7
   17394:	0001738c 	andeq	r7, r1, ip, lsl #7
   17398:	0001738c 	andeq	r7, r1, ip, lsl #7
   1739c:	00017394 	muleq	r1, r4, r3
   173a0:	00017394 	muleq	r1, r4, r3
   173a4:	0001739c 	muleq	r1, ip, r3
   173a8:	0001739c 	muleq	r1, ip, r3
   173ac:	000173a4 	andeq	r7, r1, r4, lsr #7
   173b0:	000173a4 	andeq	r7, r1, r4, lsr #7
   173b4:	000173ac 	andeq	r7, r1, ip, lsr #7
   173b8:	000173ac 	andeq	r7, r1, ip, lsr #7
   173bc:	000173b4 			; <UNDEFINED> instruction: 0x000173b4
   173c0:	000173b4 			; <UNDEFINED> instruction: 0x000173b4

Disassembly of section .data.__malloc_trim_threshold:

000173c4 <__malloc_trim_threshold>:
   173c4:	00020000 	andeq	r0, r2, r0

Disassembly of section .data.__malloc_sbrk_base:

000173c8 <__malloc_sbrk_base>:
   173c8:	ffffffff 			; <UNDEFINED> instruction: 0xffffffff

Disassembly of section .data.__global_locale:

000173cc <__global_locale>:
   173cc:	00000043 	andeq	r0, r0, r3, asr #32
	...
   173ec:	00000043 	andeq	r0, r0, r3, asr #32
	...
   1740c:	00000043 	andeq	r0, r0, r3, asr #32
	...
   1742c:	00000043 	andeq	r0, r0, r3, asr #32
	...
   1744c:	00000043 	andeq	r0, r0, r3, asr #32
	...
   1746c:	00000043 	andeq	r0, r0, r3, asr #32
	...
   1748c:	00000043 	andeq	r0, r0, r3, asr #32
	...
   174ac:	00014138 	andeq	r4, r1, r8, lsr r1
   174b0:	00013e44 	andeq	r3, r1, r4, asr #28
   174b4:	00000000 	andeq	r0, r0, r0
   174b8:	00016850 	andeq	r6, r1, r0, asr r8
   174bc:	000166cc 	andeq	r6, r1, ip, asr #13
   174c0:	000164f0 	strdeq	r6, [r1], -r0
   174c4:	000164f0 	strdeq	r6, [r1], -r0
   174c8:	000164f0 	strdeq	r6, [r1], -r0
   174cc:	000164f0 	strdeq	r6, [r1], -r0
   174d0:	000164f0 	strdeq	r6, [r1], -r0
   174d4:	000164f0 	strdeq	r6, [r1], -r0
   174d8:	000164f0 	strdeq	r6, [r1], -r0
   174dc:	000164f0 	strdeq	r6, [r1], -r0
   174e0:	000164f0 	strdeq	r6, [r1], -r0
   174e4:	ffffffff 			; <UNDEFINED> instruction: 0xffffffff
   174e8:	ffffffff 			; <UNDEFINED> instruction: 0xffffffff
   174ec:	ffffffff 			; <UNDEFINED> instruction: 0xffffffff
   174f0:	0000ffff 	strdeq	pc, [r0], -pc	; <UNPREDICTABLE>
   174f4:	53410001 	movtpl	r0, #4097	; 0x1001
   174f8:	00494943 	subeq	r4, r9, r3, asr #18
	...
   17514:	53410000 	movtpl	r0, #4096	; 0x1000
   17518:	00494943 	subeq	r4, r9, r3, asr #18
	...

Disassembly of section .data.__fdlib_version:

00017538 <__fdlib_version>:
   17538:	Address 0x0000000000017538 is out of bounds.


Disassembly of section .bss:

00017540 <buf_ptr>:
   17540:	00000000 	andeq	r0, r0, r0

00017544 <uart_buffer>:
	...

00017594 <printf_mutex>:
	...

000175a0 <pt>:
	...

0001f5a0 <property.6692>:
	...

0001f6a8 <pt_index>:
   1f6a8:	00000000 	andeq	r0, r0, r0

0001f6ac <z_axis>:
	...

0001f710 <step_en>:
   1f710:	00000000 	andeq	r0, r0, r0

0001f714 <sd_state>:
   1f714:	00000000 	andeq	r0, r0, r0

0001f718 <y_axis>:
	...

0001f77c <x_axis>:
	...

0001f7e0 <__malloc_max_total_mem>:
   1f7e0:	00000000 	andeq	r0, r0, r0

0001f7e4 <__malloc_max_sbrked_mem>:
   1f7e4:	00000000 	andeq	r0, r0, r0

0001f7e8 <__malloc_top_pad>:
   1f7e8:	00000000 	andeq	r0, r0, r0

0001f7ec <__malloc_current_mallinfo>:
	...

0001f814 <_PathLocale>:
   1f814:	00000000 	andeq	r0, r0, r0

0001f818 <timer>:
   1f818:	00000000 	andeq	r0, r0, r0

0001f81c <cycle_start>:
   1f81c:	00000000 	andeq	r0, r0, r0

0001f820 <reset>:
   1f820:	00000000 	andeq	r0, r0, r0

0001f824 <aux>:
   1f824:	00000000 	andeq	r0, r0, r0

0001f828 <demo>:
   1f828:	00000000 	andeq	r0, r0, r0

0001f82c <irq_ctrl>:
   1f82c:	00000000 	andeq	r0, r0, r0

0001f830 <prev_heap_end>:
   1f830:	00000000 	andeq	r0, r0, r0

0001f834 <errno>:
   1f834:	00000000 	andeq	r0, r0, r0

Disassembly of section .ARM.attributes:

00000000 <.ARM.attributes>:
   0:	00003541 	andeq	r3, r0, r1, asr #10
   4:	61656100 	cmnvs	r5, r0, lsl #2
   8:	01006962 	tsteq	r0, r2, ror #18
   c:	0000002b 	andeq	r0, r0, fp, lsr #32
  10:	4d524105 	ldfmie	f4, [r2, #-20]	; 0xffffffec
  14:	00377620 	eorseq	r7, r7, r0, lsr #12
  18:	41070a06 	tstmi	r7, r6, lsl #20
  1c:	02090108 	andeq	r0, r9, #8, 2
  20:	020c050a 	andeq	r0, ip, #41943040	; 0x2800000
  24:	01140412 	tsteq	r4, r2, lsl r4
  28:	03170115 	tsteq	r7, #1073741829	; 0x40000005
  2c:	011a0118 	tsteq	sl, r8, lsl r1
  30:	0122011c 			; <UNDEFINED> instruction: 0x0122011c
  34:	Address 0x0000000000000034 is out of bounds.


Disassembly of section .comment:

00000000 <.comment>:
   0:	3a434347 	bcc	10d0d24 <errno+0x10b14f0>
   4:	4e472820 	cdpmi	8, 4, cr2, cr7, cr0, {1}
   8:	6f542055 	svcvs	0x00542055
   c:	20736c6f 	rsbscs	r6, r3, pc, ror #24
  10:	20726f66 	rsbscs	r6, r2, r6, ror #30
  14:	204d5241 	subcs	r5, sp, r1, asr #4
  18:	65626d45 	strbvs	r6, [r2, #-3397]!	; 0xfffff2bb
  1c:	64656464 	strbtvs	r6, [r5], #-1124	; 0xfffffb9c
  20:	6f725020 	svcvs	0x00725020
  24:	73736563 	cmnvc	r3, #415236096	; 0x18c00000
  28:	2973726f 	ldmdbcs	r3!, {r0, r1, r2, r3, r5, r6, r9, ip, sp, lr}^
  2c:	342e3520 	strtcc	r3, [lr], #-1312	; 0xfffffae0
  30:	3220312e 	eorcc	r3, r0, #-2147483637	; 0x8000000b
  34:	30363130 	eorscc	r3, r6, r0, lsr r1
  38:	20393139 	eorscs	r3, r9, r9, lsr r1
  3c:	6c657228 	sfmvs	f7, 2, [r5], #-160	; 0xffffff60
  40:	65736165 	ldrbvs	r6, [r3, #-357]!	; 0xfffffe9b
  44:	415b2029 	cmpmi	fp, r9, lsr #32
  48:	652f4d52 	strvs	r4, [pc, #-3410]!	; fffff2fe <errno+0xfffdfaca>
  4c:	6465626d 	strbtvs	r6, [r5], #-621	; 0xfffffd93
  50:	2d646564 	cfstr64cs	mvdx6, [r4, #-400]!	; 0xfffffe70
  54:	72622d35 	rsbvc	r2, r2, #3392	; 0xd40
  58:	68636e61 	stmdavs	r3!, {r0, r5, r6, r9, sl, fp, sp, lr}^
  5c:	76657220 	strbtvc	r7, [r5], -r0, lsr #4
  60:	6f697369 	svcvs	0x00697369
  64:	3432206e 	ldrtcc	r2, [r2], #-110	; 0xffffff92
  68:	36393430 			; <UNDEFINED> instruction: 0x36393430
  6c:	Address 0x000000000000006c is out of bounds.


Disassembly of section .debug_frame:

00000000 <.debug_frame>:
       0:	0000000c 	andeq	r0, r0, ip
       4:	ffffffff 			; <UNDEFINED> instruction: 0xffffffff
       8:	7c010001 	stcvc	0, cr0, [r1], {1}
       c:	000d0c0e 	andeq	r0, sp, lr, lsl #24
      10:	0000000c 	andeq	r0, r0, ip
      14:	00000000 	andeq	r0, r0, r0
      18:	0000a490 	muleq	r0, r0, r4
      1c:	00000128 	andeq	r0, r0, r8, lsr #2
      20:	0000000c 	andeq	r0, r0, ip
      24:	ffffffff 			; <UNDEFINED> instruction: 0xffffffff
      28:	7c020001 	stcvc	0, cr0, [r2], {1}
      2c:	000d0c0e 	andeq	r0, sp, lr, lsl #24
      30:	0000000c 	andeq	r0, r0, ip
      34:	00000020 	andeq	r0, r0, r0, lsr #32
      38:	0000a5dc 	ldrdeq	sl, [r0], -ip
      3c:	00000010 	andeq	r0, r0, r0, lsl r0
      40:	0000000c 	andeq	r0, r0, ip
      44:	ffffffff 			; <UNDEFINED> instruction: 0xffffffff
      48:	7c020001 	stcvc	0, cr0, [r2], {1}
      4c:	000d0c0e 	andeq	r0, sp, lr, lsl #24
      50:	00000034 	andeq	r0, r0, r4, lsr r0
      54:	00000040 	andeq	r0, r0, r0, asr #32
      58:	0000a5ec 	andeq	sl, r0, ip, ror #11
      5c:	000000fc 	strdeq	r0, [r0], -ip
      60:	84100e48 	ldrhi	r0, [r0], #-3656	; 0xfffff1b8
      64:	86038504 	strhi	r8, [r3], -r4, lsl #10
      68:	56018e02 	strpl	r8, [r1], -r2, lsl #28
      6c:	c5c6ce0a 	strbgt	ip, [r6, #3594]	; 0xe0a
      70:	42000ec4 	andmi	r0, r0, #196, 28	; 0xc40
      74:	0a4c020b 	beq	13008a8 <errno+0x12e1074>
      78:	cec6c5c4 	cdpgt	5, 12, cr12, cr6, cr4, {6}
      7c:	0b42000e 	bleq	10800bc <errno+0x1060888>
      80:	c4000e4c 	strgt	r0, [r0], #-3660	; 0xfffff1b4
      84:	00cec6c5 	sbceq	ip, lr, r5, asr #13
      88:	0000000c 	andeq	r0, r0, ip
      8c:	00000040 	andeq	r0, r0, r0, asr #32
      90:	0000a6e8 	andeq	sl, r0, r8, ror #13
      94:	00000014 	andeq	r0, r0, r4, lsl r0
      98:	0000000c 	andeq	r0, r0, ip
      9c:	ffffffff 			; <UNDEFINED> instruction: 0xffffffff
      a0:	7c020001 	stcvc	0, cr0, [r2], {1}
      a4:	000d0c0e 	andeq	r0, sp, lr, lsl #24
      a8:	00000044 	andeq	r0, r0, r4, asr #32
      ac:	00000098 	muleq	r0, r8, r0
      b0:	0000a6fc 	strdeq	sl, [r0], -ip
      b4:	00000240 	andeq	r0, r0, r0, asr #4
      b8:	84180e48 	ldrhi	r0, [r8], #-3656	; 0xfffff1b8
      bc:	86058506 	strhi	r8, [r5], -r6, lsl #10
      c0:	88038704 	stmdahi	r3, {r2, r8, r9, sl, pc}
      c4:	02018e02 	andeq	r8, r1, #2, 28
      c8:	c5c40a6e 	strbgt	r0, [r4, #2670]	; 0xa6e
      cc:	cec8c7c6 	cdpgt	7, 12, cr12, cr8, cr6, {6}
      d0:	0b42000e 	bleq	1080110 <errno+0x10608dc>
      d4:	ce0a4002 	cdpgt	0, 0, cr4, cr10, cr2, {0}
      d8:	c5c6c7c8 	strbgt	ip, [r6, #1992]	; 0x7c8
      dc:	42000ec4 	andmi	r0, r0, #196, 28	; 0xc40
      e0:	c40a4a0b 	strgt	r4, [sl], #-2571	; 0xfffff5f5
      e4:	c8c7c6c5 	stmiagt	r7, {r0, r2, r6, r7, r9, sl, lr, pc}^
      e8:	42000ece 	andmi	r0, r0, #3296	; 0xce0
      ec:	0000000b 	andeq	r0, r0, fp
      f0:	0000002c 	andeq	r0, r0, ip, lsr #32
      f4:	00000098 	muleq	r0, r8, r0
      f8:	0000a93c 	andeq	sl, r0, ip, lsr r9
      fc:	00000054 	andeq	r0, r0, r4, asr r0
     100:	84080e42 	strhi	r0, [r8], #-3650	; 0xfffff1be
     104:	44018e02 	strmi	r8, [r1], #-3586	; 0xfffff1fe
     108:	0a50100e 	beq	1404148 <errno+0x13e4914>
     10c:	ce42080e 	cdpgt	8, 4, cr0, cr2, cr14, {0}
     110:	42000ec4 	andmi	r0, r0, #196, 28	; 0xc40
     114:	0e0a440b 	cdpeq	4, 0, cr4, cr10, cr11, {0}
     118:	c4ce4208 	strbgt	r4, [lr], #520	; 0x208
     11c:	0b42000e 	bleq	108015c <errno+0x1060928>
     120:	00000018 	andeq	r0, r0, r8, lsl r0
     124:	00000098 	muleq	r0, r8, r0
     128:	0000a990 	muleq	r0, r0, r9
     12c:	00000038 	andeq	r0, r0, r8, lsr r0
     130:	84080e4a 	strhi	r0, [r8], #-3658	; 0xfffff1b6
     134:	4a018e02 	bmi	63944 <errno+0x44110>
     138:	000ec4ce 	andeq	ip, lr, lr, asr #9
     13c:	0000000c 	andeq	r0, r0, ip
     140:	ffffffff 			; <UNDEFINED> instruction: 0xffffffff
     144:	7c020001 	stcvc	0, cr0, [r2], {1}
     148:	000d0c0e 	andeq	r0, sp, lr, lsl #24
     14c:	00000048 	andeq	r0, r0, r8, asr #32
     150:	0000013c 	andeq	r0, r0, ip, lsr r1
     154:	0000a9c8 	andeq	sl, r0, r8, asr #19
     158:	00000128 	andeq	r0, r0, r8, lsr #2
     15c:	84200e48 	strthi	r0, [r0], #-3656	; 0xfffff1b8
     160:	86078508 	strhi	r8, [r7], -r8, lsl #10
     164:	88058706 	stmdahi	r5, {r1, r2, r8, r9, sl, pc}
     168:	8a038904 	bhi	e2580 <errno+0xc2d4c>
     16c:	02018e02 	andeq	r8, r1, #2, 28
     170:	cace0a60 	bgt	ff382af8 <errno+0xff3632c4>
     174:	c6c7c8c9 	strbgt	ip, [r7], r9, asr #17
     178:	000ec4c5 	andeq	ip, lr, r5, asr #9
     17c:	0a5c0b42 	beq	1702e8c <errno+0x16e3658>
     180:	c7c6c5c4 	strbgt	ip, [r6, r4, asr #11]
     184:	cecac9c8 	cdpgt	9, 12, cr12, cr10, cr8, {6}
     188:	0b42000e 	bleq	10801c8 <errno+0x1060994>
     18c:	c4000e48 	strgt	r0, [r0], #-3656	; 0xfffff1b8
     190:	c8c7c6c5 	stmiagt	r7, {r0, r2, r6, r7, r9, sl, lr, pc}^
     194:	00cecac9 	sbceq	ip, lr, r9, asr #21
     198:	0000000c 	andeq	r0, r0, ip
     19c:	0000013c 	andeq	r0, r0, ip, lsr r1
     1a0:	0000aaf0 	strdeq	sl, [r0], -r0
     1a4:	0000001c 	andeq	r0, r0, ip, lsl r0
     1a8:	0000000c 	andeq	r0, r0, ip
     1ac:	ffffffff 			; <UNDEFINED> instruction: 0xffffffff
     1b0:	7c020001 	stcvc	0, cr0, [r2], {1}
     1b4:	000d0c0e 	andeq	r0, sp, lr, lsl #24
     1b8:	0000000c 	andeq	r0, r0, ip
     1bc:	000001a8 	andeq	r0, r0, r8, lsr #3
     1c0:	0000ab0c 	andeq	sl, r0, ip, lsl #22
     1c4:	00000008 	andeq	r0, r0, r8
     1c8:	00000018 	andeq	r0, r0, r8, lsl r0
     1cc:	000001a8 	andeq	r0, r0, r8, lsr #3
     1d0:	0000ab14 	andeq	sl, r0, r4, lsl fp
     1d4:	00000018 	andeq	r0, r0, r8, lsl r0
     1d8:	84080e42 	strhi	r0, [r8], #-3650	; 0xfffff1be
     1dc:	46018e02 	strmi	r8, [r1], -r2, lsl #28
     1e0:	000ec4ce 	andeq	ip, lr, lr, asr #9
     1e4:	00000034 	andeq	r0, r0, r4, lsr r0
     1e8:	000001a8 	andeq	r0, r0, r8, lsr #3
     1ec:	0000ab2c 	andeq	sl, r0, ip, lsr #22
     1f0:	00000160 	andeq	r0, r0, r0, ror #2
     1f4:	84240e42 	strthi	r0, [r4], #-3650	; 0xfffff1be
     1f8:	86088509 	strhi	r8, [r8], -r9, lsl #10
     1fc:	88068707 	stmdahi	r6, {r0, r1, r2, r8, r9, sl, pc}
     200:	8a048905 	bhi	12261c <errno+0x102de8>
     204:	8e028b03 	vmlahi.f64	d8, d2, d3
     208:	300e5801 	andcc	r5, lr, r1, lsl #16
     20c:	240e8802 	strcs	r8, [lr], #-2050	; 0xfffff7fe
     210:	cacbce42 	bgt	ff2f3b20 <errno+0xff2d42ec>
     214:	c6c7c8c9 	strbgt	ip, [r7], r9, asr #17
     218:	000ec4c5 	andeq	ip, lr, r5, asr #9
     21c:	0000000c 	andeq	r0, r0, ip
     220:	000001a8 	andeq	r0, r0, r8, lsr #3
     224:	0000ac8c 	andeq	sl, r0, ip, lsl #25
     228:	00000008 	andeq	r0, r0, r8
     22c:	00000020 	andeq	r0, r0, r0, lsr #32
     230:	000001a8 	andeq	r0, r0, r8, lsr #3
     234:	0000ac94 	muleq	r0, r4, ip
     238:	00000050 	andeq	r0, r0, r0, asr r0
     23c:	84100e44 	ldrhi	r0, [r0], #-3652	; 0xfffff1bc
     240:	86038504 	strhi	r8, [r3], -r4, lsl #10
     244:	62018e02 	andvs	r8, r1, #2, 28
     248:	c4c5c6ce 	strbgt	ip, [r5], #1742	; 0x6ce
     24c:	0000000e 	andeq	r0, r0, lr
     250:	00000024 	andeq	r0, r0, r4, lsr #32
     254:	000001a8 	andeq	r0, r0, r8, lsr #3
     258:	0000ace4 	andeq	sl, r0, r4, ror #25
     25c:	000000ec 	andeq	r0, r0, ip, ror #1
     260:	84100e44 	ldrhi	r0, [r0], #-3652	; 0xfffff1bc
     264:	86038504 	strhi	r8, [r3], -r4, lsl #10
     268:	02018e02 	andeq	r8, r1, #2, 28
     26c:	c6ce0a52 			; <UNDEFINED> instruction: 0xc6ce0a52
     270:	000ec4c5 	andeq	ip, lr, r5, asr #9
     274:	00000b42 	andeq	r0, r0, r2, asr #22
     278:	00000018 	andeq	r0, r0, r8, lsl r0
     27c:	000001a8 	andeq	r0, r0, r8, lsr #3
     280:	0000add0 	ldrdeq	sl, [r0], -r0
     284:	00000024 	andeq	r0, r0, r4, lsr #32
     288:	84080e42 	strhi	r0, [r8], #-3650	; 0xfffff1be
     28c:	4a018e02 	bmi	63a9c <errno+0x44268>
     290:	000ec4ce 	andeq	ip, lr, lr, asr #9
     294:	0000000c 	andeq	r0, r0, ip
     298:	000001a8 	andeq	r0, r0, r8, lsr #3
     29c:	0000adf4 	strdeq	sl, [r0], -r4
     2a0:	00000010 	andeq	r0, r0, r0, lsl r0
     2a4:	0000000c 	andeq	r0, r0, ip
     2a8:	000001a8 	andeq	r0, r0, r8, lsr #3
     2ac:	0000ae04 	andeq	sl, r0, r4, lsl #28
     2b0:	00000004 	andeq	r0, r0, r4
     2b4:	0000000c 	andeq	r0, r0, ip
     2b8:	000001a8 	andeq	r0, r0, r8, lsr #3
     2bc:	0000ae08 	andeq	sl, r0, r8, lsl #28
     2c0:	00000004 	andeq	r0, r0, r4
     2c4:	0000000c 	andeq	r0, r0, ip
     2c8:	000001a8 	andeq	r0, r0, r8, lsr #3
     2cc:	0000ae0c 	andeq	sl, r0, ip, lsl #28
     2d0:	00000004 	andeq	r0, r0, r4
     2d4:	0000000c 	andeq	r0, r0, ip
     2d8:	000001a8 	andeq	r0, r0, r8, lsr #3
     2dc:	0000ae10 	andeq	sl, r0, r0, lsl lr
     2e0:	00000004 	andeq	r0, r0, r4
     2e4:	00000018 	andeq	r0, r0, r8, lsl r0
     2e8:	000001a8 	andeq	r0, r0, r8, lsr #3
     2ec:	0000ae14 	andeq	sl, r0, r4, lsl lr
     2f0:	00000024 	andeq	r0, r0, r4, lsr #32
     2f4:	84080e42 	strhi	r0, [r8], #-3650	; 0xfffff1be
     2f8:	4a018e02 	bmi	63b08 <errno+0x442d4>
     2fc:	000ec4ce 	andeq	ip, lr, lr, asr #9
     300:	00000018 	andeq	r0, r0, r8, lsl r0
     304:	000001a8 	andeq	r0, r0, r8, lsr #3
     308:	0000ae38 	andeq	sl, r0, r8, lsr lr
     30c:	00000024 	andeq	r0, r0, r4, lsr #32
     310:	84080e42 	strhi	r0, [r8], #-3650	; 0xfffff1be
     314:	4a018e02 	bmi	63b24 <errno+0x442f0>
     318:	000ec4ce 	andeq	ip, lr, lr, asr #9
     31c:	0000000c 	andeq	r0, r0, ip
     320:	ffffffff 			; <UNDEFINED> instruction: 0xffffffff
     324:	7c020001 	stcvc	0, cr0, [r2], {1}
     328:	000d0c0e 	andeq	r0, sp, lr, lsl #24
     32c:	00000048 	andeq	r0, r0, r8, asr #32
     330:	0000031c 	andeq	r0, r0, ip, lsl r3
     334:	0000ae5c 	andeq	sl, r0, ip, asr lr
     338:	000000f8 	strdeq	r0, [r0], -r8
     33c:	84140e44 	ldrhi	r0, [r4], #-3652	; 0xfffff1bc
     340:	86048505 	strhi	r8, [r4], -r5, lsl #10
     344:	8e028703 	cdphi	7, 0, cr8, cr2, cr3, {0}
     348:	200e4201 	andcs	r4, lr, r1, lsl #4
     34c:	0e0a4202 	cdpeq	2, 0, cr4, cr10, cr2, {0}
     350:	c7ce4214 	bfigt	r4, r4, #4, #11
     354:	0ec4c5c6 	cdpeq	5, 12, cr12, cr4, cr6, {6}
     358:	440b4200 	strmi	r4, [fp], #-512	; 0xfffffe00
     35c:	42140e0a 	andsmi	r0, r4, #10, 28	; 0xa0
     360:	c7c6c5c4 	strbgt	ip, [r6, r4, asr #11]
     364:	42000ece 	andmi	r0, r0, #3296	; 0xce0
     368:	0e0a4e0b 	cdpeq	14, 0, cr4, cr10, cr11, {0}
     36c:	c5c44214 	strbgt	r4, [r4, #532]	; 0x214
     370:	0ecec7c6 	cdpeq	7, 12, cr12, cr14, cr6, {6}
     374:	000b4200 	andeq	r4, fp, r0, lsl #4
     378:	0000000c 	andeq	r0, r0, ip
     37c:	0000031c 	andeq	r0, r0, ip, lsl r3
     380:	0000af54 	andeq	sl, r0, r4, asr pc
     384:	00000018 	andeq	r0, r0, r8, lsl r0
     388:	0000000c 	andeq	r0, r0, ip
     38c:	ffffffff 			; <UNDEFINED> instruction: 0xffffffff
     390:	7c020001 	stcvc	0, cr0, [r2], {1}
     394:	000d0c0e 	andeq	r0, sp, lr, lsl #24
     398:	00000034 	andeq	r0, r0, r4, lsr r0
     39c:	00000388 	andeq	r0, r0, r8, lsl #7
     3a0:	0000af6c 	andeq	sl, r0, ip, ror #30
     3a4:	00000100 	andeq	r0, r0, r0, lsl #2
     3a8:	84180e42 	ldrhi	r0, [r8], #-3650	; 0xfffff1be
     3ac:	86058506 	strhi	r8, [r5], -r6, lsl #10
     3b0:	88038704 	stmdahi	r3, {r2, r8, r9, sl, pc}
     3b4:	74018e02 	strvc	r8, [r1], #-3586	; 0xfffff1fe
     3b8:	c7c8ce0a 	strbgt	ip, [r8, sl, lsl #28]
     3bc:	0ec4c5c6 	cdpeq	5, 12, cr12, cr4, cr6, {6}
     3c0:	620b4200 	andvs	r4, fp, #0, 4
     3c4:	c6c5c40a 	strbgt	ip, [r5], sl, lsl #8
     3c8:	0ecec8c7 	cdpeq	8, 12, cr12, cr14, cr7, {6}
     3cc:	000b4200 	andeq	r4, fp, r0, lsl #4
     3d0:	0000002c 	andeq	r0, r0, ip, lsr #32
     3d4:	00000388 	andeq	r0, r0, r8, lsl #7
     3d8:	0000b06c 	andeq	fp, r0, ip, rrx
     3dc:	000002ec 	andeq	r0, r0, ip, ror #5
     3e0:	84100e46 	ldrhi	r0, [r0], #-3654	; 0xfffff1ba
     3e4:	86038504 	strhi	r8, [r3], -r4, lsl #10
     3e8:	02018e02 	andeq	r8, r1, #2, 28
     3ec:	c6ce0a68 	strbgt	r0, [lr], r8, ror #20
     3f0:	000ec4c5 	andeq	ip, lr, r5, asr #9
     3f4:	0a780b42 	beq	1e03104 <errno+0x1de38d0>
     3f8:	cec6c5c4 	cdpgt	5, 12, cr12, cr6, cr4, {6}
     3fc:	0b42000e 	bleq	108043c <errno+0x1060c08>
     400:	0000000c 	andeq	r0, r0, ip
     404:	ffffffff 			; <UNDEFINED> instruction: 0xffffffff
     408:	7c020001 	stcvc	0, cr0, [r2], {1}
     40c:	000d0c0e 	andeq	r0, sp, lr, lsl #24
     410:	00000018 	andeq	r0, r0, r8, lsl r0
     414:	00000400 	andeq	r0, r0, r0, lsl #8
     418:	0000b358 	andeq	fp, r0, r8, asr r3
     41c:	00000010 	andeq	r0, r0, r0, lsl r0
     420:	84080e42 	strhi	r0, [r8], #-3650	; 0xfffff1be
     424:	44018e02 	strmi	r8, [r1], #-3586	; 0xfffff1fe
     428:	000ec4ce 	andeq	ip, lr, lr, asr #9
     42c:	00000018 	andeq	r0, r0, r8, lsl r0
     430:	00000400 	andeq	r0, r0, r0, lsl #8
     434:	0000b368 	andeq	fp, r0, r8, ror #6
     438:	00000028 	andeq	r0, r0, r8, lsr #32
     43c:	84080e42 	strhi	r0, [r8], #-3650	; 0xfffff1be
     440:	4e018e02 	cdpmi	14, 0, cr8, cr1, cr2, {0}
     444:	000ec4ce 	andeq	ip, lr, lr, asr #9
     448:	0000000c 	andeq	r0, r0, ip
     44c:	ffffffff 			; <UNDEFINED> instruction: 0xffffffff
     450:	7c020001 	stcvc	0, cr0, [r2], {1}
     454:	000d0c0e 	andeq	r0, sp, lr, lsl #24
     458:	0000005c 	andeq	r0, r0, ip, asr r0
     45c:	00000448 	andeq	r0, r0, r8, asr #8
     460:	0000b390 	muleq	r0, r0, r3
     464:	00000488 	andeq	r0, r0, r8, lsl #9
     468:	84240e42 	strthi	r0, [r4], #-3650	; 0xfffff1be
     46c:	86088509 	strhi	r8, [r8], -r9, lsl #10
     470:	88068707 	stmdahi	r6, {r0, r1, r2, r8, r9, sl, pc}
     474:	8a048905 	bhi	122890 <errno+0x10305c>
     478:	8e028b03 	vmlahi.f64	d8, d2, d3
     47c:	680e4401 	stmdavs	lr, {r0, sl, lr}
     480:	240e0a78 	strcs	r0, [lr], #-2680	; 0xfffff588
     484:	cacbce42 	bgt	ff2f3d94 <errno+0xff2d4560>
     488:	c6c7c8c9 	strbgt	ip, [r7], r9, asr #17
     48c:	000ec4c5 	andeq	ip, lr, r5, asr #9
     490:	6a020b42 	bvs	831a0 <errno+0x6396c>
     494:	42240e0a 	eormi	r0, r4, #10, 28	; 0xa0
     498:	c7c6c5c4 	strbgt	ip, [r6, r4, asr #11]
     49c:	cbcac9c8 	blgt	ff2b2bc4 <errno+0xff293390>
     4a0:	42000ece 	andmi	r0, r0, #3296	; 0xce0
     4a4:	0a9c020b 	beq	fe700cd8 <errno+0xfe6e14a4>
     4a8:	c442240e 	strbgt	r2, [r2], #-1038	; 0xfffffbf2
     4ac:	c8c7c6c5 	stmiagt	r7, {r0, r2, r6, r7, r9, sl, lr, pc}^
     4b0:	cecbcac9 	cdpgt	10, 12, cr12, cr11, cr9, {6}
     4b4:	0b42000e 	bleq	10804f4 <errno+0x1060cc0>
     4b8:	0000000c 	andeq	r0, r0, ip
     4bc:	00000448 	andeq	r0, r0, r8, asr #8
     4c0:	0000b818 	andeq	fp, r0, r8, lsl r8
     4c4:	0000001c 	andeq	r0, r0, ip, lsl r0
     4c8:	0000000c 	andeq	r0, r0, ip
     4cc:	ffffffff 			; <UNDEFINED> instruction: 0xffffffff
     4d0:	7c020001 	stcvc	0, cr0, [r2], {1}
     4d4:	000d0c0e 	andeq	r0, sp, lr, lsl #24
     4d8:	00000020 	andeq	r0, r0, r0, lsr #32
     4dc:	000004c8 	andeq	r0, r0, r8, asr #9
     4e0:	0000b834 	andeq	fp, r0, r4, lsr r8
     4e4:	00000044 	andeq	r0, r0, r4, asr #32
     4e8:	84100e46 	ldrhi	r0, [r0], #-3654	; 0xfffff1ba
     4ec:	86038504 	strhi	r8, [r3], -r4, lsl #10
     4f0:	58018e02 	stmdapl	r1, {r1, r9, sl, fp, pc}
     4f4:	c4c5c6ce 	strbgt	ip, [r5], #1742	; 0x6ce
     4f8:	0000000e 	andeq	r0, r0, lr
     4fc:	0000000c 	andeq	r0, r0, ip
     500:	ffffffff 			; <UNDEFINED> instruction: 0xffffffff
     504:	7c020001 	stcvc	0, cr0, [r2], {1}
     508:	000d0c0e 	andeq	r0, sp, lr, lsl #24
     50c:	00000030 	andeq	r0, r0, r0, lsr r0
     510:	000004fc 	strdeq	r0, [r0], -ip
     514:	0000b878 	andeq	fp, r0, r8, ror r8
     518:	00000084 	andeq	r0, r0, r4, lsl #1
     51c:	84180e42 	ldrhi	r0, [r8], #-3650	; 0xfffff1be
     520:	86058506 	strhi	r8, [r5], -r6, lsl #10
     524:	88038704 	stmdahi	r3, {r2, r8, r9, sl, pc}
     528:	76018e02 	strvc	r8, [r1], -r2, lsl #28
     52c:	c7c8ce0a 	strbgt	ip, [r8, sl, lsl #28]
     530:	0ec4c5c6 	cdpeq	5, 12, cr12, cr4, cr6, {6}
     534:	460b4200 	strmi	r4, [fp], -r0, lsl #4
     538:	c7c6c5c4 	strbgt	ip, [r6, r4, asr #11]
     53c:	000ecec8 	andeq	ip, lr, r8, asr #29
     540:	00000038 	andeq	r0, r0, r8, lsr r0
     544:	000004fc 	strdeq	r0, [r0], -ip
     548:	0000b8fc 	strdeq	fp, [r0], -ip
     54c:	0000008c 	andeq	r0, r0, ip, lsl #1
     550:	84200e42 	strthi	r0, [r0], #-3650	; 0xfffff1be
     554:	86078508 	strhi	r8, [r7], -r8, lsl #10
     558:	88058706 	stmdahi	r5, {r1, r2, r8, r9, sl, pc}
     55c:	8a038904 	bhi	e2974 <errno+0xc3140>
     560:	7a018e02 	bvc	63d70 <errno+0x4453c>
     564:	c9cace0a 	stmibgt	sl, {r1, r3, r9, sl, fp, lr, pc}^
     568:	c5c6c7c8 	strbgt	ip, [r6, #1992]	; 0x7c8
     56c:	42000ec4 	andmi	r0, r0, #196, 28	; 0xc40
     570:	c5c4460b 	strbgt	r4, [r4, #1547]	; 0x60b
     574:	c9c8c7c6 	stmibgt	r8, {r1, r2, r6, r7, r8, r9, sl, lr, pc}^
     578:	000ececa 	andeq	ip, lr, sl, asr #29
     57c:	0000000c 	andeq	r0, r0, ip
     580:	ffffffff 			; <UNDEFINED> instruction: 0xffffffff
     584:	7c020001 	stcvc	0, cr0, [r2], {1}
     588:	000d0c0e 	andeq	r0, sp, lr, lsl #24
     58c:	00000034 	andeq	r0, r0, r4, lsr r0
     590:	0000057c 	andeq	r0, r0, ip, ror r5
     594:	0000b988 	andeq	fp, r0, r8, lsl #19
     598:	00000094 	muleq	r0, r4, r0
     59c:	84100e42 	ldrhi	r0, [r0], #-3650	; 0xfffff1be
     5a0:	86038504 	strhi	r8, [r3], -r4, lsl #10
     5a4:	48018e02 	stmdami	r1, {r1, r9, sl, fp, pc}
     5a8:	0a62500e 	beq	18945e8 <errno+0x1874db4>
     5ac:	ce42100e 	cdpgt	0, 4, cr1, cr2, cr14, {0}
     5b0:	0ec4c5c6 	cdpeq	5, 12, cr12, cr4, cr6, {6}
     5b4:	560b4200 	strpl	r4, [fp], -r0, lsl #4
     5b8:	c442100e 	strbgt	r1, [r2], #-14
     5bc:	0ecec6c5 	cdpeq	6, 12, cr12, cr14, cr5, {6}
     5c0:	00000000 	andeq	r0, r0, r0
     5c4:	00000028 	andeq	r0, r0, r8, lsr #32
     5c8:	0000057c 	andeq	r0, r0, ip, ror r5
     5cc:	0000ba1c 	andeq	fp, r0, ip, lsl sl
     5d0:	000000e8 	andeq	r0, r0, r8, ror #1
     5d4:	84100e56 	ldrhi	r0, [r0], #-3670	; 0xfffff1aa
     5d8:	86038504 	strhi	r8, [r3], -r4, lsl #10
     5dc:	42018e02 	andmi	r8, r1, #2, 28
     5e0:	0a74180e 	beq	1d06620 <errno+0x1ce6dec>
     5e4:	ce42100e 	cdpgt	0, 4, cr1, cr2, cr14, {0}
     5e8:	0ec4c5c6 	cdpeq	5, 12, cr12, cr4, cr6, {6}
     5ec:	000b4200 	andeq	r4, fp, r0, lsl #4
     5f0:	0000000c 	andeq	r0, r0, ip
     5f4:	ffffffff 			; <UNDEFINED> instruction: 0xffffffff
     5f8:	7c020001 	stcvc	0, cr0, [r2], {1}
     5fc:	000d0c0e 	andeq	r0, sp, lr, lsl #24
     600:	00000070 	andeq	r0, r0, r0, ror r0
     604:	000005f0 	strdeq	r0, [r0], -r0	; <UNPREDICTABLE>
     608:	0000bb04 	andeq	fp, r0, r4, lsl #22
     60c:	000007a8 	andeq	r0, r0, r8, lsr #15
     610:	84240e42 	strthi	r0, [r4], #-3650	; 0xfffff1be
     614:	86088509 	strhi	r8, [r8], -r9, lsl #10
     618:	88068707 	stmdahi	r6, {r0, r1, r2, r8, r9, sl, pc}
     61c:	8a048905 	bhi	122a38 <errno+0x103204>
     620:	8e028b03 	vmlahi.f64	d8, d2, d3
     624:	300e4601 	andcc	r4, lr, r1, lsl #12
     628:	0a012203 	beq	48e3c <errno+0x29608>
     62c:	ce42240e 	cdpgt	4, 4, cr2, cr2, cr14, {0}
     630:	c8c9cacb 	stmiagt	r9, {r0, r1, r3, r6, r7, r9, fp, lr, pc}^
     634:	c4c5c6c7 	strbgt	ip, [r5], #1735	; 0x6c7
     638:	0b42000e 	bleq	1080678 <errno+0x1060e44>
     63c:	240e0a4a 	strcs	r0, [lr], #-2634	; 0xfffff5b6
     640:	c6c5c442 	strbgt	ip, [r5], r2, asr #8
     644:	cac9c8c7 	bgt	ff272968 <errno+0xff253134>
     648:	000ececb 	andeq	ip, lr, fp, asr #29
     64c:	0a5e0b42 	beq	178335c <errno+0x1763b28>
     650:	c442240e 	strbgt	r2, [r2], #-1038	; 0xfffffbf2
     654:	c8c7c6c5 	stmiagt	r7, {r0, r2, r6, r7, r9, sl, lr, pc}^
     658:	cecbcac9 	cdpgt	10, 12, cr12, cr11, cr9, {6}
     65c:	0b42000e 	bleq	108069c <errno+0x1060e68>
     660:	0e0a7a02 	vmlaeq.f32	s14, s20, s4
     664:	c5c44224 	strbgt	r4, [r4, #548]	; 0x224
     668:	c9c8c7c6 	stmibgt	r8, {r1, r2, r6, r7, r8, r9, sl, lr, pc}^
     66c:	0ececbca 	cdpeq	11, 12, cr12, cr14, cr10, {6}
     670:	000b4200 	andeq	r4, fp, r0, lsl #4
     674:	0000000c 	andeq	r0, r0, ip
     678:	ffffffff 			; <UNDEFINED> instruction: 0xffffffff
     67c:	7c020001 	stcvc	0, cr0, [r2], {1}
     680:	000d0c0e 	andeq	r0, sp, lr, lsl #24
     684:	00000020 	andeq	r0, r0, r0, lsr #32
     688:	00000674 	andeq	r0, r0, r4, ror r6
     68c:	0000c2ac 	andeq	ip, r0, ip, lsr #5
     690:	00000114 	andeq	r0, r0, r4, lsl r1
     694:	840c0e44 	strhi	r0, [ip], #-3652	; 0xfffff1bc
     698:	8e028503 	cfsh32hi	mvfx8, mvfx2, #3
     69c:	0a4e0201 	beq	1380ea8 <errno+0x1361674>
     6a0:	0ec4c5ce 	cdpeq	5, 12, cr12, cr4, cr14, {6}
     6a4:	000b4200 	andeq	r4, fp, r0, lsl #4
     6a8:	0000000c 	andeq	r0, r0, ip
     6ac:	ffffffff 			; <UNDEFINED> instruction: 0xffffffff
     6b0:	7c020001 	stcvc	0, cr0, [r2], {1}
     6b4:	000d0c0e 	andeq	r0, sp, lr, lsl #24
     6b8:	00000028 	andeq	r0, r0, r8, lsr #32
     6bc:	000006a8 	andeq	r0, r0, r8, lsr #13
     6c0:	0000c3c0 	andeq	ip, r0, r0, asr #7
     6c4:	000000f0 	strdeq	r0, [r0], -r0	; <UNPREDICTABLE>
     6c8:	84140e44 	ldrhi	r0, [r4], #-3652	; 0xfffff1bc
     6cc:	86048505 	strhi	r8, [r4], -r5, lsl #10
     6d0:	8e028703 	cdphi	7, 0, cr8, cr2, cr3, {0}
     6d4:	0a6a0201 	beq	1a80ee0 <errno+0x1a616ac>
     6d8:	c5c6c7ce 	strbgt	ip, [r6, #1998]	; 0x7ce
     6dc:	42000ec4 	andmi	r0, r0, #196, 28	; 0xc40
     6e0:	0000000b 	andeq	r0, r0, fp
     6e4:	0000000c 	andeq	r0, r0, ip
     6e8:	ffffffff 			; <UNDEFINED> instruction: 0xffffffff
     6ec:	7c020001 	stcvc	0, cr0, [r2], {1}
     6f0:	000d0c0e 	andeq	r0, sp, lr, lsl #24
     6f4:	0000001c 	andeq	r0, r0, ip, lsl r0
     6f8:	000006e4 	andeq	r0, r0, r4, ror #13
     6fc:	0000c4b0 			; <UNDEFINED> instruction: 0x0000c4b0
     700:	000000f4 	strdeq	r0, [r0], -r4
     704:	84080e44 	strhi	r0, [r8], #-3652	; 0xfffff1bc
     708:	02018e02 	andeq	r8, r1, #2, 28
     70c:	c4ce0a70 	strbgt	r0, [lr], #2672	; 0xa70
     710:	0b42000e 	bleq	1080750 <errno+0x1060f1c>
     714:	0000000c 	andeq	r0, r0, ip
     718:	ffffffff 			; <UNDEFINED> instruction: 0xffffffff
     71c:	7c020001 	stcvc	0, cr0, [r2], {1}
     720:	000d0c0e 	andeq	r0, sp, lr, lsl #24
     724:	0000000c 	andeq	r0, r0, ip
     728:	00000714 	andeq	r0, r0, r4, lsl r7
     72c:	0000c5a4 	andeq	ip, r0, r4, lsr #11
     730:	00000004 	andeq	r0, r0, r4
     734:	0000000c 	andeq	r0, r0, ip
     738:	00000714 	andeq	r0, r0, r4, lsl r7
     73c:	0000c5a8 	andeq	ip, r0, r8, lsr #11
     740:	00000004 	andeq	r0, r0, r4
     744:	0000000c 	andeq	r0, r0, ip
     748:	ffffffff 			; <UNDEFINED> instruction: 0xffffffff
     74c:	7c020001 	stcvc	0, cr0, [r2], {1}
     750:	000d0c0e 	andeq	r0, sp, lr, lsl #24
     754:	00000020 	andeq	r0, r0, r0, lsr #32
     758:	00000744 	andeq	r0, r0, r4, asr #14
     75c:	0000c5ac 	andeq	ip, r0, ip, lsr #11
     760:	00000048 	andeq	r0, r0, r8, asr #32
     764:	84100e42 	ldrhi	r0, [r0], #-3650	; 0xfffff1be
     768:	86038504 	strhi	r8, [r3], -r4, lsl #10
     76c:	5e018e02 	cdppl	14, 0, cr8, cr1, cr2, {0}
     770:	c4c5c6ce 	strbgt	ip, [r5], #1742	; 0x6ce
     774:	0000000e 	andeq	r0, r0, lr
     778:	0000000c 	andeq	r0, r0, ip
     77c:	ffffffff 			; <UNDEFINED> instruction: 0xffffffff
     780:	7c020001 	stcvc	0, cr0, [r2], {1}
     784:	000d0c0e 	andeq	r0, sp, lr, lsl #24
     788:	0000002c 	andeq	r0, r0, ip, lsr #32
     78c:	00000778 	andeq	r0, r0, r8, ror r7
     790:	0000c5f4 	strdeq	ip, [r0], -r4
     794:	00000034 	andeq	r0, r0, r4, lsr r0
     798:	810c0e42 	tsthi	ip, r2, asr #28
     79c:	83028203 	movwhi	r8, #8707	; 0x2203
     7a0:	100e4201 	andne	r4, lr, r1, lsl #4
     7a4:	0e42048e 	cdpeq	4, 4, cr0, cr2, cr14, {4}
     7a8:	100e4e18 	andne	r4, lr, r8, lsl lr
     7ac:	0c0ece42 	stceq	14, cr12, [lr], {66}	; 0x42
     7b0:	c1c2c342 	bicgt	ip, r2, r2, asr #6
     7b4:	0000000e 	andeq	r0, r0, lr
     7b8:	00000030 	andeq	r0, r0, r0, lsr r0
     7bc:	00000778 	andeq	r0, r0, r8, ror r7
     7c0:	0000c628 	andeq	ip, r0, r8, lsr #12
     7c4:	00000040 	andeq	r0, r0, r0, asr #32
     7c8:	80100e42 	andshi	r0, r0, r2, asr #28
     7cc:	82038104 	andhi	r8, r3, #4, 2
     7d0:	42018302 	andmi	r8, r1, #134217728	; 0x8000000
     7d4:	058e140e 	streq	r1, [lr, #1038]	; 0x40e
     7d8:	50200e44 	eorpl	r0, r0, r4, asr #28
     7dc:	ce42140e 	cdpgt	4, 4, cr1, cr2, cr14, {0}
     7e0:	c342100e 	movtgt	r1, #8206	; 0x200e
     7e4:	0ec0c1c2 	acseqdm	f4, f2
     7e8:	00000000 	andeq	r0, r0, r0
     7ec:	0000000c 	andeq	r0, r0, ip
     7f0:	ffffffff 			; <UNDEFINED> instruction: 0xffffffff
     7f4:	7c020001 	stcvc	0, cr0, [r2], {1}
     7f8:	000d0c0e 	andeq	r0, sp, lr, lsl #24
     7fc:	00000028 	andeq	r0, r0, r8, lsr #32
     800:	000007ec 	andeq	r0, r0, ip, ror #15
     804:	0000c668 	andeq	ip, r0, r8, ror #12
     808:	000000ac 	andeq	r0, r0, ip, lsr #1
     80c:	840c0e42 	strhi	r0, [ip], #-3650	; 0xfffff1be
     810:	8e028503 	cfsh32hi	mvfx8, mvfx2, #3
     814:	300e4401 	andcc	r4, lr, r1, lsl #8
     818:	0e0a4402 	cdpeq	4, 0, cr4, cr10, cr2, {0}
     81c:	c5ce420c 	strbgt	r4, [lr, #524]	; 0x20c
     820:	42000ec4 	andmi	r0, r0, #196, 28	; 0xc40
     824:	0000000b 	andeq	r0, r0, fp
     828:	0000000c 	andeq	r0, r0, ip
     82c:	000007ec 	andeq	r0, r0, ip, ror #15
     830:	0000c714 	andeq	ip, r0, r4, lsl r7
     834:	00000014 	andeq	r0, r0, r4, lsl r0
     838:	0000000c 	andeq	r0, r0, ip
     83c:	ffffffff 			; <UNDEFINED> instruction: 0xffffffff
     840:	7c020001 	stcvc	0, cr0, [r2], {1}
     844:	000d0c0e 	andeq	r0, sp, lr, lsl #24
     848:	00000020 	andeq	r0, r0, r0, lsr #32
     84c:	00000838 	andeq	r0, r0, r8, lsr r8
     850:	0000c728 	andeq	ip, r0, r8, lsr #14
     854:	0000002c 	andeq	r0, r0, ip, lsr #32
     858:	84100e42 	ldrhi	r0, [r0], #-3650	; 0xfffff1be
     85c:	86038504 	strhi	r8, [r3], -r4, lsl #10
     860:	52018e02 	andpl	r8, r1, #2, 28
     864:	c4c5c6ce 	strbgt	ip, [r5], #1742	; 0x6ce
     868:	0000000e 	andeq	r0, r0, lr
     86c:	0000002c 	andeq	r0, r0, ip, lsr #32
     870:	00000838 	andeq	r0, r0, r8, lsr r8
     874:	0000c754 	andeq	ip, r0, r4, asr r7
     878:	000000f4 	strdeq	r0, [r0], -r4
     87c:	84100e4e 	ldrhi	r0, [r0], #-3662	; 0xfffff1b2
     880:	86038504 	strhi	r8, [r3], -r4, lsl #10
     884:	02018e02 	andeq	r8, r1, #2, 28
     888:	c6ce0a54 			; <UNDEFINED> instruction: 0xc6ce0a54
     88c:	000ec4c5 	andeq	ip, lr, r5, asr #9
     890:	ce520b42 	vnmlagt.f64	d16, d2, d2
     894:	0ec4c5c6 	cdpeq	5, 12, cr12, cr4, cr6, {6}
     898:	00000000 	andeq	r0, r0, r0
     89c:	0000000c 	andeq	r0, r0, ip
     8a0:	ffffffff 			; <UNDEFINED> instruction: 0xffffffff
     8a4:	7c020001 	stcvc	0, cr0, [r2], {1}
     8a8:	000d0c0e 	andeq	r0, sp, lr, lsl #24
     8ac:	00000018 	andeq	r0, r0, r8, lsl r0
     8b0:	0000089c 	muleq	r0, ip, r8
     8b4:	0000c848 	andeq	ip, r0, r8, asr #16
     8b8:	00000028 	andeq	r0, r0, r8, lsr #32
     8bc:	84080e4e 	strhi	r0, [r8], #-3662	; 0xfffff1b2
     8c0:	44018e02 	strmi	r8, [r1], #-3586	; 0xfffff1fe
     8c4:	000ec4ce 	andeq	ip, lr, lr, asr #9
     8c8:	0000004c 	andeq	r0, r0, ip, asr #32
     8cc:	0000089c 	muleq	r0, ip, r8
     8d0:	0000c870 	andeq	ip, r0, r0, ror r8
     8d4:	000001f0 	strdeq	r0, [r0], -r0	; <UNPREDICTABLE>
     8d8:	84180e42 	ldrhi	r0, [r8], #-3650	; 0xfffff1be
     8dc:	86058506 	strhi	r8, [r5], -r6, lsl #10
     8e0:	88038704 	stmdahi	r3, {r2, r8, r9, sl, pc}
     8e4:	02018e02 	andeq	r8, r1, #2, 28
     8e8:	c8ce0a74 	stmiagt	lr, {r2, r4, r5, r6, r9, fp}^
     8ec:	c4c5c6c7 	strbgt	ip, [r5], #1735	; 0x6c7
     8f0:	0b42000e 	bleq	1080930 <errno+0x10610fc>
     8f4:	c5c40a5a 	strbgt	r0, [r4, #2650]	; 0xa5a
     8f8:	cec8c7c6 	cdpgt	7, 12, cr12, cr8, cr6, {6}
     8fc:	0b42000e 	bleq	108093c <errno+0x1061108>
     900:	c5c40a6e 	strbgt	r0, [r4, #2670]	; 0xa6e
     904:	cec8c7c6 	cdpgt	7, 12, cr12, cr8, cr6, {6}
     908:	0b42000e 	bleq	1080948 <errno+0x1061114>
     90c:	c5c40a46 	strbgt	r0, [r4, #2630]	; 0xa46
     910:	cec8c7c6 	cdpgt	7, 12, cr12, cr8, cr6, {6}
     914:	0b42000e 	bleq	1080954 <errno+0x1061120>
     918:	0000000c 	andeq	r0, r0, ip
     91c:	ffffffff 			; <UNDEFINED> instruction: 0xffffffff
     920:	7c020001 	stcvc	0, cr0, [r2], {1}
     924:	000d0c0e 	andeq	r0, sp, lr, lsl #24
     928:	00000028 	andeq	r0, r0, r8, lsr #32
     92c:	00000918 	andeq	r0, r0, r8, lsl r9
     930:	0000ca60 	andeq	ip, r0, r0, ror #20
     934:	00000044 	andeq	r0, r0, r4, asr #32
     938:	84100e44 	ldrhi	r0, [r0], #-3652	; 0xfffff1bc
     93c:	86038504 	strhi	r8, [r3], -r4, lsl #10
     940:	50018e02 	andpl	r8, r1, r2, lsl #28
     944:	c5c6ce0a 	strbgt	ip, [r6, #3594]	; 0xe0a
     948:	42000ec4 	andmi	r0, r0, #196, 28	; 0xc40
     94c:	c5c4480b 	strbgt	r4, [r4, #2059]	; 0x80b
     950:	000ecec6 	andeq	ip, lr, r6, asr #29
     954:	0000000c 	andeq	r0, r0, ip
     958:	ffffffff 			; <UNDEFINED> instruction: 0xffffffff
     95c:	7c020001 	stcvc	0, cr0, [r2], {1}
     960:	000d0c0e 	andeq	r0, sp, lr, lsl #24
     964:	00000018 	andeq	r0, r0, r8, lsl r0
     968:	00000954 	andeq	r0, r0, r4, asr r9
     96c:	0000caa4 	andeq	ip, r0, r4, lsr #21
     970:	00000034 	andeq	r0, r0, r4, lsr r0
     974:	84080e42 	strhi	r0, [r8], #-3650	; 0xfffff1be
     978:	56018e02 	strpl	r8, [r1], -r2, lsl #28
     97c:	000ec4ce 	andeq	ip, lr, lr, asr #9
     980:	0000000c 	andeq	r0, r0, ip
     984:	00000954 	andeq	r0, r0, r4, asr r9
     988:	0000cad8 	ldrdeq	ip, [r0], -r8
     98c:	00000008 	andeq	r0, r0, r8
     990:	00000024 	andeq	r0, r0, r4, lsr #32
     994:	00000954 	andeq	r0, r0, r4, asr r9
     998:	0000cae0 	andeq	ip, r0, r0, ror #21
     99c:	00000058 	andeq	r0, r0, r8, asr r0
     9a0:	84180e42 	ldrhi	r0, [r8], #-3650	; 0xfffff1be
     9a4:	86058506 	strhi	r8, [r5], -r6, lsl #10
     9a8:	88038704 	stmdahi	r3, {r2, r8, r9, sl, pc}
     9ac:	68018e02 	stmdavs	r1, {r1, r9, sl, fp, pc}
     9b0:	c6c7c8ce 	strbgt	ip, [r7], lr, asr #17
     9b4:	000ec4c5 	andeq	ip, lr, r5, asr #9
     9b8:	00000018 	andeq	r0, r0, r8, lsl r0
     9bc:	00000954 	andeq	r0, r0, r4, asr r9
     9c0:	0000cb38 	andeq	ip, r0, r8, lsr fp
     9c4:	00000030 	andeq	r0, r0, r0, lsr r0
     9c8:	84080e42 	strhi	r0, [r8], #-3650	; 0xfffff1be
     9cc:	54018e02 	strpl	r8, [r1], #-3586	; 0xfffff1fe
     9d0:	000ec4ce 	andeq	ip, lr, lr, asr #9
     9d4:	00000018 	andeq	r0, r0, r8, lsl r0
     9d8:	00000954 	andeq	r0, r0, r4, asr r9
     9dc:	0000cb68 	andeq	ip, r0, r8, ror #22
     9e0:	00000014 	andeq	r0, r0, r4, lsl r0
     9e4:	84080e42 	strhi	r0, [r8], #-3650	; 0xfffff1be
     9e8:	46018e02 	strmi	r8, [r1], -r2, lsl #28
     9ec:	000ec4ce 	andeq	ip, lr, lr, asr #9
     9f0:	0000000c 	andeq	r0, r0, ip
     9f4:	ffffffff 			; <UNDEFINED> instruction: 0xffffffff
     9f8:	7c020001 	stcvc	0, cr0, [r2], {1}
     9fc:	000d0c0e 	andeq	r0, sp, lr, lsl #24
     a00:	00000034 	andeq	r0, r0, r4, lsr r0
     a04:	000009f0 	strdeq	r0, [r0], -r0	; <UNPREDICTABLE>
     a08:	0000cb7c 	andeq	ip, r0, ip, ror fp
     a0c:	00000168 	andeq	r0, r0, r8, ror #2
     a10:	84080e44 	strhi	r0, [r8], #-3652	; 0xfffff1bc
     a14:	02018e02 	andeq	r8, r1, #2, 28
     a18:	c4ce0a5e 	strbgt	r0, [lr], #2654	; 0xa5e
     a1c:	0b42000e 	bleq	1080a5c <errno+0x1061228>
     a20:	cec40a7e 	mcrgt	10, 6, r0, cr4, cr14, {3}
     a24:	0b42000e 	bleq	1080a64 <errno+0x1061230>
     a28:	cec40a44 	cdpgt	10, 12, cr0, cr4, cr4, {2}
     a2c:	0b42000e 	bleq	1080a6c <errno+0x1061238>
     a30:	0ecec444 	cdpeq	4, 12, cr12, cr14, cr4, {2}
     a34:	00000000 	andeq	r0, r0, r0
     a38:	0000000c 	andeq	r0, r0, ip
     a3c:	ffffffff 			; <UNDEFINED> instruction: 0xffffffff
     a40:	7c020001 	stcvc	0, cr0, [r2], {1}
     a44:	000d0c0e 	andeq	r0, sp, lr, lsl #24
     a48:	0000002c 	andeq	r0, r0, ip, lsr #32
     a4c:	00000a38 	andeq	r0, r0, r8, lsr sl
     a50:	0000cce4 	andeq	ip, r0, r4, ror #25
     a54:	00000224 	andeq	r0, r0, r4, lsr #4
     a58:	84040e62 	strhi	r0, [r4], #-3682	; 0xfffff19e
     a5c:	0ec46601 	cdpeq	6, 12, cr6, cr4, cr1, {0}
     a60:	080e5600 	stmdaeq	lr, {r9, sl, ip, lr}
     a64:	01850284 	orreq	r0, r5, r4, lsl #5
     a68:	420a9c02 	andmi	r9, sl, #512	; 0x200
     a6c:	000ec5c4 	andeq	ip, lr, r4, asr #11
     a70:	c4520b42 	ldrbgt	r0, [r2], #-2882	; 0xfffff4be
     a74:	00000ec5 	andeq	r0, r0, r5, asr #29
     a78:	0000000c 	andeq	r0, r0, ip
     a7c:	ffffffff 			; <UNDEFINED> instruction: 0xffffffff
     a80:	7c020001 	stcvc	0, cr0, [r2], {1}
     a84:	000d0c0e 	andeq	r0, sp, lr, lsl #24
     a88:	0000000c 	andeq	r0, r0, ip
     a8c:	00000a78 	andeq	r0, r0, r8, ror sl
     a90:	0000cf08 	andeq	ip, r0, r8, lsl #30
     a94:	00000060 	andeq	r0, r0, r0, rrx
     a98:	0000000c 	andeq	r0, r0, ip
     a9c:	ffffffff 			; <UNDEFINED> instruction: 0xffffffff
     aa0:	7c020001 	stcvc	0, cr0, [r2], {1}
     aa4:	000d0c0e 	andeq	r0, sp, lr, lsl #24
     aa8:	00000080 	andeq	r0, r0, r0, lsl #1
     aac:	00000a98 	muleq	r0, r8, sl
     ab0:	0000cf68 	andeq	ip, r0, r8, ror #30
     ab4:	0000222c 	andeq	r2, r0, ip, lsr #4
     ab8:	84240e42 	strthi	r0, [r4], #-3650	; 0xfffff1be
     abc:	86088509 	strhi	r8, [r8], -r9, lsl #10
     ac0:	88068707 	stmdahi	r6, {r0, r1, r2, r8, r9, sl, pc}
     ac4:	8a048905 	bhi	122ee0 <errno+0x1036ac>
     ac8:	8e028b03 	vmlahi.f64	d8, d2, d3
     acc:	3c0e4201 	sfmcc	f4, 4, [lr], {1}
     ad0:	050f5005 	streq	r5, [pc, #-5]	; ad3 <CPSR_IRQ_INHIBIT+0xa53>
     ad4:	52050e51 	andpl	r0, r5, #1296	; 0x510
     ad8:	0c53050d 	cfldr64eq	mvdx0, [r3], {13}
     adc:	050b5405 	streq	r5, [fp, #-1029]	; 0xfffffbfb
     ae0:	0e420a55 	mcreq	10, 2, r0, cr2, cr5, {2}
     ae4:	ba0302a8 	blt	c158c <errno+0xa1d58>
     ae8:	3c0e0a01 	stccc	10, cr0, [lr], {1}
     aec:	06540642 	ldrbeq	r0, [r4], -r2, asr #12
     af0:	06520655 			; <UNDEFINED> instruction: 0x06520655
     af4:	06500653 			; <UNDEFINED> instruction: 0x06500653
     af8:	42240e51 	eormi	r0, r4, #1296	; 0x510
     afc:	c9cacbce 	stmibgt	sl, {r1, r2, r3, r6, r7, r8, r9, fp, lr, pc}^
     b00:	c5c6c7c8 	strbgt	ip, [r6, #1992]	; 0x7c8
     b04:	42000ec4 	andmi	r0, r0, #196, 28	; 0xc40
     b08:	0e0a520b 	cdpeq	2, 0, cr5, cr10, cr11, {0}
     b0c:	5006423c 	andpl	r4, r6, ip, lsr r2
     b10:	52065106 	andpl	r5, r6, #-2147483647	; 0x80000001
     b14:	54065306 	strpl	r5, [r6], #-774	; 0xfffffcfa
     b18:	240e5506 	strcs	r5, [lr], #-1286	; 0xfffffafa
     b1c:	c6c5c442 	strbgt	ip, [r5], r2, asr #8
     b20:	cac9c8c7 	bgt	ff272e44 <errno+0xff253610>
     b24:	000ececb 	andeq	ip, lr, fp, asr #29
     b28:	00000b42 	andeq	r0, r0, r2, asr #22
     b2c:	0000000c 	andeq	r0, r0, ip
     b30:	00000a98 	muleq	r0, r8, sl
     b34:	0000f194 	muleq	r0, r4, r1
     b38:	0000001c 	andeq	r0, r0, ip, lsl r0
     b3c:	00000030 	andeq	r0, r0, r0, lsr r0
     b40:	00000a98 	muleq	r0, r8, sl
     b44:	0000f1b0 			; <UNDEFINED> instruction: 0x0000f1b0
     b48:	000000ac 	andeq	r0, r0, ip, lsr #1
     b4c:	84140e42 	ldrhi	r0, [r4], #-3650	; 0xfffff1be
     b50:	86048505 	strhi	r8, [r4], -r5, lsl #10
     b54:	8e028703 	cdphi	7, 0, cr8, cr2, cr3, {0}
     b58:	f40e4a01 	vst1.8	{d4-d5}, [lr], r1
     b5c:	800e4208 	andhi	r4, lr, r8, lsl #4
     b60:	0e440209 	cdpeq	2, 4, cr0, cr4, cr9, {0}
     b64:	c7ce4214 	bfigt	r4, r4, #4, #11
     b68:	0ec4c5c6 	cdpeq	5, 12, cr12, cr4, cr6, {6}
     b6c:	00000000 	andeq	r0, r0, r0
     b70:	0000000c 	andeq	r0, r0, ip
     b74:	ffffffff 			; <UNDEFINED> instruction: 0xffffffff
     b78:	7c020001 	stcvc	0, cr0, [r2], {1}
     b7c:	000d0c0e 	andeq	r0, sp, lr, lsl #24
     b80:	00000020 	andeq	r0, r0, r0, lsr #32
     b84:	00000b70 	andeq	r0, r0, r0, ror fp
     b88:	0000f25c 	andeq	pc, r0, ip, asr r2	; <UNPREDICTABLE>
     b8c:	00000048 	andeq	r0, r0, r8, asr #32
     b90:	84100e42 	ldrhi	r0, [r0], #-3650	; 0xfffff1be
     b94:	86038504 	strhi	r8, [r3], -r4, lsl #10
     b98:	5e018e02 	cdppl	14, 0, cr8, cr1, cr2, {0}
     b9c:	c4c5c6ce 	strbgt	ip, [r5], #1742	; 0x6ce
     ba0:	0000000e 	andeq	r0, r0, lr
     ba4:	0000000c 	andeq	r0, r0, ip
     ba8:	ffffffff 			; <UNDEFINED> instruction: 0xffffffff
     bac:	7c020001 	stcvc	0, cr0, [r2], {1}
     bb0:	000d0c0e 	andeq	r0, sp, lr, lsl #24
     bb4:	0000002c 	andeq	r0, r0, ip, lsr #32
     bb8:	00000ba4 	andeq	r0, r0, r4, lsr #23
     bbc:	0000f2a4 	andeq	pc, r0, r4, lsr #5
     bc0:	00000164 	andeq	r0, r0, r4, ror #2
     bc4:	84100e48 	ldrhi	r0, [r0], #-3656	; 0xfffff1b8
     bc8:	86038504 	strhi	r8, [r3], -r4, lsl #10
     bcc:	6e018e02 	cdpvs	14, 0, cr8, cr1, cr2, {0}
     bd0:	c5c6ce0a 	strbgt	ip, [r6, #3594]	; 0xe0a
     bd4:	42000ec4 	andmi	r0, r0, #196, 28	; 0xc40
     bd8:	0a44020b 	beq	110140c <errno+0x10e1bd8>
     bdc:	cec6c5c4 	cdpgt	5, 12, cr12, cr6, cr4, {6}
     be0:	0b42000e 	bleq	1080c20 <errno+0x10613ec>
     be4:	0000000c 	andeq	r0, r0, ip
     be8:	ffffffff 			; <UNDEFINED> instruction: 0xffffffff
     bec:	7c020001 	stcvc	0, cr0, [r2], {1}
     bf0:	000d0c0e 	andeq	r0, sp, lr, lsl #24
     bf4:	00000020 	andeq	r0, r0, r0, lsr #32
     bf8:	00000be4 	andeq	r0, r0, r4, ror #23
     bfc:	0000f408 	andeq	pc, r0, r8, lsl #8
     c00:	0000003c 	andeq	r0, r0, ip, lsr r0
     c04:	84100e44 	ldrhi	r0, [r0], #-3652	; 0xfffff1bc
     c08:	86038504 	strhi	r8, [r3], -r4, lsl #10
     c0c:	56018e02 	strpl	r8, [r1], -r2, lsl #28
     c10:	c4c5c6ce 	strbgt	ip, [r5], #1742	; 0x6ce
     c14:	0000000e 	andeq	r0, r0, lr
     c18:	0000000c 	andeq	r0, r0, ip
     c1c:	ffffffff 			; <UNDEFINED> instruction: 0xffffffff
     c20:	7c020001 	stcvc	0, cr0, [r2], {1}
     c24:	000d0c0e 	andeq	r0, sp, lr, lsl #24
     c28:	00000034 	andeq	r0, r0, r4, lsr r0
     c2c:	00000c18 	andeq	r0, r0, r8, lsl ip
     c30:	0000f444 	andeq	pc, r0, r4, asr #8
     c34:	000001d8 	ldrdeq	r0, [r0], -r8
     c38:	84240e42 	strthi	r0, [r4], #-3650	; 0xfffff1be
     c3c:	86088509 	strhi	r8, [r8], -r9, lsl #10
     c40:	88068707 	stmdahi	r6, {r0, r1, r2, r8, r9, sl, pc}
     c44:	8a048905 	bhi	123060 <errno+0x10382c>
     c48:	8e028b03 	vmlahi.f64	d8, d2, d3
     c4c:	300e4801 	andcc	r4, lr, r1, lsl #16
     c50:	240ede02 	strcs	sp, [lr], #-3586	; 0xfffff1fe
     c54:	cacbce42 	bgt	ff2f4564 <errno+0xff2d4d30>
     c58:	c6c7c8c9 	strbgt	ip, [r7], r9, asr #17
     c5c:	000ec4c5 	andeq	ip, lr, r5, asr #9
     c60:	00000060 	andeq	r0, r0, r0, rrx
     c64:	00000c18 	andeq	r0, r0, r8, lsl ip
     c68:	0000f620 	andeq	pc, r0, r0, lsr #12
     c6c:	000012e8 	andeq	r1, r0, r8, ror #5
     c70:	84240e42 	strthi	r0, [r4], #-3650	; 0xfffff1be
     c74:	86088509 	strhi	r8, [r8], -r9, lsl #10
     c78:	88068707 	stmdahi	r6, {r0, r1, r2, r8, r9, sl, pc}
     c7c:	8a048905 	bhi	123098 <errno+0x103864>
     c80:	8e028b03 	vmlahi.f64	d8, d2, d3
     c84:	700e4401 	andvc	r4, lr, r1, lsl #8
     c88:	0e0a5c02 	cdpeq	12, 0, cr5, cr10, cr2, {0}
     c8c:	cbce4224 	blgt	ff391524 <errno+0xff371cf0>
     c90:	c7c8c9ca 	strbgt	ip, [r8, sl, asr #19]
     c94:	0ec4c5c6 	cdpeq	5, 12, cr12, cr4, cr6, {6}
     c98:	620b4200 	andvs	r4, fp, #0, 4
     c9c:	42240e0a 	eormi	r0, r4, #10, 28	; 0xa0
     ca0:	c7c6c5c4 	strbgt	ip, [r6, r4, asr #11]
     ca4:	cbcac9c8 	blgt	ff2b33cc <errno+0xff293b98>
     ca8:	42000ece 	andmi	r0, r0, #3296	; 0xce0
     cac:	02fa030b 	rscseq	r0, sl, #738197504	; 0x2c000000
     cb0:	42240e0a 	eormi	r0, r4, #10, 28	; 0xa0
     cb4:	c7c6c5c4 	strbgt	ip, [r6, r4, asr #11]
     cb8:	cbcac9c8 	blgt	ff2b33e0 <errno+0xff293bac>
     cbc:	42000ece 	andmi	r0, r0, #3296	; 0xce0
     cc0:	0000000b 	andeq	r0, r0, fp
     cc4:	0000000c 	andeq	r0, r0, ip
     cc8:	ffffffff 			; <UNDEFINED> instruction: 0xffffffff
     ccc:	7c020001 	stcvc	0, cr0, [r2], {1}
     cd0:	000d0c0e 	andeq	r0, sp, lr, lsl #24
     cd4:	00000020 	andeq	r0, r0, r0, lsr #32
     cd8:	00000cc4 	andeq	r0, r0, r4, asr #25
     cdc:	00010908 	andeq	r0, r1, r8, lsl #18
     ce0:	000000b8 	strheq	r0, [r0], -r8
     ce4:	8e040e46 	cdphi	14, 0, cr0, cr4, cr6, {2}
     ce8:	ce0a5401 	cdpgt	4, 0, cr5, cr10, cr1, {0}
     cec:	0b42000e 	bleq	1080d2c <errno+0x10614f8>
     cf0:	0ece0a6e 	cdpeq	10, 12, cr0, cr14, cr14, {3}
     cf4:	000b4200 	andeq	r4, fp, r0, lsl #4
     cf8:	0000000c 	andeq	r0, r0, ip
     cfc:	ffffffff 			; <UNDEFINED> instruction: 0xffffffff
     d00:	7c020001 	stcvc	0, cr0, [r2], {1}
     d04:	000d0c0e 	andeq	r0, sp, lr, lsl #24
     d08:	0000006c 	andeq	r0, r0, ip, rrx
     d0c:	00000cf8 	strdeq	r0, [r0], -r8
     d10:	000109c0 	andeq	r0, r1, r0, asr #19
     d14:	000004c8 	andeq	r0, r0, r8, asr #9
     d18:	84240e48 	strthi	r0, [r4], #-3656	; 0xfffff1b8
     d1c:	86088509 	strhi	r8, [r8], -r9, lsl #10
     d20:	88068707 	stmdahi	r6, {r0, r1, r2, r8, r9, sl, pc}
     d24:	8a048905 	bhi	123140 <errno+0x10390c>
     d28:	8e028b03 	vmlahi.f64	d8, d2, d3
     d2c:	300e4601 	andcc	r4, lr, r1, lsl #12
     d30:	0e0a4a02 	vmlaeq.f32	s8, s20, s4
     d34:	cbce4224 	blgt	ff3915cc <errno+0xff371d98>
     d38:	c7c8c9ca 	strbgt	ip, [r8, sl, asr #19]
     d3c:	0ec4c5c6 	cdpeq	5, 12, cr12, cr4, cr6, {6}
     d40:	020b4200 	andeq	r4, fp, #0, 4
     d44:	c4000eb2 	strgt	r0, [r0], #-3762	; 0xfffff14e
     d48:	c8c7c6c5 	stmiagt	r7, {r0, r2, r6, r7, r9, sl, lr, pc}^
     d4c:	cecbcac9 	cdpgt	10, 12, cr12, cr11, cr9, {6}
     d50:	84300e44 	ldrthi	r0, [r0], #-3652	; 0xfffff1bc
     d54:	86088509 	strhi	r8, [r8], -r9, lsl #10
     d58:	88068707 	stmdahi	r6, {r0, r1, r2, r8, r9, sl, pc}
     d5c:	8a048905 	bhi	123178 <errno+0x103944>
     d60:	8e028b03 	vmlahi.f64	d8, d2, d3
     d64:	0e0a5401 	cdpeq	4, 0, cr5, cr10, cr1, {0}
     d68:	c5c44224 	strbgt	r4, [r4, #548]	; 0x224
     d6c:	c9c8c7c6 	stmibgt	r8, {r1, r2, r6, r7, r8, r9, sl, lr, pc}^
     d70:	0ececbca 	cdpeq	11, 12, cr12, cr14, cr10, {6}
     d74:	000b4200 	andeq	r4, fp, r0, lsl #4
     d78:	0000000c 	andeq	r0, r0, ip
     d7c:	ffffffff 			; <UNDEFINED> instruction: 0xffffffff
     d80:	7c020001 	stcvc	0, cr0, [r2], {1}
     d84:	000d0c0e 	andeq	r0, sp, lr, lsl #24
     d88:	00000020 	andeq	r0, r0, r0, lsr #32
     d8c:	00000d78 	andeq	r0, r0, r8, ror sp
     d90:	00010e88 	andeq	r0, r1, r8, lsl #29
     d94:	0000003c 	andeq	r0, r0, ip, lsr r0
     d98:	84100e44 	ldrhi	r0, [r0], #-3652	; 0xfffff1bc
     d9c:	86038504 	strhi	r8, [r3], -r4, lsl #10
     da0:	56018e02 	strpl	r8, [r1], -r2, lsl #28
     da4:	c4c5c6ce 	strbgt	ip, [r5], #1742	; 0x6ce
     da8:	0000000e 	andeq	r0, r0, lr
     dac:	0000000c 	andeq	r0, r0, ip
     db0:	ffffffff 			; <UNDEFINED> instruction: 0xffffffff
     db4:	7c020001 	stcvc	0, cr0, [r2], {1}
     db8:	000d0c0e 	andeq	r0, sp, lr, lsl #24
     dbc:	0000000c 	andeq	r0, r0, ip
     dc0:	00000dac 	andeq	r0, r0, ip, lsr #27
     dc4:	00010ec4 	andeq	r0, r1, r4, asr #29
     dc8:	00000008 	andeq	r0, r0, r8
     dcc:	0000000c 	andeq	r0, r0, ip
     dd0:	00000dac 	andeq	r0, r0, ip, lsr #27
     dd4:	00010ecc 	andeq	r0, r1, ip, asr #29
     dd8:	00000028 	andeq	r0, r0, r8, lsr #32
     ddc:	0000000c 	andeq	r0, r0, ip
     de0:	00000dac 	andeq	r0, r0, ip, lsr #27
     de4:	00010ef4 	strdeq	r0, [r1], -r4
     de8:	00000028 	andeq	r0, r0, r8, lsr #32
     dec:	0000000c 	andeq	r0, r0, ip
     df0:	ffffffff 			; <UNDEFINED> instruction: 0xffffffff
     df4:	7c020001 	stcvc	0, cr0, [r2], {1}
     df8:	000d0c0e 	andeq	r0, sp, lr, lsl #24
     dfc:	00000020 	andeq	r0, r0, r0, lsr #32
     e00:	00000dec 	andeq	r0, r0, ip, ror #27
     e04:	00010f1c 	andeq	r0, r1, ip, lsl pc
     e08:	00000048 	andeq	r0, r0, r8, asr #32
     e0c:	84100e42 	ldrhi	r0, [r0], #-3650	; 0xfffff1be
     e10:	86038504 	strhi	r8, [r3], -r4, lsl #10
     e14:	5e018e02 	cdppl	14, 0, cr8, cr1, cr2, {0}
     e18:	c4c5c6ce 	strbgt	ip, [r5], #1742	; 0x6ce
     e1c:	0000000e 	andeq	r0, r0, lr
     e20:	0000000c 	andeq	r0, r0, ip
     e24:	ffffffff 			; <UNDEFINED> instruction: 0xffffffff
     e28:	7c020001 	stcvc	0, cr0, [r2], {1}
     e2c:	000d0c0e 	andeq	r0, sp, lr, lsl #24
     e30:	0000002c 	andeq	r0, r0, ip, lsr #32
     e34:	00000e20 	andeq	r0, r0, r0, lsr #28
     e38:	00010f64 	andeq	r0, r1, r4, ror #30
     e3c:	0000012c 	andeq	r0, r0, ip, lsr #2
     e40:	84100e44 	ldrhi	r0, [r0], #-3652	; 0xfffff1bc
     e44:	86038504 	strhi	r8, [r3], -r4, lsl #10
     e48:	5a018e02 	bpl	64658 <errno+0x44e24>
     e4c:	c5c6ce0a 	strbgt	ip, [r6, #3594]	; 0xe0a
     e50:	42000ec4 	andmi	r0, r0, #196, 28	; 0xc40
     e54:	c40a580b 	strgt	r5, [sl], #-2059	; 0xfffff7f5
     e58:	0ecec6c5 	cdpeq	6, 12, cr12, cr14, cr5, {6}
     e5c:	000b4200 	andeq	r4, fp, r0, lsl #4
     e60:	0000000c 	andeq	r0, r0, ip
     e64:	ffffffff 			; <UNDEFINED> instruction: 0xffffffff
     e68:	7c020001 	stcvc	0, cr0, [r2], {1}
     e6c:	000d0c0e 	andeq	r0, sp, lr, lsl #24
     e70:	00000024 	andeq	r0, r0, r4, lsr #32
     e74:	00000e60 	andeq	r0, r0, r0, ror #28
     e78:	00011090 	muleq	r1, r0, r0
     e7c:	00000090 	muleq	r0, r0, r0
     e80:	84100e46 	ldrhi	r0, [r0], #-3654	; 0xfffff1ba
     e84:	86038504 	strhi	r8, [r3], -r4, lsl #10
     e88:	5a018e02 	bpl	64698 <errno+0x44e64>
     e8c:	c5c6ce0a 	strbgt	ip, [r6, #3594]	; 0xe0a
     e90:	42000ec4 	andmi	r0, r0, #196, 28	; 0xc40
     e94:	0000000b 	andeq	r0, r0, fp
     e98:	0000000c 	andeq	r0, r0, ip
     e9c:	00000e60 	andeq	r0, r0, r0, ror #28
     ea0:	00011120 	andeq	r1, r1, r0, lsr #2
     ea4:	0000001c 	andeq	r0, r0, ip, lsl r0
     ea8:	0000002c 	andeq	r0, r0, ip, lsr #32
     eac:	00000e60 	andeq	r0, r0, r0, ror #28
     eb0:	0001113c 	andeq	r1, r1, ip, lsr r1
     eb4:	000000dc 	ldrdeq	r0, [r0], -ip
     eb8:	84140e42 	ldrhi	r0, [r4], #-3650	; 0xfffff1be
     ebc:	86048505 	strhi	r8, [r4], -r5, lsl #10
     ec0:	8e028703 	cdphi	7, 0, cr8, cr2, cr3, {0}
     ec4:	200e4a01 	andcs	r4, lr, r1, lsl #20
     ec8:	140e0a76 	strne	r0, [lr], #-2678	; 0xfffff58a
     ecc:	c6c7ce42 	strbgt	ip, [r7], r2, asr #28
     ed0:	000ec4c5 	andeq	ip, lr, r5, asr #9
     ed4:	00000b42 	andeq	r0, r0, r2, asr #22
     ed8:	00000030 	andeq	r0, r0, r0, lsr r0
     edc:	00000e60 	andeq	r0, r0, r0, ror #28
     ee0:	00011218 	andeq	r1, r1, r8, lsl r2
     ee4:	000000e8 	andeq	r0, r0, r8, ror #1
     ee8:	84200e44 	strthi	r0, [r0], #-3652	; 0xfffff1bc
     eec:	86078508 	strhi	r8, [r7], -r8, lsl #10
     ef0:	88058706 	stmdahi	r5, {r1, r2, r8, r9, sl, pc}
     ef4:	8a038904 	bhi	e330c <errno+0xc3ad8>
     ef8:	02018e02 	andeq	r8, r1, #2, 28
     efc:	cace0a68 	bgt	ff3838a4 <errno+0xff364070>
     f00:	c6c7c8c9 	strbgt	ip, [r7], r9, asr #17
     f04:	000ec4c5 	andeq	ip, lr, r5, asr #9
     f08:	00000b42 	andeq	r0, r0, r2, asr #22
     f0c:	0000000c 	andeq	r0, r0, ip
     f10:	00000e60 	andeq	r0, r0, r0, ror #28
     f14:	00011300 	andeq	r1, r1, r0, lsl #6
     f18:	0000005c 	andeq	r0, r0, ip, asr r0
     f1c:	0000000c 	andeq	r0, r0, ip
     f20:	00000e60 	andeq	r0, r0, r0, ror #28
     f24:	0001135c 	andeq	r1, r1, ip, asr r3
     f28:	00000094 	muleq	r0, r4, r0
     f2c:	00000018 	andeq	r0, r0, r8, lsl r0
     f30:	00000e60 	andeq	r0, r0, r0, ror #28
     f34:	000113f0 	strdeq	r1, [r1], -r0
     f38:	00000024 	andeq	r0, r0, r4, lsr #32
     f3c:	84080e42 	strhi	r0, [r8], #-3650	; 0xfffff1be
     f40:	4e018e02 	cdpmi	14, 0, cr8, cr1, cr2, {0}
     f44:	000ec4ce 	andeq	ip, lr, lr, asr #9
     f48:	00000034 	andeq	r0, r0, r4, lsr r0
     f4c:	00000e60 	andeq	r0, r0, r0, ror #28
     f50:	00011414 	andeq	r1, r1, r4, lsl r4
     f54:	000001f0 	strdeq	r0, [r0], -r0	; <UNPREDICTABLE>
     f58:	84240e42 	strthi	r0, [r4], #-3650	; 0xfffff1be
     f5c:	86088509 	strhi	r8, [r8], -r9, lsl #10
     f60:	88068707 	stmdahi	r6, {r0, r1, r2, r8, r9, sl, pc}
     f64:	8a048905 	bhi	123380 <errno+0x103b4c>
     f68:	8e028b03 	vmlahi.f64	d8, d2, d3
     f6c:	380e4801 	stmdacc	lr, {r0, fp, lr}
     f70:	240eea02 	strcs	lr, [lr], #-2562	; 0xfffff5fe
     f74:	cacbce42 	bgt	ff2f4884 <errno+0xff2d5050>
     f78:	c6c7c8c9 	strbgt	ip, [r7], r9, asr #17
     f7c:	000ec4c5 	andeq	ip, lr, r5, asr #9
     f80:	00000028 	andeq	r0, r0, r8, lsr #32
     f84:	00000e60 	andeq	r0, r0, r0, ror #28
     f88:	00011604 	andeq	r1, r1, r4, lsl #12
     f8c:	00000104 	andeq	r0, r0, r4, lsl #2
     f90:	84180e44 	ldrhi	r0, [r8], #-3652	; 0xfffff1bc
     f94:	86058506 	strhi	r8, [r5], -r6, lsl #10
     f98:	88038704 	stmdahi	r3, {r2, r8, r9, sl, pc}
     f9c:	02018e02 	andeq	r8, r1, #2, 28
     fa0:	c8ce0a44 	stmiagt	lr, {r2, r6, r9, fp}^
     fa4:	c4c5c6c7 	strbgt	ip, [r5], #1735	; 0x6c7
     fa8:	0b42000e 	bleq	1080fe8 <errno+0x10617b4>
     fac:	00000030 	andeq	r0, r0, r0, lsr r0
     fb0:	00000e60 	andeq	r0, r0, r0, ror #28
     fb4:	00011708 	andeq	r1, r1, r8, lsl #14
     fb8:	000000f4 	strdeq	r0, [r0], -r4
     fbc:	84200e42 	strthi	r0, [r0], #-3650	; 0xfffff1be
     fc0:	86078508 	strhi	r8, [r7], -r8, lsl #10
     fc4:	88058706 	stmdahi	r5, {r1, r2, r8, r9, sl, pc}
     fc8:	8a038904 	bhi	e33e0 <errno+0xc3bac>
     fcc:	02018e02 	andeq	r8, r1, #2, 28
     fd0:	cace0a66 	bgt	ff383970 <errno+0xff36413c>
     fd4:	c6c7c8c9 	strbgt	ip, [r7], r9, asr #17
     fd8:	000ec4c5 	andeq	ip, lr, r5, asr #9
     fdc:	00000b42 	andeq	r0, r0, r2, asr #22
     fe0:	0000000c 	andeq	r0, r0, ip
     fe4:	00000e60 	andeq	r0, r0, r0, ror #28
     fe8:	000117fc 	strdeq	r1, [r1], -ip
     fec:	00000064 	andeq	r0, r0, r4, rrx
     ff0:	0000003c 	andeq	r0, r0, ip, lsr r0
     ff4:	00000e60 	andeq	r0, r0, r0, ror #28
     ff8:	00011860 	andeq	r1, r1, r0, ror #16
     ffc:	000001b0 			; <UNDEFINED> instruction: 0x000001b0
    1000:	84200e42 	strthi	r0, [r0], #-3650	; 0xfffff1be
    1004:	86078508 	strhi	r8, [r7], -r8, lsl #10
    1008:	88058706 	stmdahi	r5, {r1, r2, r8, r9, sl, pc}
    100c:	8a038904 	bhi	e3424 <errno+0xc3bf0>
    1010:	02018e02 	andeq	r8, r1, #2, 28
    1014:	cace0aae 	bgt	ff383ad4 <errno+0xff3642a0>
    1018:	c6c7c8c9 	strbgt	ip, [r7], r9, asr #17
    101c:	000ec4c5 	andeq	ip, lr, r5, asr #9
    1020:	0a4e0b42 	beq	1383d30 <errno+0x13644fc>
    1024:	c7c6c5c4 	strbgt	ip, [r6, r4, asr #11]
    1028:	cecac9c8 	cdpgt	9, 12, cr12, cr10, cr8, {6}
    102c:	0b42000e 	bleq	108106c <errno+0x1061838>
    1030:	0000000c 	andeq	r0, r0, ip
    1034:	00000e60 	andeq	r0, r0, r0, ror #28
    1038:	00011a10 	andeq	r1, r1, r0, lsl sl
    103c:	00000078 	andeq	r0, r0, r8, ror r0
    1040:	00000034 	andeq	r0, r0, r4, lsr r0
    1044:	00000e60 	andeq	r0, r0, r0, ror #28
    1048:	00011a88 	andeq	r1, r1, r8, lsl #21
    104c:	000000dc 	ldrdeq	r0, [r0], -ip
    1050:	84180e42 	ldrhi	r0, [r8], #-3650	; 0xfffff1be
    1054:	86058506 	strhi	r8, [r5], -r6, lsl #10
    1058:	88038704 	stmdahi	r3, {r2, r8, r9, sl, pc}
    105c:	6e018e02 	cdpvs	14, 0, cr8, cr1, cr2, {0}
    1060:	c7c8ce0a 	strbgt	ip, [r8, sl, lsl #28]
    1064:	0ec4c5c6 	cdpeq	5, 12, cr12, cr4, cr6, {6}
    1068:	700b4200 	andvc	r4, fp, r0, lsl #4
    106c:	c6c5c40a 	strbgt	ip, [r5], sl, lsl #8
    1070:	0ecec8c7 	cdpeq	8, 12, cr12, cr14, cr7, {6}
    1074:	000b4200 	andeq	r4, fp, r0, lsl #4
    1078:	00000040 	andeq	r0, r0, r0, asr #32
    107c:	00000e60 	andeq	r0, r0, r0, ror #28
    1080:	00011b64 	andeq	r1, r1, r4, ror #22
    1084:	0000010c 	andeq	r0, r0, ip, lsl #2
    1088:	841c0e42 	ldrhi	r0, [ip], #-3650	; 0xfffff1be
    108c:	86068507 	strhi	r8, [r6], -r7, lsl #10
    1090:	88048705 	stmdahi	r4, {r0, r2, r8, r9, sl, pc}
    1094:	8e028903 	cdphi	9, 0, cr8, cr2, cr3, {0}
    1098:	280e4401 	stmdacs	lr, {r0, sl, lr}
    109c:	0e0a5402 	cdpeq	4, 0, cr5, cr10, cr2, {0}
    10a0:	c9ce421c 	stmibgt	lr, {r2, r3, r4, r9, lr}^
    10a4:	c5c6c7c8 	strbgt	ip, [r6, #1992]	; 0x7c8
    10a8:	42000ec4 	andmi	r0, r0, #196, 28	; 0xc40
    10ac:	1c0e640b 	cfstrsne	mvf6, [lr], {11}
    10b0:	c6c5c442 	strbgt	ip, [r5], r2, asr #8
    10b4:	cec9c8c7 	cdpgt	8, 12, cr12, cr9, cr7, {6}
    10b8:	0000000e 	andeq	r0, r0, lr
    10bc:	00000024 	andeq	r0, r0, r4, lsr #32
    10c0:	00000e60 	andeq	r0, r0, r0, ror #28
    10c4:	00011c70 	andeq	r1, r1, r0, ror ip
    10c8:	00000084 	andeq	r0, r0, r4, lsl #1
    10cc:	840c0e42 	strhi	r0, [ip], #-3650	; 0xfffff1be
    10d0:	8e028503 	cfsh32hi	mvfx8, mvfx2, #3
    10d4:	280e4201 	stmdacs	lr, {r0, r9, lr}
    10d8:	420c0e7a 	andmi	r0, ip, #1952	; 0x7a0
    10dc:	0ec4c5ce 	cdpeq	5, 12, cr12, cr4, cr14, {6}
    10e0:	00000000 	andeq	r0, r0, r0
    10e4:	0000000c 	andeq	r0, r0, ip
    10e8:	00000e60 	andeq	r0, r0, r0, ror #28
    10ec:	00011cf8 	strdeq	r1, [r1], -r8
    10f0:	00000044 	andeq	r0, r0, r4, asr #32
    10f4:	00000018 	andeq	r0, r0, r8, lsl r0
    10f8:	00000e60 	andeq	r0, r0, r0, ror #28
    10fc:	00011d3c 	andeq	r1, r1, ip, lsr sp
    1100:	00000070 	andeq	r0, r0, r0, ror r0
    1104:	84080e48 	strhi	r0, [r8], #-3656	; 0xfffff1b8
    1108:	6e018e02 	cdpvs	14, 0, cr8, cr1, cr2, {0}
    110c:	000ec4ce 	andeq	ip, lr, lr, asr #9
    1110:	0000000c 	andeq	r0, r0, ip
    1114:	00000e60 	andeq	r0, r0, r0, ror #28
    1118:	00011dac 	andeq	r1, r1, ip, lsr #27
    111c:	00000080 	andeq	r0, r0, r0, lsl #1
    1120:	0000000c 	andeq	r0, r0, ip
    1124:	ffffffff 			; <UNDEFINED> instruction: 0xffffffff
    1128:	7c020001 	stcvc	0, cr0, [r2], {1}
    112c:	000d0c0e 	andeq	r0, sp, lr, lsl #24
    1130:	00000020 	andeq	r0, r0, r0, lsr #32
    1134:	00001120 	andeq	r1, r0, r0, lsr #2
    1138:	00011e2c 	andeq	r1, r1, ip, lsr #28
    113c:	00000048 	andeq	r0, r0, r8, asr #32
    1140:	84100e42 	ldrhi	r0, [r0], #-3650	; 0xfffff1be
    1144:	86038504 	strhi	r8, [r3], -r4, lsl #10
    1148:	5e018e02 	cdppl	14, 0, cr8, cr1, cr2, {0}
    114c:	c4c5c6ce 	strbgt	ip, [r5], #1742	; 0x6ce
    1150:	0000000e 	andeq	r0, r0, lr
    1154:	0000000c 	andeq	r0, r0, ip
    1158:	ffffffff 			; <UNDEFINED> instruction: 0xffffffff
    115c:	7c020001 	stcvc	0, cr0, [r2], {1}
    1160:	000d0c0e 	andeq	r0, sp, lr, lsl #24
    1164:	0000005c 	andeq	r0, r0, ip, asr r0
    1168:	00001154 	andeq	r1, r0, r4, asr r1
    116c:	00011e74 	andeq	r1, r1, r4, ror lr
    1170:	00000580 	andeq	r0, r0, r0, lsl #11
    1174:	84240e42 	strthi	r0, [r4], #-3650	; 0xfffff1be
    1178:	86088509 	strhi	r8, [r8], -r9, lsl #10
    117c:	88068707 	stmdahi	r6, {r0, r1, r2, r8, r9, sl, pc}
    1180:	8a048905 	bhi	12359c <errno+0x103d68>
    1184:	8e028b03 	vmlahi.f64	d8, d2, d3
    1188:	300e4401 	andcc	r4, lr, r1, lsl #8
    118c:	0e0a8802 	cdpeq	8, 0, cr8, cr10, cr2, {0}
    1190:	cbce4224 	blgt	ff391a28 <errno+0xff3721f4>
    1194:	c7c8c9ca 	strbgt	ip, [r8, sl, asr #19]
    1198:	0ec4c5c6 	cdpeq	5, 12, cr12, cr4, cr6, {6}
    119c:	020b4200 	andeq	r4, fp, #0, 4
    11a0:	240e0a7e 	strcs	r0, [lr], #-2686	; 0xfffff582
    11a4:	c6c5c442 	strbgt	ip, [r5], r2, asr #8
    11a8:	cac9c8c7 	bgt	ff2734cc <errno+0xff253c98>
    11ac:	000ececb 	andeq	ip, lr, fp, asr #29
    11b0:	0a780b42 	beq	1e03ec0 <errno+0x1de468c>
    11b4:	c442240e 	strbgt	r2, [r2], #-1038	; 0xfffffbf2
    11b8:	c8c7c6c5 	stmiagt	r7, {r0, r2, r6, r7, r9, sl, lr, pc}^
    11bc:	cecbcac9 	cdpgt	10, 12, cr12, cr11, cr9, {6}
    11c0:	0b42000e 	bleq	1081200 <errno+0x10619cc>
    11c4:	0000000c 	andeq	r0, r0, ip
    11c8:	ffffffff 			; <UNDEFINED> instruction: 0xffffffff
    11cc:	7c020001 	stcvc	0, cr0, [r2], {1}
    11d0:	000d0c0e 	andeq	r0, sp, lr, lsl #24
    11d4:	00000030 	andeq	r0, r0, r0, lsr r0
    11d8:	000011c4 	andeq	r1, r0, r4, asr #3
    11dc:	000123f4 	strdeq	r2, [r1], -r4
    11e0:	000000ac 	andeq	r0, r0, ip, lsr #1
    11e4:	84200e46 	strthi	r0, [r0], #-3654	; 0xfffff1ba
    11e8:	86078508 	strhi	r8, [r7], -r8, lsl #10
    11ec:	88058706 	stmdahi	r5, {r1, r2, r8, r9, sl, pc}
    11f0:	8a038904 	bhi	e3608 <errno+0xc3dd4>
    11f4:	7a018e02 	bvc	64a04 <errno+0x451d0>
    11f8:	c9cace0a 	stmibgt	sl, {r1, r3, r9, sl, fp, lr, pc}^
    11fc:	c5c6c7c8 	strbgt	ip, [r6, #1992]	; 0x7c8
    1200:	42000ec4 	andmi	r0, r0, #196, 28	; 0xc40
    1204:	0000000b 	andeq	r0, r0, fp
    1208:	0000000c 	andeq	r0, r0, ip
    120c:	000011c4 	andeq	r1, r0, r4, asr #3
    1210:	000124a0 	andeq	r2, r1, r0, lsr #9
    1214:	00000018 	andeq	r0, r0, r8, lsl r0
    1218:	00000050 	andeq	r0, r0, r0, asr r0
    121c:	000011c4 	andeq	r1, r0, r4, asr #3
    1220:	000124b8 			; <UNDEFINED> instruction: 0x000124b8
    1224:	00001560 	andeq	r1, r0, r0, ror #10
    1228:	84240e42 	strthi	r0, [r4], #-3650	; 0xfffff1be
    122c:	86088509 	strhi	r8, [r8], -r9, lsl #10
    1230:	88068707 	stmdahi	r6, {r0, r1, r2, r8, r9, sl, pc}
    1234:	8a048905 	bhi	123650 <errno+0x103e1c>
    1238:	8e028b03 	vmlahi.f64	d8, d2, d3
    123c:	e00e4401 	and	r4, lr, r1, lsl #8
    1240:	01900301 	orrseq	r0, r0, r1, lsl #6
    1244:	42240e0a 	eormi	r0, r4, #10, 28	; 0xa0
    1248:	c9cacbce 	stmibgt	sl, {r1, r2, r3, r6, r7, r8, r9, fp, lr, pc}^
    124c:	c5c6c7c8 	strbgt	ip, [r6, #1992]	; 0x7c8
    1250:	42000ec4 	andmi	r0, r0, #196, 28	; 0xc40
    1254:	057c030b 	ldrbeq	r0, [ip, #-779]!	; 0xfffffcf5
    1258:	42240e0a 	eormi	r0, r4, #10, 28	; 0xa0
    125c:	c7c6c5c4 	strbgt	ip, [r6, r4, asr #11]
    1260:	cbcac9c8 	blgt	ff2b3988 <errno+0xff294154>
    1264:	42000ece 	andmi	r0, r0, #3296	; 0xce0
    1268:	0000000b 	andeq	r0, r0, fp
    126c:	0000000c 	andeq	r0, r0, ip
    1270:	000011c4 	andeq	r1, r0, r4, asr #3
    1274:	00013a18 	andeq	r3, r1, r8, lsl sl
    1278:	0000001c 	andeq	r0, r0, ip, lsl r0
    127c:	00000030 	andeq	r0, r0, r0, lsr r0
    1280:	000011c4 	andeq	r1, r0, r4, asr #3
    1284:	00013a34 	andeq	r3, r1, r4, lsr sl
    1288:	000000ac 	andeq	r0, r0, ip, lsr #1
    128c:	84140e42 	ldrhi	r0, [r4], #-3650	; 0xfffff1be
    1290:	86048505 	strhi	r8, [r4], -r5, lsl #10
    1294:	8e028703 	cdphi	7, 0, cr8, cr2, cr3, {0}
    1298:	f40e4a01 	vst1.8	{d4-d5}, [lr], r1
    129c:	800e4208 	andhi	r4, lr, r8, lsl #4
    12a0:	0e440209 	cdpeq	2, 4, cr0, cr4, cr9, {0}
    12a4:	c7ce4214 	bfigt	r4, r4, #4, #11
    12a8:	0ec4c5c6 	cdpeq	5, 12, cr12, cr4, cr6, {6}
    12ac:	00000000 	andeq	r0, r0, r0
    12b0:	0000000c 	andeq	r0, r0, ip
    12b4:	ffffffff 			; <UNDEFINED> instruction: 0xffffffff
    12b8:	7c020001 	stcvc	0, cr0, [r2], {1}
    12bc:	000d0c0e 	andeq	r0, sp, lr, lsl #24
    12c0:	00000020 	andeq	r0, r0, r0, lsr #32
    12c4:	000012b0 			; <UNDEFINED> instruction: 0x000012b0
    12c8:	00013ae0 	andeq	r3, r1, r0, ror #21
    12cc:	00000098 	muleq	r0, r8, r0
    12d0:	84080e42 	strhi	r0, [r8], #-3650	; 0xfffff1be
    12d4:	7e018e02 	cdpvc	14, 0, cr8, cr1, cr2, {0}
    12d8:	0ec4ce0a 	cdpeq	14, 12, cr12, cr4, cr10, {0}
    12dc:	480b4200 	stmdami	fp, {r9, lr}
    12e0:	000ecec4 	andeq	ip, lr, r4, asr #29
    12e4:	0000000c 	andeq	r0, r0, ip
    12e8:	ffffffff 			; <UNDEFINED> instruction: 0xffffffff
    12ec:	7c020001 	stcvc	0, cr0, [r2], {1}
    12f0:	000d0c0e 	andeq	r0, sp, lr, lsl #24
    12f4:	0000004c 	andeq	r0, r0, ip, asr #32
    12f8:	000012e4 	andeq	r1, r0, r4, ror #5
    12fc:	00013b78 	andeq	r3, r1, r8, ror fp
    1300:	00000110 	andeq	r0, r0, r0, lsl r1
    1304:	84180e42 	ldrhi	r0, [r8], #-3650	; 0xfffff1be
    1308:	86058506 	strhi	r8, [r5], -r6, lsl #10
    130c:	88038704 	stmdahi	r3, {r2, r8, r9, sl, pc}
    1310:	42018e02 	andmi	r8, r1, #2, 28
    1314:	5e02200e 	cdppl	0, 0, cr2, cr2, cr14, {0}
    1318:	42180e0a 	andsmi	r0, r8, #10, 28	; 0xa0
    131c:	c6c7c8ce 	strbgt	ip, [r7], lr, asr #17
    1320:	000ec4c5 	andeq	ip, lr, r5, asr #9
    1324:	0a480b42 	beq	1204034 <errno+0x11e4800>
    1328:	c442180e 	strbgt	r1, [r2], #-2062	; 0xfffff7f2
    132c:	c8c7c6c5 	stmiagt	r7, {r0, r2, r6, r7, r9, sl, lr, pc}^
    1330:	42000ece 	andmi	r0, r0, #3296	; 0xce0
    1334:	180e520b 	stmdane	lr, {r0, r1, r3, r9, ip, lr}
    1338:	c6c5c442 	strbgt	ip, [r5], r2, asr #8
    133c:	0ecec8c7 	cdpeq	8, 12, cr12, cr14, cr7, {6}
    1340:	00000000 	andeq	r0, r0, r0
    1344:	0000000c 	andeq	r0, r0, ip
    1348:	000012e4 	andeq	r1, r0, r4, ror #5
    134c:	00013c88 	andeq	r3, r1, r8, lsl #25
    1350:	00000020 	andeq	r0, r0, r0, lsr #32
    1354:	00000024 	andeq	r0, r0, r4, lsr #32
    1358:	000012e4 	andeq	r1, r0, r4, ror #5
    135c:	00013ca8 	andeq	r3, r1, r8, lsr #25
    1360:	00000068 	andeq	r0, r0, r8, rrx
    1364:	84100e44 	ldrhi	r0, [r0], #-3652	; 0xfffff1bc
    1368:	86038504 	strhi	r8, [r3], -r4, lsl #10
    136c:	66018e02 	strvs	r8, [r1], -r2, lsl #28
    1370:	c5c6ce0a 	strbgt	ip, [r6, #3594]	; 0xe0a
    1374:	42000ec4 	andmi	r0, r0, #196, 28	; 0xc40
    1378:	0000000b 	andeq	r0, r0, fp
    137c:	0000000c 	andeq	r0, r0, ip
    1380:	ffffffff 			; <UNDEFINED> instruction: 0xffffffff
    1384:	7c020001 	stcvc	0, cr0, [r2], {1}
    1388:	000d0c0e 	andeq	r0, sp, lr, lsl #24
    138c:	0000000c 	andeq	r0, r0, ip
    1390:	0000137c 	andeq	r1, r0, ip, ror r3
    1394:	00013d10 	andeq	r3, r1, r0, lsl sp
    1398:	00000024 	andeq	r0, r0, r4, lsr #32
    139c:	00000020 	andeq	r0, r0, r0, lsr #32
    13a0:	0000137c 	andeq	r1, r0, ip, ror r3
    13a4:	00013d34 	andeq	r3, r1, r4, lsr sp
    13a8:	00000074 	andeq	r0, r0, r4, ror r0
    13ac:	84080e46 	strhi	r0, [r8], #-3654	; 0xfffff1ba
    13b0:	50018e02 	andpl	r8, r1, r2, lsl #28
    13b4:	0ec4ce0a 	cdpeq	14, 12, cr12, cr4, cr10, {0}
    13b8:	580b4200 	stmdapl	fp, {r9, lr}
    13bc:	cec4000e 	cdpgt	0, 12, cr0, cr4, cr14, {0}
    13c0:	0000000c 	andeq	r0, r0, ip
    13c4:	0000137c 	andeq	r1, r0, ip, ror r3
    13c8:	00013da8 	andeq	r3, r1, r8, lsr #27
    13cc:	00000028 	andeq	r0, r0, r8, lsr #32
    13d0:	0000000c 	andeq	r0, r0, ip
    13d4:	0000137c 	andeq	r1, r0, ip, ror r3
    13d8:	00013dd0 	ldrdeq	r3, [r1], -r0
    13dc:	00000008 	andeq	r0, r0, r8
    13e0:	00000018 	andeq	r0, r0, r8, lsl r0
    13e4:	0000137c 	andeq	r1, r0, ip, ror r3
    13e8:	00013dd8 	ldrdeq	r3, [r1], -r8
    13ec:	00000020 	andeq	r0, r0, r0, lsr #32
    13f0:	84080e44 	strhi	r0, [r8], #-3652	; 0xfffff1bc
    13f4:	46018e02 	strmi	r8, [r1], -r2, lsl #28
    13f8:	000ec4ce 	andeq	ip, lr, lr, asr #9
    13fc:	0000000c 	andeq	r0, r0, ip
    1400:	0000137c 	andeq	r1, r0, ip, ror r3
    1404:	00013df8 	strdeq	r3, [r1], -r8
    1408:	00000018 	andeq	r0, r0, r8, lsl r0
    140c:	0000000c 	andeq	r0, r0, ip
    1410:	ffffffff 			; <UNDEFINED> instruction: 0xffffffff
    1414:	7c020001 	stcvc	0, cr0, [r2], {1}
    1418:	000d0c0e 	andeq	r0, sp, lr, lsl #24
    141c:	00000018 	andeq	r0, r0, r8, lsl r0
    1420:	0000140c 	andeq	r1, r0, ip, lsl #8
    1424:	00013e10 	andeq	r3, r1, r0, lsl lr
    1428:	00000034 	andeq	r0, r0, r4, lsr r0
    142c:	8e040e48 	cdphi	14, 0, cr0, cr4, cr8, {2}
    1430:	0ece4c01 	cdpeq	12, 12, cr4, cr14, cr1, {0}
    1434:	00000000 	andeq	r0, r0, r0
    1438:	0000001c 	andeq	r0, r0, ip, lsl r0
    143c:	0000140c 	andeq	r1, r0, ip, lsl #8
    1440:	00013e44 	andeq	r3, r1, r4, asr #28
    1444:	0000004c 	andeq	r0, r0, ip, asr #32
    1448:	56080e44 	strpl	r0, [r8], -r4, asr #28
    144c:	42000e0a 	andmi	r0, r0, #10, 28	; 0xa0
    1450:	0e0a440b 	cdpeq	4, 0, cr4, cr10, cr11, {0}
    1454:	000b4200 	andeq	r4, fp, r0, lsl #4
    1458:	0000000c 	andeq	r0, r0, ip
    145c:	ffffffff 			; <UNDEFINED> instruction: 0xffffffff
    1460:	7c020001 	stcvc	0, cr0, [r2], {1}
    1464:	000d0c0e 	andeq	r0, sp, lr, lsl #24
    1468:	00000028 	andeq	r0, r0, r8, lsr #32
    146c:	00001458 	andeq	r1, r0, r8, asr r4
    1470:	00013e90 	muleq	r1, r0, lr
    1474:	00000130 	andeq	r0, r0, r0, lsr r1
    1478:	84180e42 	ldrhi	r0, [r8], #-3650	; 0xfffff1be
    147c:	86058506 	strhi	r8, [r5], -r6, lsl #10
    1480:	88038704 	stmdahi	r3, {r2, r8, r9, sl, pc}
    1484:	02018e02 	andeq	r8, r1, #2, 28
    1488:	c8ce0a5e 	stmiagt	lr, {r1, r2, r3, r4, r6, r9, fp}^
    148c:	c4c5c6c7 	strbgt	ip, [r5], #1735	; 0x6c7
    1490:	0b42000e 	bleq	10814d0 <errno+0x1061c9c>
    1494:	0000000c 	andeq	r0, r0, ip
    1498:	00001458 	andeq	r1, r0, r8, asr r4
    149c:	00013fc0 	andeq	r3, r1, r0, asr #31
    14a0:	00000018 	andeq	r0, r0, r8, lsl r0
    14a4:	0000000c 	andeq	r0, r0, ip
    14a8:	ffffffff 			; <UNDEFINED> instruction: 0xffffffff
    14ac:	7c020001 	stcvc	0, cr0, [r2], {1}
    14b0:	000d0c0e 	andeq	r0, sp, lr, lsl #24
    14b4:	00000028 	andeq	r0, r0, r8, lsr #32
    14b8:	000014a4 	andeq	r1, r0, r4, lsr #9
    14bc:	00013fd8 	ldrdeq	r3, [r1], -r8
    14c0:	00000094 	muleq	r0, r4, r0
    14c4:	84100e42 	ldrhi	r0, [r0], #-3650	; 0xfffff1be
    14c8:	86038504 	strhi	r8, [r3], -r4, lsl #10
    14cc:	44018e02 	strmi	r8, [r1], #-3586	; 0xfffff1fe
    14d0:	0a64200e 	beq	1909510 <errno+0x18e9cdc>
    14d4:	ce42100e 	cdpgt	0, 4, cr1, cr2, cr14, {0}
    14d8:	0ec4c5c6 	cdpeq	5, 12, cr12, cr4, cr6, {6}
    14dc:	000b4200 	andeq	r4, fp, r0, lsl #4
    14e0:	00000028 	andeq	r0, r0, r8, lsr #32
    14e4:	000014a4 	andeq	r1, r0, r4, lsr #9
    14e8:	0001406c 	andeq	r4, r1, ip, rrx
    14ec:	00000098 	muleq	r0, r8, r0
    14f0:	84100e42 	ldrhi	r0, [r0], #-3650	; 0xfffff1be
    14f4:	86038504 	strhi	r8, [r3], -r4, lsl #10
    14f8:	48018e02 	stmdami	r1, {r1, r9, sl, fp, pc}
    14fc:	0a66200e 	beq	198953c <errno+0x1969d08>
    1500:	ce42100e 	cdpgt	0, 4, cr1, cr2, cr14, {0}
    1504:	0ec4c5c6 	cdpeq	5, 12, cr12, cr4, cr6, {6}
    1508:	000b4200 	andeq	r4, fp, r0, lsl #4
    150c:	0000000c 	andeq	r0, r0, ip
    1510:	ffffffff 			; <UNDEFINED> instruction: 0xffffffff
    1514:	7c020001 	stcvc	0, cr0, [r2], {1}
    1518:	000d0c0e 	andeq	r0, sp, lr, lsl #24
    151c:	00000018 	andeq	r0, r0, r8, lsl r0
    1520:	0000150c 	andeq	r1, r0, ip, lsl #10
    1524:	00014104 	andeq	r4, r1, r4, lsl #2
    1528:	00000034 	andeq	r0, r0, r4, lsr r0
    152c:	8e040e48 	cdphi	14, 0, cr0, cr4, cr8, {2}
    1530:	0ece4c01 	cdpeq	12, 12, cr4, cr14, cr1, {0}
    1534:	00000000 	andeq	r0, r0, r0
    1538:	0000000c 	andeq	r0, r0, ip
    153c:	0000150c 	andeq	r1, r0, ip, lsl #10
    1540:	00014138 	andeq	r4, r1, r8, lsr r1
    1544:	00000028 	andeq	r0, r0, r8, lsr #32
    1548:	0000000c 	andeq	r0, r0, ip
    154c:	ffffffff 			; <UNDEFINED> instruction: 0xffffffff
    1550:	7c020001 	stcvc	0, cr0, [r2], {1}
    1554:	000d0c0e 	andeq	r0, sp, lr, lsl #24
    1558:	00000028 	andeq	r0, r0, r8, lsr #32
    155c:	00001548 	andeq	r1, r0, r8, asr #10
    1560:	00014160 	andeq	r4, r1, r0, ror #2
    1564:	000000d0 	ldrdeq	r0, [r0], -r0	; <UNPREDICTABLE>
    1568:	8e040e46 	cdphi	14, 0, cr0, cr4, cr6, {2}
    156c:	180e4801 	stmdane	lr, {r0, fp, lr}
    1570:	040e0a4c 	streq	r0, [lr], #-2636	; 0xfffff5b4
    1574:	000ece42 	andeq	ip, lr, r2, asr #28
    1578:	0a620b42 	beq	1884288 <errno+0x1864a54>
    157c:	ce42040e 	cdpgt	4, 4, cr0, cr2, cr14, {0}
    1580:	0b42000e 	bleq	10815c0 <errno+0x1061d8c>
    1584:	0000000c 	andeq	r0, r0, ip
    1588:	ffffffff 			; <UNDEFINED> instruction: 0xffffffff
    158c:	7c020001 	stcvc	0, cr0, [r2], {1}
    1590:	000d0c0e 	andeq	r0, sp, lr, lsl #24
    1594:	00000028 	andeq	r0, r0, r8, lsr #32
    1598:	00001584 	andeq	r1, r0, r4, lsl #11
    159c:	00014230 	andeq	r4, r1, r0, lsr r2
    15a0:	000000d8 	ldrdeq	r0, [r0], -r8
    15a4:	8e040e46 	cdphi	14, 0, cr0, cr4, cr6, {2}
    15a8:	180e4801 	stmdane	lr, {r0, fp, lr}
    15ac:	040e0a4c 	streq	r0, [lr], #-2636	; 0xfffff5b4
    15b0:	000ece42 	andeq	ip, lr, r2, asr #28
    15b4:	0a640b42 	beq	19042c4 <errno+0x18e4a90>
    15b8:	ce42040e 	cdpgt	4, 4, cr0, cr2, cr14, {0}
    15bc:	0b42000e 	bleq	10815fc <errno+0x1061dc8>
    15c0:	0000000c 	andeq	r0, r0, ip
    15c4:	ffffffff 			; <UNDEFINED> instruction: 0xffffffff
    15c8:	7c020001 	stcvc	0, cr0, [r2], {1}
    15cc:	000d0c0e 	andeq	r0, sp, lr, lsl #24
    15d0:	00000024 	andeq	r0, r0, r4, lsr #32
    15d4:	000015c0 	andeq	r1, r0, r0, asr #11
    15d8:	00014308 	andeq	r4, r1, r8, lsl #6
    15dc:	00000090 	muleq	r0, r0, r0
    15e0:	8e040e4e 	cdphi	14, 0, cr0, cr4, cr14, {2}
    15e4:	ce0a5601 	cfmadd32gt	mvax0, mvfx5, mvfx10, mvfx1
    15e8:	0b42000e 	bleq	1081628 <errno+0x1061df4>
    15ec:	0ece0a50 	mcreq	10, 6, r0, cr14, cr0, {2}
    15f0:	4c0b4200 	sfmmi	f4, 4, [fp], {-0}
    15f4:	00000ece 	andeq	r0, r0, lr, asr #29
    15f8:	0000000c 	andeq	r0, r0, ip
    15fc:	ffffffff 			; <UNDEFINED> instruction: 0xffffffff
    1600:	7c020001 	stcvc	0, cr0, [r2], {1}
    1604:	000d0c0e 	andeq	r0, sp, lr, lsl #24
    1608:	00000064 	andeq	r0, r0, r4, rrx
    160c:	000015f8 	strdeq	r1, [r0], -r8
    1610:	00014398 	muleq	r1, r8, r3
    1614:	0000010c 	andeq	r0, r0, ip, lsl #2
    1618:	840c0e42 	strhi	r0, [ip], #-3650	; 0xfffff1be
    161c:	8e028503 	cfsh32hi	mvfx8, mvfx2, #3
    1620:	240e4201 	strcs	r4, [lr], #-513	; 0xfffffdff
    1624:	05095005 	streq	r5, [r9, #-5]
    1628:	52050851 	andpl	r0, r5, #5308416	; 0x510000
    162c:	06530507 	ldrbeq	r0, [r3], -r7, lsl #10
    1630:	05055405 	streq	r5, [r5, #-1029]	; 0xfffffbfb
    1634:	0e440455 	mcreq	4, 2, r0, cr4, cr5, {2}
    1638:	0a4e0250 	beq	1381f80 <errno+0x136274c>
    163c:	0642240e 	strbeq	r2, [r2], -lr, lsl #8
    1640:	06550654 			; <UNDEFINED> instruction: 0x06550654
    1644:	06530652 			; <UNDEFINED> instruction: 0x06530652
    1648:	0e510650 	mrceq	6, 2, r0, cr1, cr0, {2}
    164c:	c5ce420c 	strbgt	r4, [lr, #524]	; 0x20c
    1650:	42000ec4 	andmi	r0, r0, #196, 28	; 0xc40
    1654:	0e0a440b 	cdpeq	4, 0, cr4, cr10, cr11, {0}
    1658:	50064224 	andpl	r4, r6, r4, lsr #4
    165c:	52065106 	andpl	r5, r6, #-2147483647	; 0x80000001
    1660:	54065306 	strpl	r5, [r6], #-774	; 0xfffffcfa
    1664:	0c0e5506 	cfstr32eq	mvfx5, [lr], {6}
    1668:	cec5c442 	cdpgt	4, 12, cr12, cr5, cr2, {2}
    166c:	0b42000e 	bleq	10816ac <errno+0x1061e78>
    1670:	0000000c 	andeq	r0, r0, ip
    1674:	ffffffff 			; <UNDEFINED> instruction: 0xffffffff
    1678:	7c020001 	stcvc	0, cr0, [r2], {1}
    167c:	000d0c0e 	andeq	r0, sp, lr, lsl #24
    1680:	00000018 	andeq	r0, r0, r8, lsl r0
    1684:	00001670 	andeq	r1, r0, r0, ror r6
    1688:	000144a4 	andeq	r4, r1, r4, lsr #9
    168c:	00000010 	andeq	r0, r0, r0, lsl r0
    1690:	84080e42 	strhi	r0, [r8], #-3650	; 0xfffff1be
    1694:	44018e02 	strmi	r8, [r1], #-3586	; 0xfffff1fe
    1698:	000ec4ce 	andeq	ip, lr, lr, asr #9
    169c:	0000000c 	andeq	r0, r0, ip
    16a0:	ffffffff 			; <UNDEFINED> instruction: 0xffffffff
    16a4:	7c020001 	stcvc	0, cr0, [r2], {1}
    16a8:	000d0c0e 	andeq	r0, sp, lr, lsl #24
    16ac:	00000040 	andeq	r0, r0, r0, asr #32
    16b0:	0000169c 	muleq	r0, ip, r6
    16b4:	000144b8 			; <UNDEFINED> instruction: 0x000144b8
    16b8:	000000f0 	strdeq	r0, [r0], -r0	; <UNPREDICTABLE>
    16bc:	8e040e42 	cdphi	14, 0, cr0, cr4, cr2, {2}
    16c0:	0c0e4201 	sfmeq	f4, 4, [lr], {1}
    16c4:	05035005 	streq	r5, [r3, #-5]
    16c8:	0e440251 	mcreq	2, 2, r0, cr4, cr1, {2}
    16cc:	0e0a6038 	mcreq	0, 0, r6, cr10, cr8, {1}
    16d0:	5006420c 	andpl	r4, r6, ip, lsl #4
    16d4:	040e5106 	streq	r5, [lr], #-262	; 0xfffffefa
    16d8:	000ece42 	andeq	ip, lr, r2, asr #28
    16dc:	0a640b42 	beq	19043ec <errno+0x18e4bb8>
    16e0:	06420c0e 	strbeq	r0, [r2], -lr, lsl #24
    16e4:	0e510650 	mrceq	6, 2, r0, cr1, cr0, {2}
    16e8:	0ece4204 	cdpeq	2, 12, cr4, cr14, cr4, {0}
    16ec:	000b4200 	andeq	r4, fp, r0, lsl #4
    16f0:	0000000c 	andeq	r0, r0, ip
    16f4:	ffffffff 			; <UNDEFINED> instruction: 0xffffffff
    16f8:	7c020001 	stcvc	0, cr0, [r2], {1}
    16fc:	000d0c0e 	andeq	r0, sp, lr, lsl #24
    1700:	00000080 	andeq	r0, r0, r0, lsl #1
    1704:	000016f0 	strdeq	r1, [r0], -r0
    1708:	000145a8 	andeq	r4, r1, r8, lsr #11
    170c:	00000294 	muleq	r0, r4, r2
    1710:	840c0e42 	strhi	r0, [ip], #-3650	; 0xfffff1be
    1714:	8e028503 	cfsh32hi	mvfx8, mvfx2, #3
    1718:	240e4401 	strcs	r4, [lr], #-1025	; 0xfffffbff
    171c:	05095005 	streq	r5, [r9, #-5]
    1720:	52050851 	andpl	r0, r5, #5308416	; 0x510000
    1724:	06530507 	ldrbeq	r0, [r3], -r7, lsl #10
    1728:	05055405 	streq	r5, [r5, #-1029]	; 0xfffffbfb
    172c:	0e480455 	mcreq	4, 2, r0, cr8, cr5, {2}
    1730:	0e0a5a30 	mcreq	10, 0, r5, cr10, cr0, {1}
    1734:	54064224 	strpl	r4, [r6], #-548	; 0xfffffddc
    1738:	52065506 	andpl	r5, r6, #25165824	; 0x1800000
    173c:	50065306 	andpl	r5, r6, r6, lsl #6
    1740:	0c0e5106 	stfeqs	f5, [lr], {6}
    1744:	c4c5ce42 	strbgt	ip, [r5], #3650	; 0xe42
    1748:	0b42000e 	bleq	1081788 <errno+0x1061f54>
    174c:	0e0a8202 	cdpeq	2, 0, cr8, cr10, cr2, {0}
    1750:	50064224 	andpl	r4, r6, r4, lsr #4
    1754:	52065106 	andpl	r5, r6, #-2147483647	; 0x80000001
    1758:	54065306 	strpl	r5, [r6], #-774	; 0xfffffcfa
    175c:	0c0e5506 	cfstr32eq	mvfx5, [lr], {6}
    1760:	cec5c442 	cdpgt	4, 12, cr12, cr5, cr2, {2}
    1764:	0b42000e 	bleq	10817a4 <errno+0x1061f70>
    1768:	240e4802 	strcs	r4, [lr], #-2050	; 0xfffff7fe
    176c:	06500642 	ldrbeq	r0, [r0], -r2, asr #12
    1770:	06520651 			; <UNDEFINED> instruction: 0x06520651
    1774:	06540653 			; <UNDEFINED> instruction: 0x06540653
    1778:	420c0e55 	andmi	r0, ip, #1360	; 0x550
    177c:	0ecec5c4 	cdpeq	5, 12, cr12, cr14, cr4, {6}
    1780:	00000000 	andeq	r0, r0, r0
    1784:	0000000c 	andeq	r0, r0, ip
    1788:	ffffffff 			; <UNDEFINED> instruction: 0xffffffff
    178c:	7c020001 	stcvc	0, cr0, [r2], {1}
    1790:	000d0c0e 	andeq	r0, sp, lr, lsl #24
    1794:	00000044 	andeq	r0, r0, r4, asr #32
    1798:	00001784 	andeq	r1, r0, r4, lsl #15
    179c:	00014840 	andeq	r4, r1, r0, asr #16
    17a0:	0000026c 	andeq	r0, r0, ip, ror #4
    17a4:	841c0e42 	ldrhi	r0, [ip], #-3650	; 0xfffff1be
    17a8:	86068507 	strhi	r8, [r6], -r7, lsl #10
    17ac:	88048705 	stmdahi	r4, {r0, r2, r8, r9, sl, pc}
    17b0:	8e028903 	cdphi	9, 0, cr8, cr2, cr3, {0}
    17b4:	300e4201 	andcc	r4, lr, r1, lsl #4
    17b8:	0e0a7e02 	cdpeq	14, 0, cr7, cr10, cr2, {0}
    17bc:	c9ce421c 	stmibgt	lr, {r2, r3, r4, r9, lr}^
    17c0:	c5c6c7c8 	strbgt	ip, [r6, #1992]	; 0x7c8
    17c4:	42000ec4 	andmi	r0, r0, #196, 28	; 0xc40
    17c8:	0e0a560b 	cfmadd32eq	mvax0, mvfx5, mvfx10, mvfx11
    17cc:	c5c4421c 	strbgt	r4, [r4, #540]	; 0x21c
    17d0:	c9c8c7c6 	stmibgt	r8, {r1, r2, r6, r7, r8, r9, sl, lr, pc}^
    17d4:	42000ece 	andmi	r0, r0, #3296	; 0xce0
    17d8:	0000000b 	andeq	r0, r0, fp
    17dc:	0000000c 	andeq	r0, r0, ip
    17e0:	ffffffff 			; <UNDEFINED> instruction: 0xffffffff
    17e4:	7c020001 	stcvc	0, cr0, [r2], {1}
    17e8:	000d0c0e 	andeq	r0, sp, lr, lsl #24
    17ec:	00000038 	andeq	r0, r0, r8, lsr r0
    17f0:	000017dc 	ldrdeq	r1, [r0], -ip
    17f4:	00014ab0 			; <UNDEFINED> instruction: 0x00014ab0
    17f8:	00000314 	andeq	r0, r0, r4, lsl r3
    17fc:	84100e44 	ldrhi	r0, [r0], #-3652	; 0xfffff1bc
    1800:	86038504 	strhi	r8, [r3], -r4, lsl #10
    1804:	48018e02 	stmdami	r1, {r1, r9, sl, fp, pc}
    1808:	0a6e300e 	beq	1b8d848 <errno+0x1b6e014>
    180c:	ce42100e 	cdpgt	0, 4, cr1, cr2, cr14, {0}
    1810:	0ec4c5c6 	cdpeq	5, 12, cr12, cr4, cr6, {6}
    1814:	020b4200 	andeq	r4, fp, #0, 4
    1818:	100e0a72 	andne	r0, lr, r2, ror sl
    181c:	c6c5c442 	strbgt	ip, [r5], r2, asr #8
    1820:	42000ece 	andmi	r0, r0, #3296	; 0xce0
    1824:	0000000b 	andeq	r0, r0, fp
    1828:	0000000c 	andeq	r0, r0, ip
    182c:	ffffffff 			; <UNDEFINED> instruction: 0xffffffff
    1830:	7c020001 	stcvc	0, cr0, [r2], {1}
    1834:	000d0c0e 	andeq	r0, sp, lr, lsl #24
    1838:	00000030 	andeq	r0, r0, r0, lsr r0
    183c:	00001828 	andeq	r1, r0, r8, lsr #16
    1840:	00014dc4 	andeq	r4, r1, r4, asr #27
    1844:	00000218 	andeq	r0, r0, r8, lsl r2
    1848:	84180e42 	ldrhi	r0, [r8], #-3650	; 0xfffff1be
    184c:	86058506 	strhi	r8, [r5], -r6, lsl #10
    1850:	88038704 	stmdahi	r3, {r2, r8, r9, sl, pc}
    1854:	42018e02 	andmi	r8, r1, #2, 28
    1858:	bc02200e 	stclt	0, cr2, [r2], {14}
    185c:	42180e0a 	andsmi	r0, r8, #10, 28	; 0xa0
    1860:	c6c7c8ce 	strbgt	ip, [r7], lr, asr #17
    1864:	000ec4c5 	andeq	ip, lr, r5, asr #9
    1868:	00000b42 	andeq	r0, r0, r2, asr #22
    186c:	0000000c 	andeq	r0, r0, ip
    1870:	ffffffff 			; <UNDEFINED> instruction: 0xffffffff
    1874:	7c020001 	stcvc	0, cr0, [r2], {1}
    1878:	000d0c0e 	andeq	r0, sp, lr, lsl #24
    187c:	0000000c 	andeq	r0, r0, ip
    1880:	0000186c 	andeq	r1, r0, ip, ror #16
    1884:	00014fe0 	andeq	r4, r1, r0, ror #31
    1888:	00000150 	andeq	r0, r0, r0, asr r1
    188c:	0000000c 	andeq	r0, r0, ip
    1890:	ffffffff 			; <UNDEFINED> instruction: 0xffffffff
    1894:	7c020001 	stcvc	0, cr0, [r2], {1}
    1898:	000d0c0e 	andeq	r0, sp, lr, lsl #24
    189c:	00000090 	muleq	r0, r0, r0
    18a0:	0000188c 	andeq	r1, r0, ip, lsl #17
    18a4:	00015130 	andeq	r5, r1, r0, lsr r1
    18a8:	00000880 	andeq	r0, r0, r0, lsl #17
    18ac:	84240e42 	strthi	r0, [r4], #-3650	; 0xfffff1be
    18b0:	86088509 	strhi	r8, [r8], -r9, lsl #10
    18b4:	88068707 	stmdahi	r6, {r0, r1, r2, r8, r9, sl, pc}
    18b8:	8a048905 	bhi	123cd4 <errno+0x1044a0>
    18bc:	8e028b03 	vmlahi.f64	d8, d2, d3
    18c0:	640e4201 	strvs	r4, [lr], #-513	; 0xfffffdff
    18c4:	05195005 	ldreq	r5, [r9, #-5]
    18c8:	52051851 	andpl	r1, r5, #5308416	; 0x510000
    18cc:	16530517 			; <UNDEFINED> instruction: 0x16530517
    18d0:	05155405 	ldreq	r5, [r5, #-1029]	; 0xfffffbfb
    18d4:	56051455 			; <UNDEFINED> instruction: 0x56051455
    18d8:	12570513 	subsne	r0, r7, #79691776	; 0x4c00000
    18dc:	05115805 	ldreq	r5, [r1, #-2053]	; 0xfffff7fb
    18e0:	5a051059 	bpl	145a4c <errno+0x126218>
    18e4:	0e5b050f 	cdpeq	5, 5, cr0, cr11, cr15, {0}
    18e8:	050d5c05 	streq	r5, [sp, #-3077]	; 0xfffff3fb
    18ec:	5e050c5d 	mcrpl	12, 0, r0, cr5, cr13, {2}
    18f0:	0a5f050b 	beq	17c2d24 <errno+0x17a34f0>
    18f4:	05b00e44 	ldreq	r0, [r0, #3652]!	; 0xe44
    18f8:	0a03ba03 	beq	f010c <errno+0xd08d8>
    18fc:	0642640e 	strbeq	r6, [r2], -lr, lsl #8
    1900:	065f065e 			; <UNDEFINED> instruction: 0x065f065e
    1904:	065d065c 			; <UNDEFINED> instruction: 0x065d065c
    1908:	065b065a 			; <UNDEFINED> instruction: 0x065b065a
    190c:	06590658 			; <UNDEFINED> instruction: 0x06590658
    1910:	06570656 			; <UNDEFINED> instruction: 0x06570656
    1914:	06550654 			; <UNDEFINED> instruction: 0x06550654
    1918:	06530652 			; <UNDEFINED> instruction: 0x06530652
    191c:	0e510650 	mrceq	6, 2, r0, cr1, cr0, {2}
    1920:	cbce4224 	blgt	ff3921b8 <errno+0xff372984>
    1924:	c7c8c9ca 	strbgt	ip, [r8, sl, asr #19]
    1928:	0ec4c5c6 	cdpeq	5, 12, cr12, cr4, cr6, {6}
    192c:	000b4200 	andeq	r4, fp, r0, lsl #4
    1930:	0000000c 	andeq	r0, r0, ip
    1934:	ffffffff 			; <UNDEFINED> instruction: 0xffffffff
    1938:	7c020001 	stcvc	0, cr0, [r2], {1}
    193c:	000d0c0e 	andeq	r0, sp, lr, lsl #24
    1940:	0000000c 	andeq	r0, r0, ip
    1944:	00001930 	andeq	r1, r0, r0, lsr r9
    1948:	000159b0 			; <UNDEFINED> instruction: 0x000159b0
    194c:	000000c0 	andeq	r0, r0, r0, asr #1
    1950:	0000000c 	andeq	r0, r0, ip
    1954:	ffffffff 			; <UNDEFINED> instruction: 0xffffffff
    1958:	7c020001 	stcvc	0, cr0, [r2], {1}
    195c:	000d0c0e 	andeq	r0, sp, lr, lsl #24
    1960:	00000038 	andeq	r0, r0, r8, lsr r0
    1964:	00001950 	andeq	r1, r0, r0, asr r9
    1968:	00015a70 	andeq	r5, r1, r0, ror sl
    196c:	0000028c 	andeq	r0, r0, ip, lsl #5
    1970:	84100e44 	ldrhi	r0, [r0], #-3652	; 0xfffff1bc
    1974:	86038504 	strhi	r8, [r3], -r4, lsl #10
    1978:	6a018e02 	bvs	65188 <errno+0x45954>
    197c:	c6c5c40a 	strbgt	ip, [r5], sl, lsl #8
    1980:	42000ece 	andmi	r0, r0, #3296	; 0xce0
    1984:	0a64020b 	beq	19021b8 <errno+0x18e2984>
    1988:	cec6c5c4 	cdpgt	5, 12, cr12, cr6, cr4, {6}
    198c:	0b42000e 	bleq	10819cc <errno+0x1062198>
    1990:	c6ce0a44 	strbgt	r0, [lr], r4, asr #20
    1994:	000ec4c5 	andeq	ip, lr, r5, asr #9
    1998:	00000b42 	andeq	r0, r0, r2, asr #22
    199c:	0000000c 	andeq	r0, r0, ip
    19a0:	ffffffff 			; <UNDEFINED> instruction: 0xffffffff
    19a4:	7c020001 	stcvc	0, cr0, [r2], {1}
    19a8:	000d0c0e 	andeq	r0, sp, lr, lsl #24
    19ac:	0000000c 	andeq	r0, r0, ip
    19b0:	0000199c 	muleq	r0, ip, r9
    19b4:	00015cfc 	strdeq	r5, [r1], -ip
    19b8:	00000010 	andeq	r0, r0, r0, lsl r0
    19bc:	0000000c 	andeq	r0, r0, ip
    19c0:	ffffffff 			; <UNDEFINED> instruction: 0xffffffff
    19c4:	7c020001 	stcvc	0, cr0, [r2], {1}
    19c8:	000d0c0e 	andeq	r0, sp, lr, lsl #24
    19cc:	00000030 	andeq	r0, r0, r0, lsr r0
    19d0:	000019bc 			; <UNDEFINED> instruction: 0x000019bc
    19d4:	00015d10 	andeq	r5, r1, r0, lsl sp
    19d8:	00000188 	andeq	r0, r0, r8, lsl #3
    19dc:	84080e42 	strhi	r0, [r8], #-3650	; 0xfffff1be
    19e0:	42018e02 	andmi	r8, r1, #2, 28
    19e4:	4202100e 	andmi	r1, r2, #14
    19e8:	42080e0a 	andmi	r0, r8, #10, 28	; 0xa0
    19ec:	000ecec4 	andeq	ip, lr, r4, asr #29
    19f0:	0a4c0b42 	beq	1304700 <errno+0x12e4ecc>
    19f4:	ce42080e 	cdpgt	8, 4, cr0, cr2, cr14, {0}
    19f8:	42000ec4 	andmi	r0, r0, #196, 28	; 0xc40
    19fc:	0000000b 	andeq	r0, r0, fp
    1a00:	0000000c 	andeq	r0, r0, ip
    1a04:	ffffffff 			; <UNDEFINED> instruction: 0xffffffff
    1a08:	7c020001 	stcvc	0, cr0, [r2], {1}
    1a0c:	000d0c0e 	andeq	r0, sp, lr, lsl #24
    1a10:	0000000c 	andeq	r0, r0, ip
    1a14:	00001a00 	andeq	r1, r0, r0, lsl #20
    1a18:	00015e98 	muleq	r1, r8, lr
    1a1c:	00000008 	andeq	r0, r0, r8
    1a20:	0000000c 	andeq	r0, r0, ip
    1a24:	ffffffff 			; <UNDEFINED> instruction: 0xffffffff
    1a28:	7c020001 	stcvc	0, cr0, [r2], {1}
    1a2c:	000d0c0e 	andeq	r0, sp, lr, lsl #24
    1a30:	0000000c 	andeq	r0, r0, ip
    1a34:	00001a20 	andeq	r1, r0, r0, lsr #20
    1a38:	00015ea0 	andeq	r5, r1, r0, lsr #29
    1a3c:	00000010 	andeq	r0, r0, r0, lsl r0
    1a40:	0000000c 	andeq	r0, r0, ip
    1a44:	ffffffff 			; <UNDEFINED> instruction: 0xffffffff
    1a48:	7c020001 	stcvc	0, cr0, [r2], {1}
    1a4c:	000d0c0e 	andeq	r0, sp, lr, lsl #24
    1a50:	00000074 	andeq	r0, r0, r4, ror r0
    1a54:	00001a40 	andeq	r1, r0, r0, asr #20
    1a58:	00015eb0 			; <UNDEFINED> instruction: 0x00015eb0
    1a5c:	00000188 	andeq	r0, r0, r8, lsl #3
    1a60:	8e040e42 	cdphi	14, 0, cr0, cr4, cr2, {2}
    1a64:	0c0e4201 	sfmeq	f4, 4, [lr], {1}
    1a68:	05035005 	streq	r5, [r3, #-5]
    1a6c:	0e420251 	mcreq	2, 2, r0, cr2, cr1, {2}
    1a70:	0e0a7e18 	mcreq	14, 0, r7, cr10, cr8, {0}
    1a74:	5006420c 	andpl	r4, r6, ip, lsl #4
    1a78:	040e5106 	streq	r5, [lr], #-262	; 0xfffffefa
    1a7c:	000ece42 	andeq	ip, lr, r2, asr #28
    1a80:	0a4c0b42 	beq	1304790 <errno+0x12e4f5c>
    1a84:	06420c0e 	strbeq	r0, [r2], -lr, lsl #24
    1a88:	0e510650 	mrceq	6, 2, r0, cr1, cr0, {2}
    1a8c:	0ece4204 	cdpeq	2, 12, cr4, cr14, cr4, {0}
    1a90:	440b4200 	strmi	r4, [fp], #-512	; 0xfffffe00
    1a94:	420c0e0a 	andmi	r0, ip, #10, 28	; 0xa0
    1a98:	51065006 	tstpl	r6, r6
    1a9c:	ce42040e 	cdpgt	4, 4, cr0, cr2, cr14, {0}
    1aa0:	0b42000e 	bleq	1081ae0 <errno+0x10622ac>
    1aa4:	0c0e0a46 	stceq	10, cr0, [lr], {70}	; 0x46
    1aa8:	06500642 	ldrbeq	r0, [r0], -r2, asr #12
    1aac:	42040e51 	andmi	r0, r4, #1296	; 0x510
    1ab0:	42000ece 	andmi	r0, r0, #3296	; 0xce0
    1ab4:	0e0a560b 	cfmadd32eq	mvax0, mvfx5, mvfx10, mvfx11
    1ab8:	5006420c 	andpl	r4, r6, ip, lsl #4
    1abc:	040e5106 	streq	r5, [lr], #-262	; 0xfffffefa
    1ac0:	000ece42 	andeq	ip, lr, r2, asr #28
    1ac4:	00000b42 	andeq	r0, r0, r2, asr #22
    1ac8:	0000000c 	andeq	r0, r0, ip
    1acc:	ffffffff 			; <UNDEFINED> instruction: 0xffffffff
    1ad0:	7c020001 	stcvc	0, cr0, [r2], {1}
    1ad4:	000d0c0e 	andeq	r0, sp, lr, lsl #24
    1ad8:	0000000c 	andeq	r0, r0, ip
    1adc:	00001ac8 	andeq	r1, r0, r8, asr #21
    1ae0:	00016038 	andeq	r6, r1, r8, lsr r0
    1ae4:	0000001c 	andeq	r0, r0, ip, lsl r0
    1ae8:	0000000c 	andeq	r0, r0, ip
    1aec:	ffffffff 			; <UNDEFINED> instruction: 0xffffffff
    1af0:	7c010001 	stcvc	0, cr0, [r1], {1}
    1af4:	000d0c0e 	andeq	r0, sp, lr, lsl #24
    1af8:	0000000c 	andeq	r0, r0, ip
    1afc:	00001ae8 	andeq	r1, r0, r8, ror #21
    1b00:	00016054 	andeq	r6, r1, r4, asr r0
    1b04:	000000f4 	strdeq	r0, [r0], -r4
    1b08:	0000000c 	andeq	r0, r0, ip
    1b0c:	ffffffff 			; <UNDEFINED> instruction: 0xffffffff
    1b10:	7c020001 	stcvc	0, cr0, [r2], {1}
    1b14:	000d0c0e 	andeq	r0, sp, lr, lsl #24
    1b18:	00000018 	andeq	r0, r0, r8, lsl r0
    1b1c:	00001b08 	andeq	r1, r0, r8, lsl #22
    1b20:	00016168 	andeq	r6, r1, r8, ror #2
    1b24:	0000003c 	andeq	r0, r0, ip, lsr r0
    1b28:	8e100e54 	mrchi	14, 0, r0, cr0, cr4, {2}
    1b2c:	0ece4803 	cdpeq	8, 12, cr4, cr14, cr3, {0}
    1b30:	00000010 	andeq	r0, r0, r0, lsl r0
    1b34:	0000000c 	andeq	r0, r0, ip
    1b38:	ffffffff 			; <UNDEFINED> instruction: 0xffffffff
    1b3c:	7c020001 	stcvc	0, cr0, [r2], {1}
    1b40:	000d0c0e 	andeq	r0, sp, lr, lsl #24
    1b44:	00000034 	andeq	r0, r0, r4, lsr r0
    1b48:	00001b34 	andeq	r1, r0, r4, lsr fp
    1b4c:	000161a4 	andeq	r6, r1, r4, lsr #3
    1b50:	0000012c 	andeq	r0, r0, ip, lsr #2
    1b54:	83280e44 			; <UNDEFINED> instruction: 0x83280e44
    1b58:	8509840a 	strhi	r8, [r9, #-1034]	; 0xfffffbf6
    1b5c:	87078608 	strhi	r8, [r7, -r8, lsl #12]
    1b60:	89058806 	stmdbhi	r5, {r1, r2, fp, pc}
    1b64:	8b038a04 	blhi	e437c <errno+0xc4b48>
    1b68:	02018e02 	andeq	r8, r1, #2, 28
    1b6c:	cacbce90 	bgt	ff2f55b4 <errno+0xff2d5d80>
    1b70:	c6c7c8c9 	strbgt	ip, [r7], r9, asr #17
    1b74:	0ec3c4c5 	cdpeq	4, 12, cr12, cr3, cr5, {6}
    1b78:	00000000 	andeq	r0, r0, r0
